(lp0
(iGameClasses
Character
p1
(dp2
S'stats'
p3
(I105
I110
I105
tp4
sS'name'
p5
S'Doug the Dev'
p6
sS'inv'
p7
(dp8
S'body'
p9
(iGameClasses
Equipment
p10
(dp11
S'info'
p12
S'Nothing is Equipped'
p13
sg3
(I0
I0
I0
tp14
sg5
S'EMPTY'
p15
sS'image'
p16
S'EMPTY.png'
p17
sS'worn'
p18
g9
sS'health'
p19
I-101
sS'location'
p20
(lp21
I0
aI3
aI1
asbsS'head'
p22
(iGameClasses
Equipment
p23
(dp24
g12
S'You can feel the electromagnetic energy emanating from it, one of the 3 quantum relics'
p25
sg3
(I100
I100
I100
tp26
sg5
S'Gauss Eye'
p27
sg16
S'GaussEye.jpg'
p28
sg18
g22
sg19
I-101
sg20
g21
sbsS'off-hand'
p29
(iGameClasses
Equipment
p30
(dp31
g12
S'The Lunch Box of an Ancient Hero. Full of samosas'
p32
sg3
(I5
I10
I5
tp33
sg5
S"Brendan Fallon's Lunchbox"
p34
sg16
S'Lunchbox.jpg'
p35
sg18
S'off-hand'
p36
sg19
I-101
sg20
g21
sbsS'hand'
p37
(iGameClasses
Equipment
p38
(dp39
g12
g13
sg3
(I0
I0
I0
tp40
sg5
g15
sg16
g17
sg18
g37
sg19
I-101
sg20
g21
sbssS'emptyinv'
p41
(dp42
g9
g10
sg22
(iGameClasses
Equipment
p43
(dp44
g12
g13
sg3
(I0
I0
I0
tp45
sg5
g15
sg16
g17
sg18
g22
sg19
I-101
sg20
g21
sbsg29
(iGameClasses
Equipment
p46
(dp47
g12
g13
sg3
(I0
I0
I0
tp48
sg5
g15
sg16
g17
sg18
g29
sg19
I-101
sg20
g21
sbsg37
g38
ssS'alive'
p49
I01
sg19
I100
sg20
g21
sS'spoke'
p50
I00
sba(dp51
S'cheese'
p52
(iGameClasses
Equipment
p53
(dp54
g12
S'Not just cheddar, the smelly kind.'
p55
sg3
(I1
I1
I1
tp56
sg5
S'Cheese'
p57
sg16
S'Cheese.jpg'
p58
sg18
g36
sg19
I5
sg20
(I5
I7
I1
tp59
sbsS'delicious meal'
p60
(iGameClasses
Equipment
p61
(dp62
g12
S'A beautiful, home-cooked, meal.'
p63
sg3
(I1
I1
I1
tp64
sg5
S'Delicious Meal'
p65
sg16
S'Meal.jpg'
p66
sg18
g36
sg19
I25
sg20
(NNNtp67
sbsS'shovel'
p68
(iGameClasses
Equipment
p69
(dp70
g12
S'Call a spade a spade.'
p71
sg3
(I15
I0
I5
tp72
sg5
S'Shovel'
p73
sg16
S'Shovel.jpg'
p74
sg18
g37
sg19
I-101
sg20
(I5
I0
I0
tp75
sbsS'bowling ball'
p76
(iGameClasses
Equipment
p77
(dp78
g12
S'Heavy.'
p79
sg3
(I20
I15
I-5
tp80
sg5
S'Bowling Ball'
p81
sg16
S'BowlingBall.jpg'
p82
sg18
g37
sg19
I-101
sg20
g67
sbsS'led of power'
p83
(iGameClasses
Equipment
p84
(dp85
g12
S'An LED with the power output of a neutron star, ok maybe not.'
p86
sg3
(I21
I0
I20
tp87
sg5
S'LED of Power'
p88
sg16
S'LED.jpg'
p89
sg18
g37
sg19
I-101
sg20
(I4
I4
I1
tp90
sbsS'green bang bong'
p91
(iGameClasses
Equipment
p92
(dp93
g12
S"The sacred glass flute providing righteous tokes since '69."
p94
sg3
(I420
I420
I420
tp95
sg5
S'Green Bang Bong'
p96
sg16
S'GBB.jpg'
p97
sg18
g36
sg19
I-101
sg20
g67
sbsS'gas mask'
p98
(iGameClasses
Equipment
p99
(dp100
g12
S'No one cared who I was till I put on the mask.'
p101
sg3
(I3
I6
I5
tp102
sg5
S'Gas Mask'
p103
sg16
S'GasMask.jpg'
p104
sg18
g22
sg19
I-101
sg20
(I3
I5
I1
tp105
sbsS'surgical mask'
p106
(iGameClasses
Equipment
p107
(dp108
g12
S"Don't touch me I'm sterile!"
p109
sg3
(I0
I2
I3
tp110
sg5
S'Surgical Mask'
p111
sg16
S'SurgicalMask.jpg'
p112
sg18
g22
sg19
I-101
sg20
(I0
I1
I1
tp113
sbsS'tofu'
p114
(iGameClasses
Equipment
p115
(dp116
g12
S"Vegan's delight."
p117
sg3
(I1
I0
I5
tp118
sg5
S'Tofu'
p119
sg16
S'Carrot.jpg'
p120
sg18
g37
sg19
I2
sg20
(I5
I4
I0
tp121
sbsS'jar of horse radish'
p122
(iGameClasses
Equipment
p123
(dp124
g12
S'Apparently not an instrument...'
p125
sg3
(I2
I0
I4
tp126
sg5
S'Jar of Horse Radish'
p127
sg16
S'HRaddish.jpg'
p128
sg18
g36
sg19
I3
sg20
(I4
I5
I1
tp129
sbsS'gilded blunderbuss'
p130
(iGameClasses
Equipment
p131
(dp132
g12
S'A beautiful firearm with infinite ammo.'
p133
sg3
(I200
I5
I50
tp134
sg5
S'Gilded Blunderbuss'
p135
sg16
S'Blunderbuss.jpg'
p136
sg18
g37
sg19
I-101
sg20
g67
sbsS'squash racket'
p137
(iGameClasses
Equipment
p138
(dp139
g12
S"Dr. Buijs' Racket? Voltage Divider!"
p140
sg3
(I5
I0
I8
tp141
sg5
S'Squash Racket'
p142
sg16
S'Racket.jpg'
p143
sg18
g37
sg19
I-101
sg20
(I5
I0
I1
tp144
sbsS'tarzan vhs'
p145
(iGameClasses
Equipment
p146
(dp147
g12
S'If only I had a VCR...'
p148
sg3
(I0
I2
I6
tp149
sg5
S'Tarzan VHS'
p150
sg16
S'Tarzan.jpg'
p151
sg18
g36
sg19
I3
sg20
(I0
I2
I1
tp152
sbsS'bike helmet'
p153
(iGameClasses
Equipment
p154
(dp155
g12
S'One of those fast Tour de France ones.'
p156
sg3
(I0
I8
I10
tp157
sg5
S'Bike Helmet'
p158
sg16
S'BikeHelmet.jpg'
p159
sg18
g22
sg19
I-101
sg20
(I3
I7
I1
tp160
sbsS'empty bottle'
p161
(iGameClasses
Equipment
p162
(dp163
g12
S'Dasani, more like Dishonest! Amirite?!'
p164
sg3
(I1
I0
I1
tp165
sg5
S'Empty Bottle'
p166
sg16
S'EmptyBottle.jpg'
p167
sg18
g37
sg19
I-101
sg20
(I4
I1
I1
tp168
sbsS'hard hat'
p169
(iGameClasses
Equipment
p170
(dp171
g12
S"You don't really want to look like a Civil kid. But at least it protects your head."
p172
sg3
(I1
I10
I5
tp173
sg5
S'Hard Hat'
p174
sg16
S'HardHat.jpg'
p175
sg18
g22
sg19
I-101
sg20
(I4
I2
I1
tp176
sbsS'priest gown'
p177
(iGameClasses
Equipment
p178
(dp179
g12
S'Wearing this gives people the impression you are a holy person...'
p180
sg3
(I1
I5
I3
tp181
sg5
S'Priest Gown'
p182
sg16
S'Gown.jpg'
p183
sg18
g9
sg19
I-101
sg20
(I2
I0
I2
tp184
sbsS'used plunger'
p185
(iGameClasses
Equipment
p186
(dp187
g12
S'Used. Lovely...'
p188
sg3
(I10
I0
I10
tp189
sg5
S'Used Plunger'
p190
sg16
S'Plunger.jpg'
p191
sg18
g37
sg19
I-101
sg20
g75
sbsS'dumbbell'
p192
(iGameClasses
Equipment
p193
(dp194
g12
S'The pump is the greatest feeling in the world.'
p195
sg3
(I5
I0
I2
tp196
sg5
S'Dumbbell'
p197
sg16
S'Dumbbell.jpg'
p198
sg18
g36
sg19
I-101
sg20
(I1
I0
I1
tp199
sbsS'febreze'
p200
(iGameClasses
Equipment
p201
(dp202
g12
S'Kills 99.9% of odour at the source!'
p203
sg3
(I6
I0
I10
tp204
sg5
S'Febreze'
p205
sg16
S'Ferbreze.jpg'
p206
sg18
g37
sg19
I-4
sg20
g199
sbsS'msp430'
p207
(iGameClasses
Equipment
p208
(dp209
g12
S'A literal piece of garbage.'
p210
sg3
(I-5
I0
I-5
tp211
sg5
S'MSP430'
p212
sg16
S'MSP430.jpg'
p213
sg18
g37
sg19
I-5
sg20
(NNNtp214
sbsS'declaration of independence'
p215
(iGameClasses
Equipment
p216
(dp217
g12
S"I'm going to steal the Declaration of Independence..."
p218
sg3
(I1
I1
I1
tp219
sg5
S'Declaration of Independence'
p220
sg16
S'DOI.jpg'
p221
sg18
g36
sg19
I-101
sg20
g67
sbsS'horrible assignment'
p222
(iGameClasses
Equipment
p223
(dp224
g12
S'A barely legible report on Fourier analysis.'
p225
sg3
(I3
I0
I0
tp226
sg5
S'Horrible Assignment'
p227
sg16
S'BadAss.jpg'
p228
sg18
g36
sg19
I-101
sg20
g67
sbsS'pope hat'
p229
(iGameClasses
Equipment
p230
(dp231
g12
S'Does the Pope where a silly hat? Now you do.'
p232
sg3
(I0
I3
I2
tp233
sg5
S'Pope Hat'
p234
sg16
S'PopeHat.jpg'
p235
sg18
g22
sg19
I-101
sg20
g184
sbsS'bottle opener'
p236
(iGameClasses
Equipment
p237
(dp238
g12
S'I wish I had a bottle of wine right about now...'
p239
sg3
(I0
I5
I15
tp240
sg5
S'Bottle Opener'
p241
sg16
S'BottleOpener.jpg'
p242
sg18
g36
sg19
I-101
sg20
g160
sbsS'car keys'
p243
(iGameClasses
Equipment
p244
(dp245
g12
S"Volkswagen car keys with an 'R' on the keychain.\nHmm..."
p246
sg3
(I5
I0
I5
tp247
sg5
S'Car Keys'
p248
sg16
S'CarKeys.jpg'
p249
sg18
g36
sg19
I-101
sg20
g176
sbsS"erik's frosted tips"
p250
(iGameClasses
Equipment
p251
(dp252
g12
S'Ever wanted to look rad as hell? Now you can!'
p253
sg3
(I0
I3
I20
tp254
sg5
S"Erik's Frosted Tips"
p255
sg16
S'FrostedTips.jpg'
p256
sg18
g22
sg19
I-101
sg20
g67
sbsS'pedrotti cubed'
p257
(iGameClasses
Equipment
p258
(dp259
g12
S"'Property of Harold Haugen, one of the 3 Quantum Relics' is inscribed on the first page."
p260
sg3
(I50
I150
I250
tp261
sg5
S'Pedrotti Cubed'
p262
sg16
S'Pedrotti.jpg'
p263
sg18
g36
sg19
I-101
sg20
(I3
I3
I0
tp264
sbsS'puke'
p265
(iGameClasses
Equipment
p266
(dp267
g12
S'Ew, literally a pool of vomit'
p268
sg3
(I1
I0
I-10
tp269
sg5
S'Puke'
p270
sg16
S'Puke.jpg'
p271
sg18
g9
sg19
I-2
sg20
g67
sbsS'visor glasses'
p272
(iGameClasses
Equipment
p273
(dp274
g12
S'Damn, you are now travelling waaaay to fast. Slow down dude!'
p275
sg3
(I1
I5
I35
tp276
sg5
S'Visor Glasses'
p277
sg16
S'FastGlasses.jpg'
p278
sg18
g22
sg19
I-101
sg20
g67
sbsS'plastic bag'
p279
(iGameClasses
Equipment
p280
(dp281
g12
S'The audacity of some people to leave their filth around.'
p282
sg3
(I0
I1
I-10
tp283
sg5
S'Plastic Bag'
p284
sg16
S'PBag.jpg'
p285
sg18
g22
sg19
I-101
sg20
(I2
I1
I1
tp286
sbsS'broken wine bottle'
p287
(iGameClasses
Equipment
p288
(dp289
g12
S'A broken wine bottle from 1996, good year.'
p290
sg3
(I10
I0
I5
tp291
sg5
S'Broken Wine Bottle'
p292
sg16
S'WineBottle.jpg'
p293
sg18
g37
sg19
I-101
sg20
(I4
I3
I1
tp294
sbsS'jar of peanut butter'
p295
(iGameClasses
Equipment
p296
(dp297
g12
S'Death paste to those who are allergic... Could prove effective...'
p298
sg3
(I0
I5
I5
tp299
sg5
S'Jar of Peanut Butter'
p300
sg16
S'Peanut.jpg'
p301
sg18
g36
sg19
I5
sg20
(I4
I0
I1
tp302
sbsS'toilet seat'
p303
(iGameClasses
Equipment
p304
(dp305
g12
S'How do you even wear this?'
p306
sg3
(I0
I3
I2
tp307
sg5
S'Toilet Seat'
p308
sg16
S'Toilet.jpg'
p309
sg18
g9
sg19
I-101
sg20
g75
sbsS'vh sauce'
p310
(iGameClasses
Equipment
p311
(dp312
g12
S'Sweet and sour. Nice.'
p313
sg3
(I1
I2
I1
tp314
sg5
S'VH Sauce'
p315
sg16
S'VHSauce.jpg'
p316
sg18
g36
sg19
I1
sg20
(I1
I4
I1
tp317
sbsS'banana'
p318
(iGameClasses
Equipment
p319
(dp320
g12
S'High in potassium.'
p321
sg3
(I5
I0
I5
tp322
sg5
S'Banana'
p323
sg16
S'Banana.jpg'
p324
sg18
g37
sg19
I2
sg20
(I1
I7
I1
tp325
sbsS'ice-cold pint'
p326
(iGameClasses
Equipment
p327
(dp328
g12
S'Ale of the Gods.'
p329
sg3
(I3
I0
I-5
tp330
sg5
S'Ice-Cold Pint'
p331
sg16
S'Pint.jpg'
p332
sg18
g36
sg19
I2
sg20
g294
sbsS'pencil'
p333
(iGameClasses
Equipment
p334
(dp335
g12
S'HB2. Sharpened.'
p336
sg3
(I2
I0
I5
tp337
sg5
S'Pencil'
p338
sg16
S'Pencil.jpg'
p339
sg18
g37
sg19
I-101
sg20
(I2
I4
I1
tp340
sbsS'coffee'
p341
(iGameClasses
Equipment
p342
(dp343
g12
S'The fuel of thinkers.'
p344
sg3
(I3
I0
I9
tp345
sg5
S'Coffee'
p346
sg16
S'Coffee.jpg'
p347
sg18
g36
sg19
I1
sg20
(NNNtp348
sbsS'capstone tools'
p349
(iGameClasses
Equipment
p350
(dp351
g12
S"Shouldn't the 4A06 students be using these?"
p352
sg3
(I1
I1
I1
tp353
sg5
S'Capstone Tools'
p354
sg16
S'CapTools.jpg'
p355
sg18
g36
sg19
I-101
sg20
g67
sbsS'cold steel katana'
p356
(iGameClasses
Equipment
p357
(dp358
g12
S'This could probably kill a buffalo fish...'
p359
sg3
(I18
I5
I20
tp360
sg5
S'Cold Steel Katana'
p361
sg16
S'Katana.jpg'
p362
sg18
g37
sg19
I-101
sg20
g67
sbsS'mop'
p363
(iGameClasses
Equipment
p364
(dp365
g12
S"I'm going to clean up this town."
p366
sg3
(I6
I0
I4
tp367
sg5
S'Mop'
p368
sg16
S'Mop.jpg'
p369
sg18
g37
sg19
I-101
sg20
(I0
I0
I1
tp370
sbsS'swordfish'
p371
(iGameClasses
Equipment
p372
(dp373
g12
S"I'd better be careful eating this!"
p374
sg3
(I10
I5
I5
tp375
sg5
S'Swordfish'
p376
sg16
S'Swordfish.jpg'
p377
sg18
g36
sg19
I12
sg20
g67
sbsS'ancient incantation'
p378
(iGameClasses
Equipment
p379
(dp380
g12
S'An old tattered scroll with an incantation written in Latin.'
p381
sg3
(I1
I1
I1
tp382
sg5
S'Ancient Incantation'
p383
sg16
S'Incantation.jpg'
p384
sg18
g36
sg19
I-101
sg20
g67
sbsS'meow mix'
p385
(iGameClasses
Equipment
p386
(dp387
g12
S'I love chicken, I love liver...'
p388
sg3
(I5
I0
I5
tp389
sg5
S'Meow Mix'
p390
sg16
S'MeowMix.jpg'
p391
sg18
g36
sg19
I1
sg20
g67
sbsS'gauss eye'
p392
g23
sS'phone'
p393
(iGameClasses
Equipment
p394
(dp395
g12
S"This thing has been dropped Graham's number times."
p396
sg3
(I5
I6
I9
tp397
sg5
S'Phone'
p398
sg16
S'Phone.jpg'
p399
sg18
g36
sg19
I-101
sg20
g67
sbsS'casio'
p400
(iGameClasses
Equipment
p401
(dp402
g12
S"This one can do integrals. That's illegal."
p403
sg3
(I1
I5
I10
tp404
sg5
S'Casio'
p405
sg16
S'Casio.jpg'
p406
sg18
g36
sg19
I-101
sg20
(I2
I7
I1
tp407
sbsS'vomit'
p408
(iGameClasses
Equipment
p409
(dp410
g12
S'Literally spew.'
p411
sg3
(I0
I0
I1
tp412
sg5
S'Vomit'
p413
sg16
S'Vomit.jpg'
p414
sg18
g36
sg19
I-1
sg20
(I2
I3
I1
tp415
sbsS'bleach squirt bottle'
p416
(iGameClasses
Equipment
p417
(dp418
g12
S"Probably wouldn't be nice to get sprayed with."
p419
sg3
(I15
I5
I20
tp420
sg5
S'Bleach Squirt Bottle'
p421
sg16
S'Bleach.jpg'
p422
sg18
g37
sg19
I-10
sg20
g67
sbsS'drumstick'
p423
(iGameClasses
Equipment
p424
(dp425
g12
S"'Property of E-Smooth'"
p426
sg3
(I0
I10
I15
tp427
sg5
S'Drumstick'
p428
sg16
S'Drumstick.jpg'
p429
sg18
g36
sg19
I-101
sg20
(I5
I4
I2
tp430
sbsS"wendy's bag"
p431
(iGameClasses
Equipment
p432
(dp433
g12
S'Fully equipped with grease stains.'
p434
sg3
(I1
I0
I-5
tp435
sg5
S"Wendy's Bag"
p436
sg16
S'WendyBag.jpg'
p437
sg18
g22
sg19
I-101
sg20
(I0
I6
I1
tp438
sbsS'empty bucket'
p439
(iGameClasses
Equipment
p440
(dp441
g12
S'The smell of cheap soap still lingers.'
p442
sg3
(I0
I10
I1
tp443
sg5
S'Empty Bucket'
p444
sg16
S'Bucket.jpg'
p445
sg18
g22
sg19
I-101
sg20
g75
sbsS'old scroll'
p446
(iGameClasses
Equipment
p447
(dp448
g12
S"It reads:\n'A permanent title is too much to bear.'\n'My secret cache, is under there.'"
p449
sg3
(I0
I0
I0
tp450
sg5
S'Old Scroll'
p451
sg16
S'OldScroll.jpg'
p452
sg18
g36
sg19
I-101
sg20
g67
sbsS'pid control system'
p453
(iGameClasses
Equipment
p454
(dp455
g12
S'A PID control system. Kp = 69, my dude.'
p456
sg3
(I45
I0
I10
tp457
sg5
S'PID control system'
p458
sg16
S'PID.jpg'
p459
sg18
g22
sg19
I-101
sg20
g67
sbsS'voltage divider'
p460
(iGameClasses
Equipment
p461
(dp462
g12
S'It is a Voltage Divider!'
p463
sg3
(I20
I25
I20
tp464
sg5
S'Voltage Divider'
p465
sg16
S'VDivider.jpg'
p466
sg18
g36
sg19
I-101
sg20
g67
sbsS'santa hat'
p467
(iGameClasses
Equipment
p468
(dp469
g12
S'Happy Holidays!'
p470
sg3
(I0
I3
I2
tp471
sg5
S'Santa Hat'
p472
sg16
S'SantaHat.jpg'
p473
sg18
g22
sg19
I-101
sg20
g370
sbsS'banana wires'
p474
(iGameClasses
Equipment
p475
(dp476
g12
S'Alligator clips added for extra whippage.'
p477
sg3
(I8
I0
I8
tp478
sg5
S'Banana Wires'
p479
sg16
S'BanWires.jpg'
p480
sg18
g37
sg19
I3
sg20
(I3
I3
I1
tp481
sbsS'party hat'
p482
(iGameClasses
Equipment
p483
(dp484
g12
S'A nice hat from a cracker.'
p485
sg3
(I0
I5
I3
tp486
sg5
S'Party Hat'
p487
sg16
S'PartyHat.jpg'
p488
sg18
g22
sg19
I-101
sg20
(I3
I6
I1
tp489
sbsS'potato'
p490
(iGameClasses
Equipment
p491
(dp492
g12
S'A most versatile vegetable.\nGood for breakfast, lunch, and dinner.'
p493
sg3
(I1
I1
I1
tp494
sg5
S'Potato'
p495
sg16
S'Potato.jpg'
p496
sg18
g36
sg19
I5
sg20
g67
sbsS'shampoo'
p497
(iGameClasses
Equipment
p498
(dp499
g12
S'Yeah, I could use a shower...'
p500
sg3
(I4
I0
I3
tp501
sg5
S'Shampoo'
p502
sg16
S'Shampoo.jpg'
p503
sg18
g36
sg19
I-101
sg20
g370
sbsS'candlestick'
p504
(iGameClasses
Equipment
p505
(dp506
g12
S'Lumiere is up to no good.'
p507
sg3
(I7
I0
I5
tp508
sg5
S'Candlestick'
p509
sg16
S'Candlestick.jpg'
p510
sg18
g37
sg19
I-101
sg20
(I4
I0
I0
tp511
sbsS'gamma glove'
p512
(iGameClasses
Equipment
p513
(dp514
g12
S'Shorter than it really is due to length contraction, one of the 3 Quantum Relics'
p515
sg3
(I250
I100
I20
tp516
sg5
S'Gamma Glove'
p517
sg16
S'GammaGauntlet.jpg'
p518
sg18
g37
sg19
I-101
sg20
g67
sbsS'clean needle'
p519
(iGameClasses
Equipment
p520
(dp521
g12
S"No more spreadin' disease!"
p522
sg3
(I9
I0
I9
tp523
sg5
S'Clean Needle'
p524
sg16
S'CleanNeedle.jpg'
p525
sg18
g37
sg19
I-101
sg20
g67
sbsS'laser safety glasses'
p526
(iGameClasses
Equipment
p527
(dp528
g12
S'Protection from the UV, my dude.'
p529
sg3
(I0
I3
I5
tp530
sg5
S'Laser Safety Glasses'
p531
sg16
S'LSGlasses.jpg'
p532
sg18
g22
sg19
I-101
sg20
(I1
I6
I0
tp533
sbsS'goggles'
p534
(iGameClasses
Equipment
p535
(dp536
g12
S'Got PPE?'
p537
sg3
(I2
I0
I2
tp538
sg5
S'Goggles'
p539
sg16
S'Goggles.jpg'
p540
sg18
g22
sg19
I-101
sg20
(I3
I2
I1
tp541
sbsS'priceless painting'
p542
(iGameClasses
Equipment
p543
(dp544
g12
S'This painting is supposed to be worth millions...'
p545
sg3
(I1
I10
I5
tp546
sg5
S'Priceless Painting'
p547
sg16
S'Painting.jpg'
p548
sg18
g36
sg19
I-101
sg20
(I3
I0
I1
tp549
sbsS'paint brush'
p550
(iGameClasses
Equipment
p551
(dp552
g12
S'You can feel the emotions of a failed arts student coursing through this thing.'
p553
sg3
(I5
I0
I5
tp554
sg5
S'Paint Brush'
p555
sg16
S'Brush.jpg'
p556
sg18
g36
sg19
I-101
sg20
(I3
I1
I1
tp557
sbsS'old candle'
p558
(iGameClasses
Equipment
p559
(dp560
g12
S"Seems like it's had some use."
p561
sg3
(I0
I2
I2
tp562
sg5
S'Old Candle'
p563
sg16
S'OldCandle.jpg'
p564
sg18
g36
sg19
I-101
sg20
(I2
I0
I0
tp565
sbsS"haugen's clothes"
p566
(iGameClasses
Equipment
p567
(dp568
g12
S'OH My. The clothes of the gentle dolphin now gone.\nFeels kinda wet.'
p569
sg3
(I5
I10
I10
tp570
sg5
S"Haugen's Clothes"
p571
sg16
S'HaugenShirt.jpg'
p572
sg18
g9
sg19
I10
sg20
g533
sbsS'3w textbook'
p573
(iGameClasses
Equipment
p574
(dp575
g12
S'Text book that probably has useful information if you could read it. Too bad it has never been in the QT'
p576
sg3
(I5
I5
I10
tp577
sg5
S'3W Textbook'
p578
sg16
S'3WText.jpg'
p579
sg18
g36
sg19
I-101
sg20
g348
sbsS'fireball hat'
p580
(iGameClasses
Equipment
p581
(dp582
g12
S"Kind of like the hat you bought in first year and thought you'd wear forever..."
p583
sg3
(I0
I3
I1
tp584
sg5
S'Fireball Hat'
p585
sg16
S'EngHat.jpg'
p586
sg18
g22
sg19
I-101
sg20
(I2
I2
I1
tp587
sbsS'raybans'
p588
(iGameClasses
Equipment
p589
(dp590
g12
S'GQ Teen says Raybans, Board Shorts, Vans, and a Muscle Tee.'
p591
sg3
(I0
I1
I3
tp592
sg5
S'Raybans'
p593
sg16
S'Raybans.jpg'
p594
sg18
g22
sg19
I-101
sg20
(I5
I5
I1
tp595
sbsS'pee bottle'
p596
(iGameClasses
Equipment
p597
(dp598
g12
S'It is literally a bottle of urine.'
p599
sg3
(I4
I0
I0
tp600
sg5
S'Pee Bottle'
p601
sg16
S'PeeBottle.jpg'
p602
sg18
g37
sg19
I-101
sg20
g286
sbsS'huge shirt'
p603
(iGameClasses
Equipment
p604
(dp605
g12
S'This shirt is WAY too big'
p606
sg3
(I0
I5
I5
tp607
sg5
S'Huge Shirt'
p608
sg16
S'HugeShirt.jpg'
p609
sg18
g9
sg19
I-101
sg20
g67
sbsS'joint of destiny'
p610
(iGameClasses
Equipment
p611
(dp612
g12
S"A tighly rolled spliff filled with Devil's lettuce... for real."
p613
sg3
(I420
I420
I420
tp614
sg5
S'Joint of Destiny'
p615
sg16
S'Joint.jpg'
p616
sg18
g36
sg19
I-101
sg20
g67
sbsS'tony hawk shirt'
p617
(iGameClasses
Equipment
p618
(dp619
g12
S'A shirt personally made by tony hawk!'
p620
sg3
(I5
I5
I5
tp621
sg5
S'Tony Hawk Shirt'
p622
sg16
S'TonyHAwkShirt.jpg'
p623
sg18
g9
sg19
I-101
sg20
g105
sbsS"phil's braces"
p624
(iGameClasses
Equipment
p625
(dp626
g12
S'Bark AND the bite.'
p627
sg3
(I3
I2
I1
tp628
sg5
S"Phil's Braces"
p629
sg16
S'PhilBraces.jpg'
p630
sg18
g22
sg19
I-101
sg20
(I2
I5
I0
tp631
sbsS"kenrick's oscilloscope"
p632
(iGameClasses
Equipment
p633
(dp634
g12
S'The window into the electronics world...'
p635
sg3
(I0
I150
I50
tp636
sg5
S"Kenrick's Oscilloscope"
p637
sg16
S'Oscilloscope.jpg'
p638
sg18
g36
sg19
I-101
sg20
g348
sbsS'femtosecond laser'
p639
(iGameClasses
Equipment
p640
(dp641
g12
S"Haugen's personal femtosecond laser."
p642
sg3
(I125
I0
I999
tp643
sg5
S'Femtosecond Laser'
p644
sg16
S'Laser.jpg'
p645
sg18
g37
sg19
I-101
sg20
(NNNtp646
sbsS'cricket'
p647
(iGameClasses
Equipment
p648
(dp649
g12
S'Makes the sound commonly heard at 2W lectures.'
p650
sg3
(I1
I1
I1
tp651
sg5
S'Cricket'
p652
sg16
S'Cricket.jpg'
p653
sg18
g36
sg19
I3
sg20
(I3
I3
I2
tp654
sbsS'flux capacitor'
p655
(iGameClasses
Equipment
p656
(dp657
g12
S'If only I could go back to 1985...'
p658
sg3
(I1
I1
I1
tp659
sg5
S'Flux Capacitor'
p660
sg16
S'FluxCapacitor.jpg'
p661
sg18
g37
sg19
I-101
sg20
g67
sbsS'okons chainmail'
p662
(iGameClasses
Equipment
p663
(dp664
g12
S'The sacred chainmail forged by the legend himself'
p665
sg3
(I25
I50
I25
tp666
sg5
S'Okons Chainmail'
p667
sg16
S'OkonMail.jpg'
p668
sg18
g9
sg19
I-101
sg20
(I0
I2
I0
tp669
sbsS'hazmat suit'
p670
(iGameClasses
Equipment
p671
(dp672
g12
S'Protection from all sorts of McCrindle farts...'
p673
sg3
(I0
I10
I5
tp674
sg5
S'Hazmat Suit'
p675
sg16
S'Hazmat.jpg'
p676
sg18
g9
sg19
I-101
sg20
(I2
I5
I1
tp677
sbsS'pizza box'
p678
(iGameClasses
Equipment
p679
(dp680
g12
S'Fully equipped with crusted cheese.'
p681
sg3
(I1
I5
I1
tp682
sg5
S'Pizza Box'
p683
sg16
S'PizzaBox.jpg'
p684
sg18
g9
sg19
I-101
sg20
(I0
I3
I1
tp685
sbsS'tire iron'
p686
(iGameClasses
Equipment
p687
(dp688
g12
S'Is this even a real tool? Or just a murder weapon...'
p689
sg3
(I11
I0
I3
tp690
sg5
S'Tire Iron'
p691
sg16
S'TireIron.jpg'
p692
sg18
g37
sg19
I-101
sg20
g59
sbsS'ukelele'
p693
(iGameClasses
Equipment
p694
(dp695
g12
S'Wasting away again in Margaritaville...'
p696
sg3
(I6
I0
I5
tp697
sg5
S'Ukelele'
p698
sg16
S'Ukelele.jpg'
p699
sg18
g37
sg19
I-101
sg20
g90
sbsS'fanny pack'
p700
(iGameClasses
Equipment
p701
(dp702
g12
S'Made for style. Not for carrying.'
p703
sg3
(I3
I8
I15
tp704
sg5
S'Fanny Pack'
p705
sg16
S'FannyPack.jpg'
p706
sg18
g9
sg19
I-101
sg20
g67
sbsS"einstein's brain"
p707
(iGameClasses
Equipment
p708
(dp709
g12
S"Feel's kind of weird walking around with this..."
p710
sg3
(I1
I1
I1
tp711
sg5
S"Einstein's Brain"
p712
sg16
S'Brain.jpg'
p713
sg18
g36
sg19
I10
sg20
(NNNtp714
sbsS'lenovo laptop'
p715
(iGameClasses
Equipment
p716
(dp717
g12
S'This heap of computing majesty could block bullets... I think...'
p718
sg3
(I5
I15
I-5
tp719
sg5
S'Lenovo Laptop'
p720
sg16
S'Lenovo.jpg'
p721
sg18
g36
sg19
I-101
sg20
(I1
I5
I2
tp722
sbsS"brendan fallon's lunchbox"
p723
g30
sS'ambifacient lunar waneshaft'
p724
(iGameClasses
Equipment
p725
(dp726
g12
S'The design consists simply of six hydrocoptic marzlevanes,\nthey fit to the ambifacient lunar waneshaft so that side fumbling is effectively prevented'
p727
sg3
(I1
I1
I1
tp728
sg5
S'Ambifacient Lunar Waneshaft'
p729
sg16
S'Dumbness.jpg'
p730
sg18
g36
sg19
I-101
sg20
g67
sbsS'eng phys pen'
p731
(iGameClasses
Equipment
p732
(dp733
g12
S'It would be amazing if this thing actually worked. Plug it in and find all of 2P04.'
p734
sg3
(I5
I0
I5
tp735
sg5
S'Eng Phys Pen'
p736
sg16
S'PhysPen.jpg'
p737
sg18
g37
sg19
I-101
sg20
(I1
I6
I2
tp738
sbsS'space pop'
p739
(iGameClasses
Equipment
p740
(dp741
g12
S'Get ready to go to space pop city.'
p742
sg3
(I4
I0
I10
tp743
sg5
S'Space Pop'
p744
sg16
S'SpacePop.jgp'
p745
sg18
g37
sg19
I1
sg20
(I1
I7
I2
tp746
sbsS'hockey pads'
p747
(iGameClasses
Equipment
p748
(dp749
g12
S"IM NOT WEARIN' HOCKEY PADS!"
p750
sg3
(I3
I13
I5
tp751
sg5
S'Hockey Pads'
p752
sg16
S'HockeyPads.jpg'
p753
sg18
g9
sg19
I-101
sg20
g59
sbsS'old ladder'
p754
(iGameClasses
Equipment
p755
(dp756
g12
S'Pretty rickety but would work for climbing.'
p757
sg3
(I14
I8
I-15
tp758
sg5
S'Old Ladder'
p759
sg16
S'OldLadder.jpg'
p760
sg18
g36
sg19
I-101
sg20
(I0
I7
I1
tp761
sbsS'pink donut'
p762
(iGameClasses
Equipment
p763
(dp764
g12
S'This is what fusion is all about?'
p765
sg3
(I1
I1
I1
tp766
sg5
S'Pink Donut'
p767
sg16
S'PinkDonut.jpg'
p768
sg18
g36
sg19
I2
sg20
g67
sbsS'relativistic key'
p769
(iGameClasses
Equipment
p770
(dp771
g12
S'You can feel the power radiating from this thing.'
p772
sg3
(I1
I1
I1
tp773
sg5
S'Relativistic Key'
p774
sg16
S'Relativistickey.jpg'
p775
sg18
g37
sg19
I-101
sg20
g646
sbsS'stylish watch'
p776
(iGameClasses
Equipment
p777
(dp778
g12
S'If only you learned how to tell time on an analog clock...'
p779
sg3
(I0
I15
I20
tp780
sg5
S'Stylish Watch'
p781
sg16
S'watch.jpg'
p782
sg18
g36
sg19
I-101
sg20
g67
sbsS'solar ray'
p783
(iGameClasses
Equipment
p784
(dp785
g12
S'The literal power of the Sun!'
p786
sg3
(I100
I20
I50
tp787
sg5
S'Solar Ray'
p788
sg16
S'SolarRay.jpg'
p789
sg18
g37
sg19
I-101
sg20
g722
sbsS'starbucks apron'
p790
(iGameClasses
Equipment
p791
(dp792
g12
S'If you put this on do you immediately know how to make a frappe?'
p793
sg3
(I1
I5
I5
tp794
sg5
S'Starbucks Apron'
p795
sg16
S'Apron.jpg'
p796
sg18
g9
sg19
I-101
sg20
g144
sbsS'maroon jumpsuit'
p797
(iGameClasses
Equipment
p798
(dp799
g12
S'Overalls of the Maroons'
p800
sg3
(I1
I8
I5
tp801
sg5
S'Maroon Jumpsuit'
p802
sg16
S'MaroonSuit.jpg'
p803
sg18
g9
sg19
I-101
sg20
(I5
I1
I1
tp804
sbsS'needa pita'
p805
(iGameClasses
Equipment
p806
(dp807
g12
S'Better have gotten black olives on that'
p808
sg3
(I2
I0
I1
tp809
sg5
S'Needa Pita'
p810
sg16
S'Pita.jpg'
p811
sg18
g37
sg19
I5
sg20
(I4
I6
I1
tp812
sbsS'lamp'
p813
(iGameClasses
Equipment
p814
(dp815
g12
S'I love lamp.'
p816
sg3
(I8
I0
I4
tp817
sg5
S'Lamp'
p818
sg16
S'Lamp.jpg'
p819
sg18
g37
sg19
I-101
sg20
(I0
I5
I1
tp820
sbsS'redsuit'
p821
(iGameClasses
Equipment
p822
(dp823
g12
S'Overalls of drunks... I mean engineers'
p824
sg3
(I5
I5
I5
tp825
sg5
S'Redsuit'
p826
sg16
S'Redsuit.jpg'
p827
sg18
g9
sg19
I-101
sg20
(I2
I4
I2
tp828
sbsS'cold beer'
p829
(iGameClasses
Equipment
p830
(dp831
g12
S'A freshly brewed pint from Andy Knights himself.'
p832
sg3
(I15
I0
I20
tp833
sg5
S'Cold Beer'
p834
sg16
S'ColdBeer.jpg'
p835
sg18
g36
sg19
I2
sg20
(I5
I4
I1
tp836
sbsS'eng phys shirt'
p837
(iGameClasses
Equipment
p838
(dp839
g12
S'Rolling Rock baby! Premium Stream my ass... More like premium pain...'
p840
sg3
(I0
I7
I5
tp841
sg5
S'Eng Phys Shirt'
p842
sg16
S'EngPhysShirt.jpg'
p843
sg18
g9
sg19
I-101
sg20
g264
sbsS'pvc pipe'
p844
(iGameClasses
Equipment
p845
(dp846
g12
S'Probably part of a PID project...'
p847
sg3
(I9
I2
I10
tp848
sg5
S'PVC Pipe'
p849
sg16
S'PVCPipe.jpg'
p850
sg18
g37
sg19
I-101
sg20
(I4
I7
I1
tp851
sbsS'couch cushion'
p852
(iGameClasses
Equipment
p853
(dp854
g12
S'I hope I find I pillow fight.'
p855
sg3
(I4
I10
I1
tp856
sg5
S'Couch Cushion'
p857
sg16
S'CCushion.jpg'
p858
sg18
g36
sg19
I-101
sg20
g325
sbsS'fake gun'
p859
(iGameClasses
Equipment
p860
(dp861
g12
S'Is this seriously what at the MAC cops carry...'
p862
sg3
(I5
I0
I5
tp863
sg5
S'Fake Gun'
p864
sg16
S'FakeGun.jpg'
p865
sg18
g37
sg19
I-101
sg20
g67
sbsS'iron ring'
p866
(iGameClasses
Equipment
p867
(dp868
g12
S'The One Ring to Rule them ALL.'
p869
sg3
(I1000
I1000
I1000
tp870
sg5
S'Iron Ring'
p871
sg16
S'IronRing.jpg'
p872
sg18
g37
sg19
I-100
sg20
g533
sbsS"minnick's glasses"
p873
(iGameClasses
Equipment
p874
(dp875
g12
S'The spectacles of a wizard from the High Order of the Ancient Council.'
p876
sg3
(I100
I100
I100
tp877
sg5
S"Minnick's Glasses"
p878
sg16
S'MinnickGlasses.jpg'
p879
sg18
g22
sg19
I-101
sg20
(NNNtp880
sbsS'frisbee'
p881
(iGameClasses
Equipment
p882
(dp883
g12
S'Look at the flick of the wrist!'
p884
sg3
(I3
I0
I5
tp885
sg5
S'Frisbee'
p886
sg16
S'Frisbee.jpg'
p887
sg18
g37
sg19
I-101
sg20
g587
sbsS'butter knife'
p888
(iGameClasses
Equipment
p889
(dp890
g12
S'Meant for spreading, not stabbing...'
p891
sg3
(I4
I0
I5
tp892
sg5
S'Butter Knife'
p893
sg16
S'ButterKnife.jpg'
p894
sg18
g37
sg19
I-101
sg20
g812
sbsS'guitar'
p895
(iGameClasses
Equipment
p896
(dp897
g12
S'Monster Mash.'
p898
sg3
(I10
I3
I5
tp899
sg5
S'Guitar'
p900
sg16
S'Guitar.jpg'
p901
sg18
g37
sg19
I-101
sg20
g67
sbsS'old headphones'
p902
(iGameClasses
Equipment
p903
(dp904
g12
S'Old frayed apple headphones. Good for whipping.'
p905
sg3
(I5
I0
I5
tp906
sg5
S'Old Headphones'
p907
sg16
S'OldHeadphones.jpg'
p908
sg18
g37
sg19
I-101
sg20
(I1
I5
I1
tp909
sbsS'old car keys'
p910
(iGameClasses
Equipment
p911
(dp912
g12
S'Fun for babies. Not for Batman.'
p913
sg3
(I7
I0
I15
tp914
sg5
S'Old Car Keys'
p915
sg16
g249
sg18
g37
sg19
I-101
sg20
g438
sbsS'hulk hands'
p916
(iGameClasses
Equipment
p917
(dp918
g12
S'These pack a serious punch...'
p919
sg3
(I15
I5
I20
tp920
sg5
S'Hulk Hands'
p921
sg16
S'HulkHands.jpg'
p922
sg18
g37
sg19
I-101
sg20
(I0
I3
I0
tp923
sbsS'adderall'
p924
(iGameClasses
Equipment
p925
(dp926
g12
S'Speed up, my dude!'
p927
sg3
(I0
I0
I50
tp928
sg5
S'Adderall'
p929
sg16
S'Adderall.jpg'
p930
sg18
g36
sg19
I2
sg20
(I5
I3
I1
tp931
sbsS'goldfish'
p932
(iGameClasses
Equipment
p933
(dp934
g12
S'Fun fact, not made of real gold.'
p935
sg3
(I1
I1
I1
tp936
sg5
S'Goldfish'
p937
sg16
S'Goldfish.jpg'
p938
sg18
g36
sg19
I4
sg20
g184
sbsS"frank's red hot"
p939
(iGameClasses
Equipment
p940
(dp941
g12
S'I put that...'
p942
sg3
(I3
I0
I2
tp943
sg5
S"Frank's Red Hot"
p944
sg16
S'FranksRed.jpg'
p945
sg18
g36
sg19
I1
sg20
(I0
I4
I1
tp946
sbsS'silicon substrate'
p947
(iGameClasses
Equipment
p948
(dp949
g12
S'A bulk silicon wafer.'
p950
sg3
(I1
I1
I1
tp951
sg5
S'Silicon Substrate'
p952
sg16
S'Substrate.jpg'
p953
sg18
g36
sg19
I-101
sg20
g348
sbsS"faraday's cage"
p954
(iGameClasses
Equipment
p955
(dp956
g12
S'Faraday cage.'
p957
sg3
(I20
I75
I15
tp958
sg5
S"Faraday's Cage"
p959
sg16
S'Faraday.jpg'
p960
sg18
g22
sg19
I-101
sg20
g348
sbsS'rusty key'
p961
(iGameClasses
Equipment
p962
(dp963
g12
S"You can just about read:\n'By the building where the smallest are seen.'\n'This key will provide for those who are keen'"
p964
sg3
(I1
I1
I1
tp965
sg5
S'Rusty Key'
p966
sg16
S'RustyKey.jpg'
p967
sg18
g36
sg19
I-101
sg20
g880
sbsS'wood shield'
p968
(iGameClasses
Equipment
p969
(dp970
g12
S'An old wooden shield used in a play, you think...'
p971
sg3
(I5
I20
I-5
tp972
sg5
S'Wood Shield'
p973
sg16
S'Shield.jpg'
p974
sg18
g36
sg19
I-101
sg20
g430
sbsS'paper towels'
p975
(iGameClasses
Equipment
p976
(dp977
g12
S"WHERE'S THE PAPER TOWELS?"
p978
sg3
(I2
I0
I1
tp979
sg5
S'Paper Towels'
p980
sg16
S'PaperTowels.jpg'
p981
sg18
g36
sg19
I-101
sg20
(I0
I5
I2
tp982
sbsS'engineering mug'
p983
(iGameClasses
Equipment
p984
(dp985
g12
S'Do people even have these anymore?'
p986
sg3
(I1
I0
I2
tp987
sg5
S'Engineering Mug'
p988
sg16
S'EngMug.jpg'
p989
sg18
g37
sg19
I-101
sg20
g67
sbsS'blazer'
p990
(iGameClasses
Equipment
p991
(dp992
g12
S'Styyyyyylishhhhhh'
p993
sg3
(I0
I4
I1
tp994
sg5
S'Blazer'
p995
sg16
S'Blazer.jpg'
p996
sg18
g9
sg19
I-101
sg20
(I5
I6
I1
tp997
sbsS'high vis vest'
p998
(iGameClasses
Equipment
p999
(dp1000
g12
S'Safety first, folks.'
p1001
sg3
(I0
I5
I3
tp1002
sg5
S'High Vis Vest'
p1003
sg16
S'HighVis.jpg'
p1004
sg18
g9
sg19
I-101
sg20
(I2
I6
I1
tp1005
sbsS'big hits shirt'
p1006
(iGameClasses
Equipment
p1007
(dp1008
g12
S'The Shirt of the Hero of Kyvach!'
p1009
sg3
(I10
I5
I5
tp1010
sg5
S'Big Hits Shirt'
p1011
sg16
S'BigHits.jpg'
p1012
sg18
g9
sg19
I-101
sg20
(I6
I1
I1
tp1013
sbsS'jar of mayo'
p1014
(iGameClasses
Equipment
p1015
(dp1016
g12
S'Is mayonaise an instrument?'
p1017
sg3
(I3
I0
I5
tp1018
sg5
S'Jar of Mayo'
p1019
sg16
S'Mayo.jpg'
p1020
sg18
g36
sg19
I1
sg20
g152
sbsS'holy bible'
p1021
(iGameClasses
Equipment
p1022
(dp1023
g12
S'King James version...'
p1024
sg3
(I3
I0
I3
tp1025
sg5
S'Holy Bible'
p1026
sg16
S'Bible.jpg'
p1027
sg18
g36
sg19
I-101
sg20
(I2
I0
I1
tp1028
sbsS'griffiths electrodynamics'
p1029
(iGameClasses
Equipment
p1030
(dp1031
g12
S'The holy scriptures which govern the fabric of our being'
p1032
sg3
(I0
I10
I5
tp1033
sg5
S'Griffiths Electrodynamics'
p1034
sg16
S'Griffiths.jpg'
p1035
sg18
g36
sg19
I-101
sg20
g828
sbsS'skateboard'
p1036
(iGameClasses
Equipment
p1037
(dp1038
g12
S'Cowabunga, dude.'
p1039
sg3
(I9
I0
I10
tp1040
sg5
S'Skateboard'
p1041
sg16
S'Skateboard.jpg'
p1042
sg18
g37
sg19
I-101
sg20
(I0
I0
I0
tp1043
sbsS'diary of the fallen'
p1044
(iGameClasses
Equipment
p1045
(dp1046
g12
S'The personal notes of an ancient Hero.'
p1047
sg3
(I25
I20
I30
tp1048
sg5
S'Diary of the Fallen'
p1049
sg16
S'Diary.jpg'
p1050
sg18
g36
sg19
I-101
sg20
g669
sbsS'green lantern shirt'
p1051
(iGameClasses
Equipment
p1052
(dp1053
g12
S'Darkest day... Darkest night...'
p1054
sg3
(I15
I15
I10
tp1055
sg5
S'Green Lantern Shirt'
p1056
sg16
S'GLShirt.jpg'
p1057
sg18
g9
sg19
I-101
sg20
g67
sbsS'dirty needle'
p1058
(iGameClasses
Equipment
p1059
(dp1060
g12
S"This isn't clean. Someone find me a SharpXchange!"
p1061
sg3
(I7
I0
I5
tp1062
sg5
S'Dirty Needle'
p1063
sg16
S'Needle.jpg'
p1064
sg18
g37
sg19
I-101
sg20
g946
sbsS'willy dog'
p1065
(iGameClasses
Equipment
p1066
(dp1067
g12
S'Definitely not vegan'
p1068
sg3
(I1
I0
I2
tp1069
sg5
S'Willy Dog'
p1070
sg16
S'Hotdog.jpg'
p1071
sg18
g37
sg19
I5
sg20
g168
sbsS'crucifix'
p1072
(iGameClasses
Equipment
p1073
(dp1074
g12
S'The Power of Chirst compels you!'
p1075
sg3
(I10
I0
I10
tp1076
sg5
S'Crucifix'
p1077
sg16
S'Crucifix.jpg'
p1078
sg18
g37
sg19
I-101
sg20
g67
sbsS'wrench'
p1079
(iGameClasses
Equipment
p1080
(dp1081
g12
S"It's a wrench. 22mm."
p1082
sg3
(I9
I0
I2
tp1083
sg5
S'Wrench'
p1084
sg16
S'Wrench.jpg'
p1085
sg18
g37
sg19
I-101
sg20
(I1
I3
I1
tp1086
sbsS'wool sweater'
p1087
(iGameClasses
Equipment
p1088
(dp1089
g12
S'Just like grandma makes.'
p1090
sg3
(I1
I4
I6
tp1091
sg5
S'Wool Sweater'
p1092
sg16
S'WoolSweater.jpg'
p1093
sg18
g9
sg19
I-101
sg20
g931
sbsS'solar cell'
p1094
(iGameClasses
Equipment
p1095
(dp1096
g12
S"Harness the power of the Sun!\nI really hope I don't drop this..."
p1097
sg3
(I1
I1
I1
tp1098
sg5
S'Solar Cell'
p1099
sg16
S'SolarCell.jpg'
p1100
sg18
g36
sg19
I-101
sg20
g348
sbsa((lp1101
(lp1102
(iGameClasses
Map
p1103
(dp1104
g12
S'PARKING GARAGE:\nYou can only go back up to the Hospital.'
p1105
sS'ENEMY'
p1106
(lp1107
(iGameClasses
Enemy
p1108
(dp1109
g12
S"'Check out this tre flip, pretty tight eh?'"
p1110
sg3
(I15
I15
I40
tp1111
sg5
S'Erik the Sk8r'
p1112
sS'drop'
p1113
S"erik's frosted tips"
p1114
sg49
I01
sS'item'
p1115
NsS'quest'
p1116
I00
sg19
I20
sg20
g1043
sS'need'
p1117
Nsg50
I00
sS'Sinfo'
p1118
S''
p1119
sS'Dinfo'
p1120
S"Man, that's dumb!"
p1121
sbasg5
S'Parking Garage'
p1122
sS'items'
p1123
(lp1124
g1037
asS'interact'
p1125
(lp1126
sS'walls'
p1127
(S'f'
p1128
S'b'
p1129
S'l'
p1130
S'r'
p1131
S'd'
p1132
tp1133
sS'coords'
p1134
g1043
sS'lore'
p1135
S'The smooth floor down here makes an excellent skate surface.\nRad.\nIf only you learned how to kickflip.'
p1136
sS'travelled'
p1137
I1
sba(iGameClasses
Map
p1138
(dp1139
g12
S'HOSPITAL EAST WING:\nIn front of you is the West Wing. MDCL is to your right.\nThe Parking Garage is below you.'
p1140
sg1106
(lp1141
sg5
S'East Hospital'
p1142
sg1123
(lp1143
g468
ag364
ag498
asg1125
(lp1144
sg1127
(g1130
g1129
tp1145
sg1134
g370
sg1135
S'You smile as you overhear a conversation between a doctor and a family.\nTurns out their child is going to make a full recovery.\nThanks science.'
p1146
sg1137
I1
sbaNaNaa(lp1147
Na(iGameClasses
Map
p1148
(dp1149
g12
S'HOSPITAL WEST WING:\nIn front of your is T-13. To your right is the Health Sci Library.\nThe East Wing of the Hospital is behind you.\nYou can go upstairs.'
p1150
sg1106
(lp1151
sg5
S'West Hospital'
p1152
sg1123
(lp1153
g107
a(iGameClasses
Interact
p1154
(dp1155
g12
S'Would you like to exchange a needle?'
p1156
sg5
S'SharpXChange'
p1157
sg1113
S'clean needle'
p1158
sg1116
I00
sg20
g113
sg1117
S'dirty needle'
p1159
sg1118
S'Needle Accepted!'
p1160
sbasg1125
(lp1161
sg1127
g1130
sg1134
g113
sg1135
S"Doctors and Nurses rush around you.\nYou remember why you didn't want to become a doctor as you\nnearly faint looking at a patient's paper cut in the waiting room.\nAfter a drink from the water fountain you plan what to do."
p1162
sg1137
I0
sba(iGameClasses
Map
p1163
(dp1164
g12
S'2ND FLOOR W WING:\nYou can only go back down the stairs.'
p1165
sg1106
(lp1166
(iGameClasses
Enemy
p1167
(dp1168
g12
S"'Are you interested in a research position?'"
p1169
sg3
(I100
I100
I100
tp1170
sg5
S'Dr. Soleymani'
p1171
sg1113
S"einstein's brain"
p1172
sg49
I00
sg1115
Nsg1116
I00
sg19
I0
sg20
(I0
I1
I2
tp1173
sg1117
Nsg50
I00
sg1118
g1119
sg1120
S'NOOO! The Dark Lord will never forgive me!'
p1174
sbasg5
S'2nd Floor W Wing'
p1175
sg1123
(lp1176
sg1125
(lp1177
sg1127
(g1128
g1129
g1130
g1131
S'u'
p1178
tp1179
sg1134
g1173
sg1135
S"The endless number of rooms are mesmerizing.\nYou don't even know which way to go.\nAfter being lost for 2 hours you circle back to where you entered."
p1180
sg1137
I0
sbaNaa(lp1181
(iGameClasses
Map
p1182
(dp1183
g12
S'SECRET ROOM!:\nGo up to climb out.'
p1184
sg1106
(lp1185
sg5
S'Secret Trapdoor!'
p1186
sg1123
(lp1187
g663
ag1045
asg1125
(lp1188
sg1127
(g1128
g1129
g1130
g1131
g1132
tp1189
sg1134
g669
sg1135
S'You uncover a trapdoor after pulling up a loose floor tile.\nUpon descending you see stacks of failed midterms and assorted books all around you.\nA suit of armor and a chainmail flag with a skull on it are barely visible.\nWho made this place anyway?'
p1190
sg1137
I1
sba(iGameClasses
Map
p1191
(dp1192
g12
S'T-13:\nETB is in front of you. The McMaster Map is to your right.\nThe West Wing of the Hospital is behind you.'
p1193
sg1106
(lp1194
sg5
S'T-13'
p1195
sg1123
(lp1196
g1015
ag146
asg1125
(lp1197
sg1127
(lp1198
g1130
ag1132
asg1134
g152
sg1135
S"How many bad invigilators does it take to screw in a light bulb?\nI'm not sure but they took my damn Casio FX-911+C..."
p1199
sg1137
I0
sbaNaNaa(lp1200
(iGameClasses
Map
p1201
(dp1202
g12
S'ETB BASEMENT:\nYou can only go back up to the main floor.'
p1203
sg1106
(lp1204
sg5
S'ETB Basement'
p1205
sg1123
(lp1206
g917
asg1125
(lp1207
sg1127
(g1128
g1129
g1130
g1131
g1132
tp1208
sg1134
g923
sg1135
S'After getting lost in a maze of corridors and locked rooms you stumble\nacross a door that is slightly ajar.\nYou open the door to reveal a rather small dark room.\nYou flick on the light switch.'
p1209
sg1137
I1
sba(iGameClasses
Map
p1210
(dp1211
g12
S'ETB:\nTo your right is the Hatch Building. An alleyway is in front of you.\nT-13 is behind you. You can also go upstairs.'
p1212
sg1106
(lp1213
(iGameClasses
Enemy
p1214
(dp1215
g12
S"'Hey, I saw your picture on Instagram!'\n'They let you get away with doing that to the Willy McMaster statue?'"
p1216
sg3
(I10
I5
I10
tp1217
sg5
S'Mitch the TA'
p1218
sg1113
S'phone'
p1219
sg49
I01
sg1115
Nsg1116
I00
sg19
I25
sg20
g685
sg1117
Nsg50
I00
sg1118
g1119
sg1120
S"There's my phone."
p1220
sbasg5
S'ETB'
p1221
sg1123
(lp1222
g679
asg1125
(lp1223
sg1127
g1130
sg1134
g685
sg1135
S'The memories of actually doing something in first year flood your mind.\nGear trains. Python. 3D printing.\nEngineering had such a different meaning in your first year...\nYou plan your next move.'
p1224
sg1137
I0
sba(iGameClasses
Map
p1225
(dp1226
g12
S'2ND FLOOR ETB:\nYou can only go back down the stairs.'
p1227
sg1106
(lp1228
sg5
S'2nd Floor ETB'
p1229
sg1123
(lp1230
sg1125
(lp1231
sg1127
(g1128
g1129
g1130
g1131
g1178
tp1232
sg1134
(I0
I3
I2
tp1233
sg1135
S'You realize you really have never come up here.\nYou see 4th year Eng Phys students hurry out of a long-winded lecture.\nAfter picking a booger.\nYou plan your next move.'
p1234
sg1137
I0
sbaNaa(lp1235
Na(iGameClasses
Map
p1236
(dp1237
g12
S'ALLEY:\nITB is in front of you. ETB is behind you.\nYou can enter Hatch to your right.'
p1238
sg1106
(lp1239
sg5
S'Alley'
p1240
sg1123
(lp1241
g1059
ag940
asg1125
(lp1242
sg1127
g1130
sg1134
g946
sg1135
S'As you head down the narrow path between ITB and ETB you hear car horns blaring down Main Street.\nYou gather up some trash and put it in a garbage can like a good McMasterian.\nThen plan your next move.'
p1243
sg1137
I0
sbaNaNaa(lp1244
(iGameClasses
Map
p1245
(dp1246
g12
S'ITB BASEMENT:\nYou can only go back up to the main floor.'
p1247
sg1106
(lp1248
(iGameClasses
Enemy
p1249
(dp1250
g12
S"'Huge talking to people play.'"
p1251
sg3
(I20
I15
I20
tp1252
sg5
S'Eric the Baller'
p1253
sg1113
S'cold steel katana'
p1254
sg49
I01
sg1115
Nsg1116
I00
sg19
I50
sg20
(I0
I5
I0
tp1255
sg1117
Nsg50
I00
sg1118
g1119
sg1120
S'This is sub-optimal.'
p1256
sbasg5
S'ITB Basement'
p1257
sg1123
(lp1258
sg1125
(lp1259
sg1127
(g1128
g1129
g1130
g1131
g1132
tp1260
sg1134
g1255
sg1135
S"As if the upstairs floor plan wasn't bad enough...\nAfter another 3 hours wandering around you are back where you started\nand don't feel like you learned anything..."
p1261
sg1137
I1
sba(iGameClasses
Map
p1262
(dp1263
g12
S'ITB:\nJHE-Annex is to your right. Lot I is in front of you.\nAn alley is behind you. You can go up OR down the stairs.'
p1264
sg1106
(lp1265
(iGameClasses
Enemy
p1266
(dp1267
g12
S"'Hey brother, I really could use some Febreze.'"
p1268
sg3
(I20
I20
I20
tp1269
sg5
S'Paul the Janitor'
p1270
sg1113
S'bleach squirt bottle'
p1271
sg49
I01
sg1115
Nsg1116
I00
sg19
I20
sg20
g820
sg1117
S'febreze'
p1272
sg50
I00
sg1118
S'Rock on brother! Thanks so much!'
p1273
sg1120
S"NOOO, Now I can't go see Black Sabbath!"
p1274
sbasg5
S'ITB'
p1275
sg1123
(lp1276
g814
asg1125
(lp1277
sg1127
g1130
sg1134
g820
sg1135
S'McMaster, back at it again with the horrible floor plan.\nAfter getting lost for 5 hours you finally reach the lobby\nand decide what to do.'
p1278
sg1137
I0
sba(iGameClasses
Map
p1279
(dp1280
g12
S'2ND FLOOR ITB:\nYou can only go back down the stairs.'
p1281
sg1106
(lp1282
(iGameClasses
Enemy
p1283
(dp1284
g12
S"'My grand invention is almost complete...'"
p1285
sg3
(I100
I100
I100
tp1286
sg5
S'Dr. Nagasaki'
p1287
sg1113
S'flux capacitor'
p1288
sg49
I01
sg1115
Nsg1116
I00
sg19
I75
sg20
g982
sg1117
S'ambifacient lunar waneshaft'
p1289
sg50
I00
sg1118
S"'Yes!'\n'I have been looking for one exactly like that!'\n'Quicky, go to the basement of the Tandem Accelerator!'\n'The High Council is counting on you.'"
p1290
sg1120
S'NOOOO! NOW I WILL NEVER PLEASE THE DARK LORD!'
p1291
sbasg5
S'2nd Floor ITB'
p1292
sg1123
(lp1293
g976
asg1125
(lp1294
sg1127
(g1128
g1129
g1130
g1131
g1178
tp1295
sg1134
g982
sg1135
S"Walking around up here you don't find much other than lab benches with strange instruments.\nThis place gives you the impression that there must be some high level engineering physics going on..."
p1296
sg1137
I1
sbaNaa(lp1297
Na(iGameClasses
Map
p1298
(dp1299
g12
S'LOT I:\nABB is to your right. Cootes Drive is in front of you.\nITB is to your rear.'
p1300
sg1106
(lp1301
sg5
S'Lot I'
p1302
sg1123
(lp1303
g432
ag911
a(iGameClasses
Interact
p1304
(dp1305
g12
S"A red Dodge Avenger...\nPeering into the window you can't really see much."
p1306
sg5
S'Red Car'
p1307
sg1113
Nsg1116
I00
sg20
g438
sg1117
Nsg1118
S'N/A'
p1308
sba(iGameClasses
Interact
p1309
(dp1310
g12
S"A blue Ford Mustang...\nPeering into the window you can't really see much."
p1311
sg5
S'Blue Car'
p1312
sg1113
S'potato'
p1313
sg1116
I00
sg20
g438
sg1117
S'tire iron'
p1314
sg1118
S'You smash open the window with the tire iron, breaking it in the process.\nYou unlock and open the door...\nTo reveal a potato.'
p1315
sba(iGameClasses
Interact
p1316
(dp1317
g12
S"An old Datsun...\nPeering into the window you can't really see much."
p1318
sg5
S'Old Car'
p1319
sg1113
Nsg1116
I00
sg20
g438
sg1117
Nsg1118
g1308
sba(iGameClasses
Interact
p1320
(dp1321
g12
S"A new Volkswagen...\nPeering into the window you can't really see much."
p1322
sg5
S'New Car'
p1323
sg1113
S'bowling ball'
p1324
sg1116
I00
sg20
g438
sg1117
S'car keys'
p1325
sg1118
S'You open the car and rummage around.\nUnderneath one of the seats you find a bowling ball!'
p1326
sbasg1125
(lp1327
sg1127
g1130
sg1134
g438
sg1135
S"Nope, your car isn't here.\nMaybe you parked in Lot M? Maybe not.\nAfter scoffing at all of the prof Mercedes that are way too nice...\nYou think of what to do."
p1328
sg1137
I0
sbaNaNaa(lp1329
Na(iGameClasses
Map
p1330
(dp1331
g12
S'COOTES DRIVE:\nThode is to your right. Lot I is behind you.'
p1332
sg1106
(lp1333
sg5
S'Cootes Dr.'
p1334
sg1123
(lp1335
g755
asg1125
(lp1336
sg1127
(g1128
g1130
tp1337
sg1134
g761
sg1135
S'You notice a series of pickup trucks for what must be a landscaping or construction company.\nThere is construction gear spread all over the place.\nThe sound of sirens grows louder as an ambulance suddenly rushes by.\nYou collect yourself and consider what to do next.'
p1338
sg1137
I1
sbaNaNaa(lp1339
NaNaNaNaa(lp1340
(lp1341
Na(iGameClasses
Map
p1342
(dp1343
g12
S'MDCL:\nThe East Wing of the Hospital is to your left. Health Sci library is forward.'
p1344
sg1106
(lp1345
sg5
S'MDCL'
p1346
sg1123
(lp1347
g201
ag193
asg1125
(lp1348
sg1127
(g1129
g1131
tp1349
sg1134
g199
sg1135
S'After a solid 5 minutes of meditation in the reflection area.\nYou make your next decision feeling refreshed.'
p1350
sg1137
I1
sba(iGameClasses
Map
p1351
(dp1352
g12
S'CLIMBING MDCL:\nYou can continue climbing or go back down...'
p1353
sg1106
(lp1354
sg5
S'Climbing MDCL'
p1355
sg1123
(lp1356
sg1125
(lp1357
sg1127
(g1128
g1129
g1130
g1131
tp1358
sg1134
(I1
I0
I2
tp1359
sg1135
S'You struggle and find yourself on the outer wall of MDCL.'
p1360
sg1137
I1
sba(iGameClasses
Map
p1361
(dp1362
g12
S'MDCL Roof:\nYou can only go back down.'
p1363
sg1106
(lp1364
sg5
S'Roof of MDCL'
p1365
sg1123
(lp1366
(iGameClasses
Interact
p1367
(dp1368
g12
S"It's a mouse scurrying around...\nDid it just stare at you?"
p1369
sg5
S'Mouse'
p1370
sg1113
S'gilded blunderbuss'
p1371
sg1116
I00
sg20
(I1
I0
I3
tp1372
sg1117
S'cheese'
p1373
sg1118
S"The mouse rushes over and takes the cheese.\nIt runs into a small opening it has made in the roof of the building.\nIt returns with something in it's mouth!"
p1374
sbasg1125
(lp1375
sg1127
(g1128
g1129
g1130
g1131
g1178
tp1376
sg1134
g1372
sg1135
S'With all of your might you pull yourself up and onto the roof.\nYou can see the majority of campus from up here!'
p1377
sg1137
I1
sbaa(lp1378
Na(iGameClasses
Map
p1379
(dp1380
g12
S'HEALTH SCIENCES LIBRARY:\nIn front of you is the McMaster Map. To your right is the bus stop.\nMDCL is behind you. The Hospital West Wing is to your left.'
p1381
sg1106
(lp1382
sg5
S'Health Sciences Library'
p1383
sg1123
(lp1384
sg1125
(lp1385
sg1127
(tsg1134
(I1
I1
I1
tp1386
sg1135
S"You are constantly asked to be quiet even though you have yet to make a sound.\nAfter scanning the tables and see no one you recognize you take a seat\nin an armchair and stare out towards the centre of campus.\nYou daydream of a life where these study rooms weren't constantly full."
p1387
sg1137
I1
sbaNaNaa(lp1388
Na(iGameClasses
Map
p1389
(dp1390
g12
S'MCMASTER MAP:\nIn front of you lies the entrance to Hatch. To your right, JHE Field.\nTo your rear lies the Health Sci Library. T-13 is to your left.'
p1391
sg1106
(lp1392
sg5
S'Map of McMaster'
p1393
sg1123
(lp1394
(iGameClasses
Interact
p1395
(dp1396
g12
S"It's the map of McMaster.'\n ________________________________________________\n|Map of McMaster                                 |\n|                                       BATES    |\n|                                                |\n| ETB        JHE         BSB                     |\n|                                                |\n|                                      STATUE    |\n|                                                |\n| HOSPITAL                                       |\n|          MDCL         CHAPEL              MUSC |\n|________________________________________________|"
p1397
sg5
S'McMaster Map'
p1398
sg1113
S"minnick's glasses"
p1399
sg1116
I00
sg20
(I1
I2
I1
tp1400
sg1117
S"minnick's glasses"
p1401
sg1118
S"Through Minnick's glasses the true map is revealled!\nYou read:\n'Harness the sun.'\n ________________________________________________\n|Map of McMaster                                 |\n|                                       BATES    |\n|                                                |\n| ETB        JHE         BSB                     |\n|                                                |\n|                        \\/            STATUE    |\n|                        /\\                      |\n| HOSPITAL                                       |\n|          MDCL         CHAPEL              MUSC |\n|________________________________________________|\nDr. Minnick's glasses glow hot as you quickly swat them off of your face."
p1402
sbasg1125
(lp1403
sg1127
(tsg1134
g1400
sg1135
S'Has anyone even used this thing?\nA lost freshman asks you for directions even though the map is clearly next to you.\nAfter sending them in the wrong direction you plan your next move.'
p1404
sg1137
I1
sbaNaNaa(lp1405
Na(iGameClasses
Map
p1406
(dp1407
g12
S'OUTSIDE HATCH:\nETB to your left. Enter Hatch by going forward.\nThe McMaster Map to your rear. JHE Entrance is to your right.'
p1408
sg1106
(lp1409
sg5
S'In Front of Hatch'
p1410
sg1123
(lp1411
g1080
asg1125
(lp1412
sg1127
(tsg1134
g1086
sg1135
S'You stare at the newly completed building.\nThe sun still shines and you are irritated by the constant drone of the Hamiltonian sirens\nwhich you have yet to grow accustomed to...'
p1413
sg1137
I0
sbaNaNaa(lp1414
Na(iGameClasses
Map
p1415
(dp1416
g12
S'INSIDE HATCH:\nIn front of you lies JHE-Annex. To your right is the JHE lobby.\nTo your rear you can exit.\nTo your left is an alley.'
p1417
sg1106
(lp1418
(iGameClasses
Enemy
p1419
(dp1420
g12
S"'Yo check out my meme page, you ever heard coco jay?'"
p1421
sg3
(I15
I10
I20
tp1422
sg5
S'Mario the Mixologist'
p1423
sg1113
S'stylish watch'
p1424
sg49
I01
sg1115
Nsg1116
I00
sg19
I50
sg20
g317
sg1117
Nsg50
I00
sg1118
g1119
sg1120
S'si ya saben como consigo, por que me invitan?'
p1425
sbasg5
S'Inside Hatch'
p1426
sg1123
(lp1427
g311
asg1125
(lp1428
sg1127
(tsg1134
g317
sg1135
S"That 'fresh building' smell still lingers.\nYou see members of the various clubs rushing from room to room including a man carrying a rocket.\nThe Kipling clock ticks away... only 364 more...\nWho is this Gerald Hatch anyway?"
p1429
sg1137
I0
sba(iGameClasses
Map
p1430
(dp1431
g12
S'2ND FLOOR Hatch:\nIn front of you lies the Eng Phys Office. To your right is 2nd Floor JHE.\nHatch is downstairs.'
p1432
sg1106
(lp1433
sg5
S'2nd Floor Hatch'
p1434
sg1123
(lp1435
sg1125
(lp1436
sg1127
(g1129
g1130
g1178
tp1437
sg1134
(I1
I4
I2
tp1438
sg1135
S"You see various meeting rooms with 1st years occupying them.\nThe MES office is full but nothing seems to be getting done.\nThere's therapy dogs scattered everywhere for Paws and Play.\nYou can't get a session with a real therapist but at least there is this"
p1439
sg1137
I1
sbaNaa(lp1440
Na(iGameClasses
Map
p1441
(dp1442
g12
S'JHE ANNEX:\nHatch is to your rear. ABB in front of you.\nITB is to your left. NRB to your right.\nThe Eng Phys office is up the stairs.'
p1443
sg1106
(lp1444
sg5
S'JHE Annex'
p1445
sg1123
(lp1446
g903
asg1125
(lp1447
sg1127
(tsg1134
g909
sg1135
S'They made a big engineering building, got money, then added more.\nYou wonder why Eng Phys classes get pushed into the rooms in this side of JHE...\nHmm...'
p1448
sg1137
I0
sba(iGameClasses
Map
p1449
(dp1450
g12
S'ENG PHYS OFFICE:\n2nd Floor Abb is infront of you. 2nd Floor Hatch is behind you. You can go down the stairs to JHE Annex.'
p1451
sg1106
(lp1452
(iGameClasses
Enemy
p1453
(dp1454
g12
S"'We have been looking for you.'\n'The Department is not pleased...'\n'But first, the McMaster Police have confiscated my Solar Cell, go get it.'\n'Then, maybe you are truly worthy of continuing this quest.'"
p1455
sg3
(I300
I150
I100
tp1456
sg5
S'Dr. Kleimann'
p1457
sg1113
Nsg49
I01
sg1115
Nsg1116
I01
sg19
I300
sg20
g722
sg1117
S'solar cell'
p1458
sg50
I01
sg1118
S"You sit down and listen to what Dr. Kleimann has to say...\n'You have awoken an ancient force that hasn't stirred in many years'.\n'You didn't think we would find out what you did but we know all.'\n'It had been prophecized that an adventurer would dictate the future of the faculty...'\n'Only The Quantum Order can assist you now, seek out Dr. Minnick. I wish you luck...'"
p1459
sg1120
S'You have betrayed The Order!'
p1460
sbasg5
S'Eng Phys Office'
p1461
sg1123
(lp1462
g716
ag784
asg1125
(lp1463
sg1127
(g1130
g1131
g1178
tp1464
sg1134
g722
sg1135
S'The portrait of Dr. Novog makes you jealous as you realize you could\nnever pull off a hairstyle like that.\nYou scan the display case of past Eng Phys projects.\nThey display these as trophies...\nTrophies which only tell a story of endless grind you think to yourself...'
p1465
sg1137
I0
sbaNaa(lp1466
(iGameClasses
Map
p1467
(dp1468
g12
S'ABB BASEMENT:\nYou can only go back up to the main floor.'
p1469
sg1106
(lp1470
sg5
S'ABB Basement'
p1471
sg1123
(lp1472
g527
a(iGameClasses
Interact
p1473
(dp1474
g12
S'Seems like a regular fridge to me.'
p1475
sg5
S'Fridge'
p1476
sg1113
S'pedrotti cubed'
p1477
sg1116
I01
sg20
g533
sg1117
S'relativistic key'
p1478
sg1118
S"You inspect the inside of the fridge to reveal a small keyhole.\nUpon inserting and turning the key you hear a robotic voice bellow.\n'WORMHOLE ACTIVATED'\nThe compartment bursts open and out flies a book!"
p1479
sba(iGameClasses
Interact
p1480
(dp1481
g12
S"Dr. Haugen's personal optical bench..."
p1482
sg5
S'Optical Bench'
p1483
sg1113
S'relativistic key'
p1484
sg1116
I01
sg20
g533
sg1117
S'femtosecond laser'
p1485
sg1118
S"You place Dr. Haugen's femtosecond laser on the bench and aim it at the fridge.\nTurning the laser on (remembering your laser safety glasses, of course)\nfires the high-intensity beam at the fridge.\nThe room begins to shake and smoke begins to billow out of the cracks of the fridge.\nThe door swings open and a glowing apparition of Albert Einstein emerges!\n'You have come a long way, but your quest is not yet over.'\n'For there still remains a great evil on this campus'\n'Dr. Haugen was entrusted with protecting the contents of my fridge.'\n'I have known of your destiny since your first year here at McMaster.'\n'You will be the one who determines the fate of the faculty.'\n'It is, therefore, my responsibility to prepare you for what lies ahead.'\n'This key opens a compartment in my fridge which holds one of three Quantum Relics.'\n'These items give the holder the power to shape the fate of the entire university.'\n'I cannot tell you much more. Perhaps I have said too much.'\n'Take this. Good Luck.'"
p1486
sbag567
ag867
asg1125
(lp1487
sg1127
(g1128
g1129
g1130
g1131
g1132
tp1488
sg1134
g533
sg1135
S'The Laser lab is pretty darn cool.\nWalking around here you notice a number of PhD students looking rather shifty.\nHmmm...\nYou wonder why that is.'
p1489
sg1137
I0
sba(iGameClasses
Map
p1490
(dp1491
g12
S'ABB:\nThode is in front of you. JHE Annex is behind you.\nThe Nuclear Reactor is to your right. LOT I is to your left.\nYou can go up or down the stairs.'
p1492
sg1106
(lp1493
sg5
S'ABB'
p1494
sg1123
(lp1495
(iGameClasses
Interact
p1496
(dp1497
g12
S"It's a display case full of all sorts of old-time Engineering Physics wizardry."
p1498
sg5
S'Display Case'
p1499
sg1113
S"faraday's cage"
p1500
sg1116
I01
sg20
(I1
I6
I1
tp1501
sg1117
S'rusty key'
p1502
sg1118
S'The rusty key fits perfectly!\nAs you turn the key glowing square forms on the back\nof the display case and opens revealing an old relic...'
p1503
sbasg1125
(lp1504
sg1127
(tsg1134
g1501
sg1135
S'You stare at the electron microscope structure and wonder if it could even see your GPA...\nA tear rolls down your cheek. You collect yourself and plan what to do next.'
p1505
sg1137
I0
sba(iGameClasses
Map
p1506
(dp1507
g12
S'2ND FLOOR ABB:\nThe Eng Phys Office is behind you. You can down the stairs to ABB.'
p1508
sg1106
(lp1509
(iGameClasses
Enemy
p1510
(dp1511
g12
S"'Bring me a Coffee please, I am rather tired.'"
p1512
sg3
(I100
I100
I200
tp1513
sg5
S'Dr. LaPierre'
p1514
sg1113
Nsg49
I01
sg1115
Nsg1116
I01
sg19
I300
sg20
g738
sg1117
S'coffee'
p1515
sg50
I01
sg1118
S'Here. I nice pen for your troubles.\nGo find Dr. Knights, he has more for you to do.'
p1516
sg1120
S"I can't believe you've done this."
p1517
sbasg5
S'2nd Floor ABB'
p1518
sg1123
(lp1519
g732
asg1125
(lp1520
sg1127
(g1128
g1130
g1131
g1178
tp1521
sg1134
g738
sg1135
S'You were told JHE would be your home.\nNope.\nInstead you recall countless hours lectures on the 2nd floor\nas you drifted in and out of daydreams staring out the windows on a spring afternoon...'
p1522
sg1137
I0
sbaNaa(lp1523
(iGameClasses
Map
p1524
(dp1525
g12
S'THODE BASEMENT:\nGo up to head outside.'
p1526
sg1106
(lp1527
(iGameClasses
Enemy
p1528
(dp1529
g12
S"I need to complete Kenrick's design... use my glasses to find what we need!"
p1530
sg3
(I400
I400
I400
tp1531
sg5
S'Dr. Minnick'
p1532
sg1113
Nsg49
I01
sg1115
Nsg1116
I01
sg19
I200
sg20
(I1
I7
I0
tp1533
sg1117
S"faraday's cage"
p1534
sg50
I01
sg1118
S"'Great! Now we can open the window to the electronics world!'\nYou step back and watch as Dr. Minnick adds Faraday's Cage to the oscilloscope.\n'I do not know what this oracle will have to say.'\n'It is just my responsibiliy to give you access to their knowledge.'\nYour vision begins to go blurry as you hear a low whirr grow louder and Kenrick's oscilloscope glows with\nconsiderable intensity!\nYou are shocked as you open your eyes. It seems as if you were dropped into the set of 'Tron'.\nA figure approaches as your vision slowly returns.\nThe figure is revealled to be James Clerk Maxwell!\n'We have waited many years for your coming.'\n'You will be the one to determine the fate of this faculty.'\n'My quantum relic along with the two others will give you the power to have your ring returned to you.'\n'Once you have all three you will be able to access your ring from the statue of McMaster.'\n'Good luck.'"
p1535
sg1120
S"'I'm jealous of stupid people, they have more opportunities to learn!'"
p1536
sbasg5
S'Thode Basement'
p1537
sg1123
(lp1538
(iGameClasses
Interact
p1539
(dp1540
g12
S'Looks like an old dusty workbench.'
p1541
sg5
S'Workbench'
p1542
sg1113
g1119
sg1116
I00
sg20
g1533
sg1117
Nsg1118
g1119
sbasg1125
(lp1543
sg1127
(g1128
g1129
g1130
g1131
g1132
tp1544
sg1134
g1533
sg1135
S"You feel the laser glares burning into the back of your neck as\nyou hastily walk amongst the rows of desks.\nIs it possible to book a study room down here without finding a phallic object drawn on the whiteboard?\nYou'll never know."
p1545
sg1137
I0
sba(iGameClasses
Map
p1546
(dp1547
g12
S'THODE:\nABB is at your rear. The campus exit is to your right.\nCootes Drive is to your left. You can go up or down the stairs.'
p1548
sg1106
(lp1549
sg5
S'Thode'
p1550
sg1123
(lp1551
g319
ag853
asg1125
(lp1552
sg1127
g1128
sg1134
g325
sg1135
S'Oh the Reactor Cafe.\nYou think of the good old days when you could actually see the reactor from the Cafe...\nAfter overhearing someone ask whether keV is bigger than MeV you first contemplate your existence,\nthen contemplate your next move...'
p1553
sg1137
I0
sba(iGameClasses
Map
p1554
(dp1555
g12
S'2ND FLOOR THODE:\nYou can go up or down the stairs.'
p1556
sg1106
(lp1557
sg5
S'2nd Floor Thode'
p1558
sg1123
(lp1559
g740
asg1125
(lp1560
sg1127
(g1128
g1129
g1130
g1131
tp1561
sg1134
g746
sg1135
S"As you enter Club Thode the smell of feet enters your nostrils.\nWho goes barefoot in a library? C'mon.\nThe memory of countless hours spent slamming together a report made of nonsense, caffeine,\nand hope makes you light headed...\nComing to your senses... You plan your next move."
p1562
sg1137
I1
sba(iGameClasses
Map
p1563
(dp1564
g12
S'3RD FLOOR THODE:\nYou can only go back down the stairs.'
p1565
sg1106
(lp1566
(iGameClasses
Enemy
p1567
(dp1568
g12
S'I would really like a cricket to continue my research...'
p1569
sg3
(I10
I10
I10
tp1570
sg5
S'Connor the Biologist'
p1571
sg1113
Nsg49
I01
sg1115
Nsg1116
I00
sg19
I15
sg20
(I1
I7
I3
tp1572
sg1117
S'cricket'
p1573
sg50
I00
sg1118
S'Thanks!'
p1574
sg1120
S"'I can't believe you've done this."
p1575
sbasg5
S'3rd Floor Thode'
p1576
sg1123
(lp1577
sg1125
(lp1578
sg1127
(g1128
g1129
g1130
g1131
g1178
tp1579
sg1134
g1572
sg1135
S"After hauling up another set of stairs you realize you probably shouldn't\nhave given up on your Pulse membership...\nThe sounds of sobbing can be heard from all around you.\nAfter you dispense all of your tissues to passing I-Sci's you plan your next move."
p1580
sg1137
I1
sbaa(lp1581
NaNaNaNaa(lp1582
(lp1583
(iGameClasses
Map
p1584
(dp1585
g12
S'CHAPEL UNDERCROFT:\nYou can only go back up to the main floor.'
p1586
sg1106
(lp1587
(iGameClasses
Enemy
p1588
(dp1589
g12
S"'Mussst eeaaat funnnndingg... Er, I mean braaains.'"
p1590
sg3
(I20
I10
I1
tp1591
sg5
S'Undead Grad Student'
p1592
sg1113
S'horrible assignment'
p1593
sg49
I01
sg1115
Nsg1116
I00
sg19
I20
sg20
g565
sg1117
Nsg50
I00
sg1118
g1119
sg1120
S'My 12 year post-grad was for nothiiiiiingggggg!'
p1594
sbasg5
S'Chapel Undercroft'
p1595
sg1123
(lp1596
g559
asg1125
(lp1597
sg1127
(g1128
g1129
g1130
g1131
g1132
tp1598
sg1134
g565
sg1135
S'You struggle down the dimly lit stairway into the undercroft.\nThe distinct smell of mould enters your nose as you travel further into the musty basement.\nThe faint glow of candles cause the shadows of ancient statues to flicker on the walls of the room...\nYou plan your next move.'
p1599
sg1137
I1
sba(iGameClasses
Map
p1600
(dp1601
g12
S'MCMASTER CHAPEL:\nThe Bus Stop is in front of you back out the door. There is a set of stairs going up.\nAs well as an old stairway leading downward.'
p1602
sg1106
(lp1603
(iGameClasses
Enemy
p1604
(dp1605
g12
S"'You need prayer. Recharge at the altar.'"
p1606
sg3
(I10
I10
I10
tp1607
sg5
S'Father Frobenius'
p1608
sg1113
S'crucifix'
p1609
sg49
I01
sg1115
Nsg1116
I00
sg19
I25
sg20
g1028
sg1117
Nsg50
I00
sg1118
g1119
sg1120
S'I am slain!'
p1610
sbasg5
S'The Chapel'
p1611
sg1123
(lp1612
g1022
asg1125
(lp1613
sg1127
(g1131
g1130
g1129
tp1614
sg1134
g1028
sg1135
S"The low drone of the organ draws you in.\nThe pews are relatively empty and the lighting quite dim.\nYou think it would be in your best interest\nto pray especially with exam season just around the corner...\nIt can't hurt, right? It'd probably work better than those healing stones\non your desk."
p1615
sg1137
I1
sba(iGameClasses
Map
p1616
(dp1617
g12
S'2ND FLOOR CHAPEL:\nYou can only go back down the stairs.'
p1618
sg1106
(lp1619
sg5
S'Upstairs Chapel'
p1620
sg1123
(lp1621
g230
ag178
ag933
asg1125
(lp1622
sg1127
(g1128
g1129
g1130
g1131
g1178
tp1623
sg1134
g184
sg1135
S'The combination of ringing bells and echoes from the organ is deafening.\nYou can barely collect your thoughts.\nThe cobwebs and dust give you the impression this place has been ill-travelled\nand long forgotten.'
p1624
sg1137
I1
sbaNaa(lp1625
Na(iGameClasses
Map
p1626
(dp1627
g12
S'BUS STOP:\nHealth Sciences Library to your left. JHE field in front of you.\nThe chapel is behind you. Art Museum to your right.'
p1628
sg1106
(lp1629
(iGameClasses
Enemy
p1630
(dp1631
g12
S"'Is that even your bus pass?'"
p1632
sg3
(I10
I10
I5
tp1633
sg5
S'Larry the bus driver'
p1634
sg1113
S'huge shirt'
p1635
sg49
I01
sg1115
Nsg1116
I00
sg19
I40
sg20
g286
sg1117
Nsg50
I00
sg1118
g1119
sg1120
S'That was definitely not your bus pass!'
p1636
sbasg5
S'The Bus Stop'
p1637
sg1123
(lp1638
g280
ag597
asg1125
(lp1639
sg1127
(tsg1134
g286
sg1135
S'Students gather around to catch the next bus.\nYou get pushed and shoved as they desperately clammer on-board.\nYou overhear an argument between a student and the Bus Driver when suddenly the altercation\nturns to blows and pours onto the sidewalk.'
p1640
sg1137
I1
sbaNaNaa(lp1641
Na(iGameClasses
Map
p1642
(dp1643
g12
S'JHE FIELD:\nBSB Field is to your right. McMaster map to your left.\nThe Bus Stop is at your rear. The entrance to JHE is in front of you.'
p1644
sg1106
(lp1645
(iGameClasses
Enemy
p1646
(dp1647
g12
S"'Man, you were a RIOT at the Phoenix last night!'"
p1648
sg3
(I5
I2
I10
tp1649
sg5
S'Brian the hipster'
p1650
sg1113
S'guitar'
p1651
sg49
I01
sg1115
Nsg1116
I00
sg19
I10
sg20
g587
sg1117
Nsg50
I00
sg1118
g1119
sg1120
S"That's not vegan."
p1652
sbasg5
S'JHE Field'
p1653
sg1123
(lp1654
g581
ag882
asg1125
(lp1655
sg1127
(tsg1134
g587
sg1135
S'The morning sun warms your face as you scoff at a hipster slack-lining.\nStudents lie in the grass around the field even though everybody knows\nnothing gets done studying outside.\nAfter narrowly dodging a frisbee you plan what to do.'
p1656
sg1137
I0
sbaNaNaa(lp1657
Na(iGameClasses
Map
p1658
(dp1659
g12
S'FRONT OF JHE:\nBSB is to your right. Hatch to your left.\nJHE field is to your rear. Enter JHE by going forward.'
p1660
sg1106
(lp1661
sg5
S'Starting Location'
p1662
sg1123
(lp1663
(iGameClasses
Interact
p1664
(dp1665
g12
S"It's a garbage can."
p1666
sg5
S'Garbage Can'
p1667
sg1113
S'vomit'
p1668
sg1116
I01
sg20
g415
sg1117
S'msp430'
p1669
sg1118
S'You throw the MSP430 in... Yes, you have chosen wisely.'
p1670
sba(iGameClasses
Interact
p1671
(dp1672
g12
S"Welcome to The Great ENG PHYS Text Adventure!\n\nHere are the rules of the realm:\nYour orientation never changes. When you enter you will be facing the\nentrance of JHE and you will always face that way.\n\nThe commands which allow you to interact with your environment are:\nforward = f, backward = b, left = l, right = r, up = u, down = d\ntalk (person name) -talk to someone near you\nattack (person name) -attacks someone\ninspect (item name) -let's you interact with interactables and gives stats of items, can't inspect people\nequip (item name) -you pick up an item, drops any item you have in that slot\ndrop (item name) -drops an item in your inventory\neat (item name) -eat an item\nstats -will show your stats\nsearch - will search the area for things to interact with.\ninventory -will show your current inventory.\n\nBe sure to type the ENTIRE name of what you want to interact with.\nThat's it! Good Luck!"
p1673
sg5
S'Rules Sign'
p1674
sg1113
g1119
sg1116
I00
sg20
g415
sg1117
g1119
sg1118
g1119
sbag409
asg1125
(lp1675
sg1127
(tsg1134
g415
sg1135
S"You hear a booming voice that sounds oddly like a game developer. \ntype: 'inspect rules sign!'\nYou see the Iron Ring out front of JHE shining in the morning sun.\nThe campus is bustling with student life.\nThere are people heading in all directions with Kipling pranks\nstill scattered about JHE."
p1676
sg1137
I0
sbaNaNaa(lp1677
(iGameClasses
Map
p1678
(dp1679
g12
S'JHE BASEMENT:\nYou can only go back up to the main floor.'
p1680
sg1106
(lp1681
(iGameClasses
Enemy
p1682
(dp1683
g12
S"'I need a snack that smiles back!'"
p1684
sg3
(I17
I12
I15
tp1685
sg5
S'Zack the Snack'
p1686
sg1113
S'fanny pack'
p1687
sg49
I01
sg1115
Nsg1116
I00
sg19
I25
sg20
(I2
I4
I0
tp1688
sg1117
S'goldfish'
p1689
sg50
I00
sg1118
S'Whoa thats whack! Check out this fanny pack.'
p1690
sg1120
S'Why are you the way you are?'
p1691
sbasg5
S'JHE Basement'
p1692
sg1123
(lp1693
(iGameClasses
Interact
p1694
(dp1695
g12
S"It's a dusty box of old CDs..."
p1696
sg5
S'Box of old CDs'
p1697
sg1113
Nsg1116
I00
sg20
g1688
sg1117
S'lenovo laptop'
p1698
sg1118
S'You insert one of the CDs into the monolithic computing device...\nThe laptop instantly blue-screens and bursts into flames.'
p1699
sbasg1125
(lp1700
sg1127
(g1128
g1129
g1130
g1131
g1132
tp1701
sg1134
g1688
sg1135
S'You see the remnants of failed clubs and the shattered dreams of past engineers...\nThis place is a bit chilly.'
p1702
sg1137
I1
sba(iGameClasses
Map
p1703
(dp1704
g12
S'JHE LOBBY:\nTo your right you can exit towards BSB. To your left you can head into Hatch.\nForward is the Nuclear Research building. Behind you lies the exit.\nThere are also stairs going up and down.'
p1705
sg1106
(lp1706
sg5
S'Inside JHE'
p1707
sg1123
(lp1708
g334
asg1125
(lp1709
sg1127
(tsg1134
g340
sg1135
S'JHE lobby is alive.\nStudents rushing all around as the smell of burnt coffee and sorrow tickles your nose.\nYou scan the faces around you but see no one familiar.\nThere is a confused air about this place as Kipling was just last night.\nMany engineers happy. Many more still grinding.'
p1710
sg1137
I0
sba(iGameClasses
Map
p1711
(dp1712
g12
S'2ND FLOOR JHE:\nTo the left is 2nd Floor Hatch. You can go down the stairs to JHE Lobby.'
p1713
sg1106
(lp1714
(iGameClasses
Enemy
p1715
(dp1716
g12
S"'I would like to improve my already impressive dad strength.'\n'Bring me a dumbbell.'"
p1717
sg3
(I250
I150
I100
tp1718
sg5
S'Dr. Preston'
p1719
sg1113
S'green lantern shirt'
p1720
sg49
I01
sg1115
Nsg1116
I00
sg19
I300
sg20
g828
sg1117
S'dumbbell'
p1721
sg50
I00
sg1118
S"'Yes! Now I can get the pump I've been after!'\n'Go look for Dr. Buijs he has much more to tell than I.'"
p1722
sg1120
S'HOW DID YOU OVERCOME MY DAD STRENGTH?!'
p1723
sbasg5
S'2nd Floor JHE'
p1724
sg1123
(lp1725
g822
ag1030
asg1125
(lp1726
sg1127
(g1128
g1129
g1131
g1178
tp1727
sg1134
g828
sg1135
S'You spend 20 minutes staring at the 1970 graduating class wondering if you could ever pull off a moustache like that...\nAfter realizing the cool lecture halls were only given to first years.\nYou shake your fist and plan your next move.'
p1728
sg1137
I1
sbaNaa(lp1729
(iGameClasses
Map
p1730
(dp1731
g12
S'BASEMENT OF NRB:\nYou can only go back up to the main floor.'
p1732
sg1106
(lp1733
sg5
S'NRB Basement'
p1734
sg1123
(lp1735
g625
asg1125
(lp1736
sg1127
(g1128
g1129
g1130
g1131
g1132
tp1737
sg1134
g631
sg1135
S'You head down the stairs to the basement...\nThe forgotten dreams of PhD students linger in the air.\nThere is an endless amount of engineering wizardry in the rooms around you.'
p1738
sg1137
I1
sba(iGameClasses
Map
p1739
(dp1740
g12
S'NUCLEAR RESEARCH BUILDING:\nTo your left lies the JHE-Annex. The Reactor is in front of you.\nThe Police Station is to your right. JHE lobby is behind you.\nThere are stairs going down.'
p1741
sg1106
(lp1742
sg5
S'Nuclear Research Building'
p1743
sg1123
(lp1744
g671
asg1125
(lp1745
sg1127
(tsg1134
g677
sg1135
S"You have barely ever been in here other than to struggle through\n3 hours of waiting for a water level PID controller to reach steady state.\nYou wonder how anyone could get away with a floor plan this confusing.\nPerhaps that's why no terrorists have blown up the reactor because\nthey are all still lost in here..."
p1746
sg1137
I0
sbaNaNaa(lp1747
(iGameClasses
Map
p1748
(dp1749
g12
S'INSIDE THE REACTOR:\nGo up to head outside.'
p1750
sg1106
(lp1751
sg5
S'Inside the Reactor'
p1752
sg1123
(lp1753
sg1125
(lp1754
sg1127
(g1128
g1129
g1130
g1131
g1132
tp1755
sg1134
(I2
I6
I0
tp1756
sg1135
S'The hum of air conditioning drowns your thoughts.\nYou lose yourself staring into the faint blue glow of the pool as you slowly approach its edge.'
p1757
sg1137
I1
sba(iGameClasses
Map
p1758
(dp1759
g12
S'NUCLEAR REACTOR:\nRight is the GO station. Left is ABB.\n NRB is at your rear. The campus exit lies in front of you.\nGo down to enter.'
p1760
sg1106
(lp1761
sg5
S'Nuclear Reactor'
p1762
sg1123
(lp1763
g999
asg1125
(lp1764
sg1127
(tsg1134
g1005
sg1135
S"As you approach you wonder if that steam is really radioactive?\nIt can't be.\nThe ominous structure draws you closer as you consider what it would be\nlike to swim in that sweet blue pool..."
p1765
sg1137
I0
sbaNaNaa(lp1766
Na(iGameClasses
Map
p1767
(dp1768
g12
S'CAMPUS EXIT:\nHead to Thode by going left. Head down Cootes trail if you go right.\nThe Reactor is behind you.'
p1769
sg1106
(lp1770
sg5
S'Campus Exit'
p1771
sg1123
(lp1772
g401
asg1125
(lp1773
sg1127
g1128
sg1134
g407
sg1135
S'A faint glow can be seen in the distance.\nWarning signs litter the trail as you squint to get a better look.\nA chill is sent down your spine as you see the flickering stretched shadows of\nfighting dance on the road ahead.\nYou cannot go straight... yet.'
p1774
sg1137
I0
sbaNaNaa(lp1775
NaNaNaNaa(lp1776
(lp1777
Na(iGameClasses
Map
p1778
(dp1779
g12
S'ART MUSEUM:\nThe exit lies in front of you.'
p1780
sg1106
(lp1781
sg5
S'Inside the Art Museum'
p1782
sg1123
(lp1783
g543
a(iGameClasses
Interact
p1784
(dp1785
g12
S'An old oil painting of the founding fathers of McMaster.\nDated:April 20th, 1887'
p1786
sg5
S'Old Painting'
p1787
sg1113
S"minnick's glasses"
p1788
sg1116
I00
sg20
g549
sg1117
S"minnick's glasses"
p1789
sg1118
S"Through Dr. Minnick's glasses a glowing green inscription is revealed!\n'In the hall where we eternally meet,\nThe second clue lies beneath your feet.'\nWhile reading the secret message Dr. Minnick's glasses get increasingly hotter and you quickly swat them off your face."
p1790
sbasg1125
(lp1791
sg1127
(g1131
g1130
g1129
tp1792
sg1134
g549
sg1135
S'Who knew McMaster had such a beautiful gallery.\nYou tilt your head endlessly until the art sort of makes sense.\nAfter telling yourself you could totally make every piece in the place had you been given\na chance you put your pinky out.\nThen contemplate your next move.'
p1793
sg1137
I1
sbaNaNaa(lp1794
Na(iGameClasses
Map
p1795
(dp1796
g12
S'OUTSIDE ART MUSEUM:\nYou can enter the museum to your rear. Bus Stop is to your left.\nWilly-dog stand to your right. BSB field lies in front of you.'
p1797
sg1106
(lp1798
sg5
S'Outside the Art Museum'
p1799
sg1123
(lp1800
g551
asg1125
(lp1801
sg1127
(tsg1134
g557
sg1135
S'Standing out front of the art museum you feel you are already being critiqued.\nAfter narrowly escaping a conversation with an arts student\nabout their installation piece of a dirty coffee table...\nYou plan your next move.'
p1802
sg1137
I1
sbaNaNaa(lp1803
Na(iGameClasses
Map
p1804
(dp1805
g12
S'BSB FIELD:\nThe turning circle is to your right. JHE field is to your left.\nEntrance to BSB is in front of you. The Art Museum is to your rear.'
p1806
sg1106
(lp1807
(iGameClasses
Enemy
p1808
(dp1809
g12
S"'I heard some jebroni took the 3W Textbook and hid in Bridges cafe.'\n'Full send, dude!'"
p1810
sg3
(I10
I15
I5
tp1811
sg5
S'Andreas the Nerd'
p1812
sg1113
S'visor glasses'
p1813
sg49
I01
sg1115
Nsg1116
I00
sg19
I50
sg20
g541
sg1117
Nsg50
I00
sg1118
g1119
sg1120
S'Dude, that was definitely a full send'
p1814
sbasg5
S'BSB Field'
p1815
sg1123
(lp1816
g535
a(iGameClasses
Interact
p1817
(dp1818
g12
S"You can't even tell time on an analog clock.\nHow are you supposed to use this?"
p1819
sg5
S'Sun Dial'
p1820
sg1113
S'rusty key'
p1821
sg1116
I01
sg20
g541
sg1117
S"minnick's glasses"
p1822
sg1118
S"Through Dr. Minnick's glasses, you see a green glowing handprint appears\non the face of the sundial!\nYou place your hand on it and a compartment opens."
p1823
sbasg1125
(lp1824
sg1127
(tsg1134
g541
sg1135
S'You look up to see the flags flapping happily in the morning breeze.\nThat sundial at their feet ticking to the tune of celestial magic.\nAfter swatting Neil Degrasse quotes from your thoughts...\nYou consider what to do next.'
p1825
sg1137
I0
sbaNaNaa(lp1826
(iGameClasses
Map
p1827
(dp1828
g12
S'QUANTUM TUNNEL:\nGo up to return to the main floor of BSB'
p1829
sg1106
(lp1830
(iGameClasses
Enemy
p1831
(dp1832
g12
S'I am NOT going to finish this assignment... if only I had one to copy.'
p1833
sg3
(I10
I10
I10
tp1834
sg5
S'Liam the Gamer'
p1835
sg1113
S'swordfish'
p1836
sg49
I01
sg1115
Nsg1116
I00
sg19
I15
sg20
g264
sg1117
S'horrible assignment'
p1837
sg50
I00
sg1118
S'Nice! Take this swordfish. I needed 45 cooking for that.'
p1838
sg1120
g1119
sbasg5
S'The Quantum Tunnel'
p1839
sg1123
(lp1840
g838
ag258
asg1125
(lp1841
sg1127
(g1128
g1129
g1130
g1131
g1132
tp1842
sg1134
g264
sg1135
S"What other faculty spends thousands of dollars on furniture for a\nliteral custodial closet in the BSB basement?\nYou guessed it...\nEng Phys. Gotta love em'"
p1843
sg1137
I0
sba(iGameClasses
Map
p1844
(dp1845
g12
S'BSB:\nBSB field is at your rear. Exit BSB to your right.\nThe entrance to JHE is to your left. The Quantum Tunnel is down the stairs.'
p1846
sg1106
(lp1847
sg5
S'BSB'
p1848
sg1123
(lp1849
g475
asg1125
(lp1850
sg1127
(tsg1134
g481
sg1135
S"You were told JHE would be your home but after picking Eng Phys\nyou didn't realize how wrong you were.\nAt least the cafe is better than JHE's.\nA shudder runs through your body as you draw nearer to the electronics labs.\nWiping a cold sweat from your brow you plan ahead."
p1851
sg1137
I0
sba(iGameClasses
Map
p1852
(dp1853
g12
S'2ND FLOOR BSB:\nYou can only go back down the stairs.'
p1854
sg1106
(lp1855
sg5
S'2nd Floor BSB'
p1856
sg1123
(lp1857
g648
asg1125
(lp1858
sg1127
(g1128
g1129
g1130
g1131
g1178
tp1859
sg1134
g654
sg1135
S'Despite the horrible numbering of floors the layout of the building is great.\nNot a complaint with this one.'
p1860
sg1137
I1
sbaNaa(lp1861
Na(iGameClasses
Map
p1862
(dp1863
g12
S'JHE/BSB JUNCTION:\nEnter JHE to your left. General Sciences building to your right.\nBSB is behind you. The Police station is in front of you.'
p1864
sg1106
(lp1865
(iGameClasses
Enemy
p1866
(dp1867
g12
S"'The oscilloscope is the window into the electronic world.'"
p1868
sg3
(I100
I100
I200
tp1869
sg5
S'Kenrick'
p1870
sg1113
S"kenrick's oscilloscope"
p1871
sg49
I00
sg1115
Nsg1116
I00
sg19
I0
sg20
(I3
I4
I1
tp1872
sg1117
Nsg50
I00
sg1118
g1119
sg1120
S"Oh no! My window! The Dark Lord will know I've failed him!"
p1873
sbasg5
S'Between JHE and BSB'
p1874
sg1123
(lp1875
(iGameClasses
Interact
p1876
(dp1877
g12
S'Under closer inspection you notice the book is a different kind of stone\nthan the rest...\nIf only you could get up there for a closer look...'
p1878
sg5
S'Coat of Arms'
p1879
sg1113
S'old scroll'
p1880
sg1116
I00
sg20
g1872
sg1117
S'old ladder'
p1881
sg1118
S'With some effort you climb the rickety ladder and remove the book from the wall.\nReaching into the hole you pull out an old scroll!'
p1882
sbasg1125
(lp1883
sg1127
(tsg1134
g1872
sg1135
S"You look up and see the McMaster coat of arms engraved into the side of BSB.\nThis little pathway has been well worn and you wonder why they don't connect JHE and BSB anyway.\nAn underground (quantum) tunnel would save some hardship on a rainy day..."
p1884
sg1137
I0
sbaNaNaa(lp1885
Na(iGameClasses
Map
p1886
(dp1887
g12
S'POLICE STATION:\nThe path between JHE & BSB behind you. The GO station lies ahead of you.\nThe Nuclear Research Building is to your left. The Tandem Accelerator is to your right.'
p1888
sg1106
(lp1889
(iGameClasses
Enemy
p1890
(dp1891
g12
S"'Give me your student card!'"
p1892
sg3
(I50
I25
I10
tp1893
sg5
S'Bill the MAC Cop'
p1894
sg1113
S'solar cell'
p1895
sg49
I00
sg1115
Nsg1116
I00
sg19
I0
sg20
g105
sg1117
Nsg50
I00
sg1118
g1119
sg1120
S"We aren't able to arrest you anyway!"
p1896
sbasg5
S'Police Station'
p1897
sg1123
(lp1898
g99
ag618
asg1125
(lp1899
sg1127
(tsg1134
g105
sg1135
S'Thoughts of getting kicked out of res parties fill your head.\nThose special constables are punks.\nYou mutter the lyrics of a certain N.W.A hit. After avoiding a campus P.D cruiser\nscreaming around the blind corner, you think of what to do next.'
p1900
sg1137
I0
sbaNaNaa(lp1901
Na(iGameClasses
Map
p1902
(dp1903
g12
S'GO STATION:\nThe Reactor is to your left. Keyes is to your right.\nCootes Trail is in front of you. The Police Station is behind you.'
p1904
sg1106
(lp1905
(iGameClasses
Enemy
p1906
(dp1907
g12
S"'Have you got the LON-CAPA Python code?'"
p1908
sg3
(I5
I1
I10
tp1909
sg5
S'Steven the first-year'
p1910
sg1113
S'engineering mug'
p1911
sg49
I01
sg1115
Nsg1116
I00
sg19
I15
sg20
g489
sg1117
Nsg50
I00
sg1118
g1119
sg1120
S"I'm a failure at home and at school!"
p1912
sbasg5
S'GO Station'
p1913
sg1123
(lp1914
g483
asg1125
(lp1915
sg1127
(tsg1134
g489
sg1135
S'The rush of people and buses around you is disorienting.\nYou nearly get hit by 3 buses and 2 MAC Cop cars as\nyou play a strange game of real-life frogger.\nReaching a bench you sit down, catch your breath, and plan what to do next.'
p1916
sg1137
I0
sbaNaNaa(lp1917
Na(iGameClasses
Map
p1918
(dp1919
g12
S'COOTES TRAIL:\nCampus exit is to your left. GO station to your rear.\nThe Bridge to Lot M is to your right.'
p1920
sg1106
(lp1921
sg5
S'Cootes Trail'
p1922
sg1123
(lp1923
g154
ag237
a(iGameClasses
Interact
p1924
(dp1925
g12
S'This patch of dirt looks out of place...'
p1926
sg5
S'Uneven Earth'
p1927
sg1113
S'declaration of independence'
p1928
sg1116
I00
sg20
g160
sg1117
S'shovel'
p1929
sg1118
S"You begin digging and find an old box!\nYou open it up and read a note...\n'In the eldest of halls. The attic holds all.'"
p1930
sbasg1125
(lp1931
sg1127
g1128
sg1134
g160
sg1135
S'The flickering light through the trees dances off of the trail ahead of you.\nYou smile as you see a squirrel gathering nuts,\nprobably for his little squirrel family.\nWith this new positive outlook on life you plan your next move.'
p1932
sg1137
I1
sbaNaNaa(lp1933
NaNaNaNaa(lp1934
(lp1935
(iGameClasses
Map
p1936
(dp1937
g12
S'MILLS BASEMENT:\nYou can only go back up to Mills.'
p1938
sg1106
(lp1939
sg5
S'Mills Basement'
p1940
sg1123
(lp1941
g505
a(iGameClasses
Interact
p1942
(dp1943
g12
S"It's an old mirror from a time long past."
p1944
sg5
S'Ancient Mirror'
p1945
sg1113
S'gamma glove'
p1946
sg1116
I00
sg20
g511
sg1117
S'ancient incantation'
p1947
sg1118
S"You mutter the incantation... Suddenly, you see the reflection of Richard Feynman himself standing behind you!\n'You have come a long way. The way of the physicist is strong with you.'\n'Here, take this it is one of the 3 Quantum Relics.\n'You will need all 3 to acquire your Iron Ring.'\n'Trust your instincts and when the time comes you will know what to do."
p1948
sbasg1125
(lp1949
sg1127
(g1128
g1129
g1130
g1131
g1132
tp1950
sg1134
g511
sg1135
S'Jeez has anyone ever been down here?\nThe rows of bookshelves seem to go on forever...\nIf only you could possess all of the knowledge they hold.'
p1951
sg1137
I1
sba(iGameClasses
Map
p1952
(dp1953
g12
S'MILLS LIBRARY:\nThe Willy Dog Stand is in front of you. MUSC is to your right.\nYou can go downstairs.'
p1954
sg1106
(lp1955
sg5
S'Mills Library'
p1956
sg1123
(lp1957
g296
a(iGameClasses
Interact
p1958
(dp1959
g12
S"It's a guide to the Bruce trail."
p1960
sg5
S'Blue Book'
p1961
sg1113
g1119
sg1116
I00
sg20
g302
sg1117
g1119
sg1118
g1119
sba(iGameClasses
Interact
p1962
(dp1963
g12
S"Flipping through you read:\n'The mitochondria is the powerhouse of the cell.'"
p1964
sg5
S'Red Book'
p1965
sg1113
g1119
sg1116
I00
sg20
g302
sg1117
g1119
sg1118
g1119
sbasg1125
(lp1966
sg1127
(g1130
g1129
tp1967
sg1134
g302
sg1135
S'This is definitely not Thode.\nYou wonder if anything gets done in this library.\nAll of the debauchery taking place on the 6th floor sends a shudder through your body.\nYou notice a stack of books...'
p1968
sg1137
I1
sbaNaNaa(lp1969
Na(iGameClasses
Map
p1970
(dp1971
g12
S'WILLY DOG STAND:\nThe turning circle lies in front of you. Mills library at your rear.\nThe Archway to your right. The Art Museum is to your left.'
p1972
sg1106
(lp1973
sg5
S'The Willy Dog stand'
p1974
sg1123
(lp1975
g162
ag1066
asg1125
(lp1976
sg1127
(tsg1134
g168
sg1135
S"Oh, that sweet sweet aroma.\nMany drunken nights flash through your head.\nThat Willy dog cart is more of a staple to McMaster students than the Archway next to it.\nWas it named Willy Dog after Sir William McMaster?\nYou'll never know..."
p1977
sg1137
I0
sbaNaNaa(lp1978
Na(iGameClasses
Map
p1979
(dp1980
g12
S'TURNING CIRCLE:\nWilly Dog stand is to your rear. BSB-field is to your left.\nThe Willy McMaster Statue is to your right. Head down the road if you go forward.'
p1981
sg1106
(lp1982
(iGameClasses
Enemy
p1983
(dp1984
g12
g1892
sg3
(I50
I25
I10
tp1985
sg5
S'Will the MAC Cop'
p1986
sg1113
S'fake gun'
p1987
sg49
I01
sg1115
Nsg1116
I00
sg19
I50
sg20
g176
sg1117
Nsg50
I00
sg1118
g1119
sg1120
g1896
sbasg5
S'Turning Circle'
p1988
sg1123
(lp1989
g170
ag244
asg1125
(lp1990
sg1127
(tsg1134
g176
sg1135
S'The circle thing with the three trees in it is looking pretty nice\nin the morning sun.\nStudents rush all around.\nThe aroma from the Willy Dog stand is making you pretty hungry...'
p1991
sg1137
I0
sbaNaNaa(lp1992
Na(iGameClasses
Map
p1993
(dp1994
g12
S'A ROAD:\nEnter BSB to your left. Hamilton Hall to your right.\nThe turning circle is behind you. General Sciences building in front of you.'
p1995
sg1106
(lp1996
sg5
S'Campus Road'
p1997
sg1123
(lp1998
g288
ag327
asg1125
(lp1999
sg1127
(tsg1134
g294
sg1135
S"A lost first year's parent drives by in a mini-van\nclearly ignoring the 'no access' sign.\nYou thank your astrology sign for making sure they looked up and saw you."
p2000
sg1137
I0
sbaNaNaa(lp2001
Na(iGameClasses
Map
p2002
(dp2003
g12
S'GENERAL SCIENCES BUILDING:\nThe Phoenix is to your right. The junction between JHE & BSB is to your left.\nThe Tandem Accelerator is in front of you. Exit to your rear.'
p2004
sg1106
(lp2005
(iGameClasses
Enemy
p2006
(dp2007
g12
S"'I've been trying to develop a new LED...'\n'But I need some silicon, find me a Silicon Substrate please!'"
p2008
sg3
(I150
I50
I50
tp2009
sg5
S'Dr. Kitai'
p2010
sg1113
Nsg49
I01
sg1115
Nsg1116
I01
sg19
I150
sg20
g90
sg1117
S'silicon substrate'
p2011
sg50
I01
sg1118
S"'I've been looking for one just like this, how did you get it?'\n'Maybe you are th-'\n'Nevermind... just be on the lookout for Dr. Kleiman.'"
p2012
sg1120
S"'It was only a midterm, don't off yourself.'"
p2013
sbasg5
S'General Sciences'
p2014
sg1123
(lp2015
g694
ag84
asg1125
(lp2016
sg1127
(tsg1134
g90
sg1135
S"Have you ever been in here?\nI haven't.\nYou see a group of people huddled around a pentagram-wearing goat heads.\nMaybe? I seriously don't know what goes on in here."
p2017
sg1137
I0
sbaNaNaa(lp2018
(iGameClasses
Map
p2019
(dp2020
g12
S'TANDEM BASEMENT:\nYou can only go back up the stairs.'
p2021
sg1106
(lp2022
sg5
S'Tandem Basement'
p2023
sg1123
(lp2024
(iGameClasses
Interact
p2025
(dp2026
g12
S"It's an old broken reactor."
p2027
sg5
S'Broken Reactor'
p2028
sg1113
S'pink donut'
p2029
sg1116
I00
sg20
(I4
I5
I0
tp2030
sg1117
S'flux capacitor'
p2031
sg1118
S"After some elbow grease and a bit of luck you manage to complete the reactor.\nThere is a low whirr as the device starts and begins to glow with a\npink hue.\nYou feel like ancient mechanisms beyond your comprehension are coming to life.\nWithin the pink glow you see an apparition of Dr. Novog!\n'What's up folks! This is the only channel safe for communication\n'Come meet me in the basement of the Nuclear Reactor ASAP and bring that Pink Donut!'\nAs the aparition fades a hooded figure emerges from behind a lab bench.\n'The Dark Lord demands that donut!'\nThe assassin lunges for you but is quickly met by your blow.\nAs they fall to the ground you notice an insignia on their robe that tickles your 'that's familiar' bone...\nYou pull back their hood to reveal the face of an Eng Phys PhD student!\nYou don't remember their name... But you know they are in the faculty..."
p2032
sbasg1125
(lp2033
sg1127
(g1128
g1129
g1130
g1131
g1132
tp2034
sg1134
g2030
sg1135
S"An old basement with all sorts of technological wizardry you don't recognize.\nIt seems like this place has been untouched for some time.\nLooking around you get the impression that not a lot of people come down here."
p2035
sg1137
I1
sba(iGameClasses
Map
p2036
(dp2037
g12
S'TANDEM ACCELERATOR:\nThe General Sciences Building is behind you. The Police station is to your left.\nA trail is to your right. Keyes is in front of you.'
p2038
sg1106
(lp2039
(iGameClasses
Enemy
p2040
(dp2041
g12
S"'The tools should be coming any day now.'"
p2042
sg3
(I50
I75
I50
tp2043
sg5
S'Chris'
p2044
sg1113
S'capstone tools'
p2045
sg49
I01
sg1115
Nsg1116
I00
sg19
I50
sg20
g129
sg1117
Nsg50
I00
sg1118
g1119
sg1120
S'I was going to quit anyway!'
p2046
sbasg5
S'Tandem Accelerator'
p2047
sg1123
(lp2048
g123
asg1125
(lp2049
sg1127
(tsg1134
g129
sg1135
S'Turns out the Tandem Accelerator is NOT a rad place to ride a 2-person bike...\nBummed out you remind yourself you graduated and consider what to do next.'
p2050
sg1137
I0
sbaNaNaa(lp2051
Na(iGameClasses
Map
p2052
(dp2053
g12
S'MARY KEYES:\nYou can head to the Bridge if you go forward. The GO station is to your left.\nThe Tandem Accelerator is at your rear. Bates is to your right.'
p2054
sg1106
(lp2055
sg5
S'Keyes'
p2056
sg1123
(lp2057
g806
ag889
asg1125
(lp2058
sg1127
(tsg1134
g812
sg1135
S"A snack station that's open 'til midnight.\nWhat a life saver indeed.\nYou quickly thank the engineering gods for Mary Keyes and fight yourself\nfrom ordering chicken fingers & fries super combo..."
p2059
sg1137
I0
sbaNaNaa(lp2060
Na(iGameClasses
Map
p2061
(dp2062
g12
S'THE BRIDGE:\nLot M is to your right. Keyes is at your rear.\nHead down Cootes trail if you go left.'
p2063
sg1106
(lp2064
sg5
S'The Bridge'
p2065
sg1123
(lp2066
g845
asg1125
(lp2067
sg1127
g1128
sg1134
g851
sg1135
S'You narrowly avoid a GO bus\npick yourself up and brush yourself off.\nThen plan your next move.'
p2068
sg1137
I1
sbaNaNaa(lp2069
NaNaNaNaa(lp2070
(lp2071
(iGameClasses
Map
p2072
(dp2073
g12
S'CUSTODIAL CLOSET:\nYou can only go up to go back to MUSC.'
p2074
sg1106
(lp2075
sg5
S'Custodial Closet'
p2076
sg1123
(lp2077
g440
ag304
ag186
ag69
asg1125
(lp2078
sg1127
(g1128
g1129
g1130
g1131
g1132
tp2079
sg1134
g75
sg1135
S'You enter the custodial closet and a formidable stench fills your nostrils...\nEw.'
p2080
sg1137
I1
sba(iGameClasses
Map
p2081
(dp2082
g12
S'MUSC:\nMills is to your left. The Archway is in front of you.\nA custodial closet is down the stairs.'
p2083
sg1106
(lp2084
sg5
S'McMaster Student Centre'
p2085
sg1123
(lp2086
g791
ag138
asg1125
(lp2087
sg1127
(g1131
g1129
tp2088
sg1134
g144
sg1135
S'The Student Centre is alive.\nAfter counting the number of jean jackets in the Starbucks line like the Count from Sesame Street\nyou snap back to reality.\n(Oops there goes gravity).\nYou notice a Starbucks employee arguing with his manager before throwing their apron to the ground.'
p2089
sg1137
I1
sbaNaNaa(lp2090
Na(iGameClasses
Map
p2091
(dp2092
g12
S'ARCHWAY:\nMUSC at your rear. Statue of Willy in front of you.\nEntrance to University Hall is to your right. The Willy Dog stand is to your left.'
p2093
sg1106
(lp2094
sg5
S'The McMaster Archway'
p2095
sg1123
(lp2096
g798
a(iGameClasses
Interact
p2097
(dp2098
g12
S'It appears the hole was caused by some sort of laser...'
p2099
sg5
S'Old Lamp'
p2100
sg1113
g1119
sg1116
I00
sg20
g804
sg1117
g1119
sg1118
g1119
sbasg1125
(lp2101
sg1127
(tsg1134
g804
sg1135
S"Probably the most beautiful structure at Mac.\nYou notice a hole that appears to have melted through the glass of the lamp underneath...\nYou snap a quick selfie in front of the Archway for the 'gram."
p2102
sg1137
I1
sbaNaNaa(lp2103
Na(iGameClasses
Map
p2104
(dp2105
g12
S'WILLIAM MCMASTER STATUE:\nHamilton Hall is in front of you. The Archway is behind you.\nTurning Circle is to your left.'
p2106
sg1106
(lp2107
sg5
S'Statue of Sir William McMaster'
p2108
sg1123
(lp2109
sg1125
(lp2110
sg1127
g1131
sg1134
(I5
I2
I1
tp2111
sg1135
S'Approaching the statue you notice massive burn marks on the lawn and chunks\nout of the tree...\nHmm...\nWhat if Sir Willy McMaster was actually in that statue Han Solo style?\nAfter a quick selfie with Willy you plan your next move.'
p2112
sg1137
I1
sbaNaNaa(lp2113
Na(iGameClasses
Map
p2114
(dp2115
g12
S'HAMILTON HALL:\nThe Phoenix is in front of you. A road is to your left.\nThe Willy McMaster Statue is to your rear.'
p2116
sg1106
(lp2117
sg5
S'Hamilton Hall'
p2118
sg1123
(lp2119
g1088
ag925
asg1125
(lp2120
sg1127
g1131
sg1134
g931
sg1135
S"You think about helping some first years in the Math help centre.\nThen you don't.\nThey should learn to fight through it if they're going to make it through the\nnext 4 years."
p2121
sg1137
I0
sbaNaNaa(lp2122
(iGameClasses
Map
p2123
(dp2124
g12
S'BRIDGES CAFE:\nYou can only go back up to the Phoenix.'
p2125
sg1106
(lp2126
(iGameClasses
Enemy
p2127
(dp2128
g12
S"'Did I mention I'm vegan?'"
p2129
sg3
(I15
I1
I5
tp2130
sg5
S'Jana the vegan'
p2131
sg1113
S'3w textbook'
p2132
sg49
I00
sg1115
Nsg1116
I00
sg19
I0
sg20
g121
sg1117
Nsg50
I00
sg1118
g1119
sg1120
S'I was going to bring it back I swear!'
p2133
sbasg5
S'Bridges'
p2134
sg1123
(lp2135
g115
asg1125
(lp2136
sg1127
(g1128
g1129
g1130
g1131
g1132
tp2137
sg1134
g121
sg1135
S'You feel guilty walking in here after you performed a\nbeat down on a double big mac combo in a drunken stupor only hours earlier.\nAfter pledging to be more vegan in the future, you plan what to do next.'
p2138
sg1137
I0
sba(iGameClasses
Map
p2139
(dp2140
g12
S'THE PHOENIX:\nGeneral Sciences Building is to your left. Hamilton Hall is to your rear.\nThe trail to Bates is in front of you. You can also go down the stairs to Bridges Cafe.'
p2141
sg1106
(lp2142
(iGameClasses
Enemy
p2143
(dp2144
g12
S"'Wait... I recognize you... you have a $420E69 tab!'"
p2145
sg3
(I15
I20
I10
tp2146
sg5
S'Megan the Bartender'
p2147
sg1113
S'meow mix'
p2148
sg49
I01
sg1115
Nsg1116
I00
sg19
I20
sg20
g836
sg1117
Nsg50
I00
sg1118
g1119
sg1120
S'Nuuuuuuuuuuuu'
p2149
sba(iGameClasses
Enemy
p2150
(dp2151
g12
S"'Whoever took the 3W Textbook from the QT shall feel my eternal wrath...'"
p2152
sg3
(I200
I100
I50
tp2153
sg5
S'Dr. Knights'
p2154
sg1113
Nsg49
I01
sg1115
Nsg1116
I01
sg19
I300
sg20
g836
sg1117
S'3w textbook'
p2155
sg50
I01
sg1118
S"'I've been looking all over for that, have a cold one on me!'\n'But before you go you should know that a difficult road lies ahead.'\n'It will not be easy to have your Iron Ring returned to you'\n'Dr. Haugen should be the one you seek next.'"
p2156
sg1120
S"'What are you doing?!'"
p2157
sbasg5
S'The Phoenix'
p2158
sg1123
(lp2159
g830
asg1125
(lp2160
sg1127
g1131
sg1134
g836
sg1135
S"Upon entering, a rush of memories from last night enter your mind.\nPeople's faces are a blur but you somewhat recall '16 tequila shots' as something you said.\nYou see a mysterious Hooded Man as he beckons you to come over."
p2161
sg1137
I0
sba(iGameClasses
Map
p2162
(dp2163
g12
S'PHOENIX LOFT:\nYou can only go back down the stairs.'
p2164
sg1106
(lp2165
sg5
S'The Pheonix Loft'
p2166
sg1123
(lp2167
g969
ag424
asg1125
(lp2168
sg1127
(g1128
g1129
g1130
g1131
g1178
tp2169
sg1134
g430
sg1135
S'The history up here is incredible. So many relics from a time long past.\nFrom old costumes from plays to furniture.\nAfter a quick Shakespearean sonnet you think of what to do next.'
p2170
sg1137
I1
sbaNaa(lp2171
Na(iGameClasses
Map
p2172
(dp2173
g12
S'TRAIL TO PHOENIX:\nBates lies in front of you. The Phoenix at your rear.\nThe Tandem Accelerator is to your left.'
p2174
sg1106
(lp2175
(iGameClasses
Enemy
p2176
(dp2177
g12
S"'MHhmgh, Soouh whatu we getta druuuunk'"
p2178
sg3
(I10
I5
I1
tp2179
sg5
S'Phil the drunk'
p2180
sg1113
S'vomit'
p2181
sg49
I01
sg1115
Nsg1116
I00
sg19
I15
sg20
g595
sg1117
S"phil's braces"
p2182
sg50
I00
sg1118
S"'UHhhh i thinka im gonna- im gon-'\nPhil vomits."
p2183
sg1120
S'mhmh spooky ghost urggh ectoplasm noooooo'
p2184
sbasg5
S'Trail'
p2185
sg1123
(lp2186
g589
asg1125
(lp2187
sg1127
g1131
sg1134
g595
sg1135
S"Longboarding down this trail going Mach 16 was a blast and a half.\nDodging deer and first years like it's some sort of cube runner.\nNice."
p2188
sg1137
I1
sbaNaNaa(lp2189
Na(iGameClasses
Map
p2190
(dp2191
g12
S'BATES:\nLOT M lies in front of you. Keyes is to your left.\nThe trail to the Phoenix is behind you.'
p2192
sg1106
(lp2193
sg5
S'Bates'
p2194
sg1123
(lp2195
g991
a(iGameClasses
Interact
p2196
(dp2197
g12
S'Old RCA TV with VHS slot...'
p2198
sg5
S'RCA TV'
p2199
sg1113
g1119
sg1116
I00
sg20
g997
sg1117
S'tarzan vhs'
p2200
sg1118
S"You put the VHS into the slot and press play...\nThe opening scenes to Tarzan begin but suddenly the screen goes black and a message\nis displayed!\n'DrOWN I Need EveryThing graBs'"
p2201
sbasg1125
(lp2202
sg1127
g1131
sg1134
g997
sg1135
S'Memories of ridiculous res parties fill your mind.\nYou also recall the landfill of a room that was more of a circus attraction\nthan a living space.\nOh how distant first year seems...'
p2203
sg1137
I1
sbaNaNaa(lp2204
Na(iGameClasses
Map
p2205
(dp2206
g12
S'LOT M:\nTo your left is the bridge. Bates is behind you.'
p2207
sg1106
(lp2208
(iGameClasses
Enemy
p2209
(dp2210
g12
S"'Righteous! Could you help me get into my car?\nI lost my keys and can't find my car.\nI REALLY need what is in there.'"
p2211
sg3
(I14
I20
I5
tp2212
sg5
S'Rod the climber'
p2213
sg1113
S'delicious meal'
p2214
sg49
I01
sg1115
Nsg1116
I00
sg19
I40
sg20
g59
sg1117
S'bowling ball'
p2215
sg50
I00
sg1118
S'Thanks!\nNow I can learn to bowl that perfect strike.\nTake this, I just cooked it up.'
p2216
sg1120
S'Ouch!'
p2217
sbasg5
S'Lot M'
p2218
sg1123
(lp2219
g748
ag687
ag53
asg1125
(lp2220
sg1127
(g1128
g1131
tp2221
sg1134
g59
sg1135
S'After 3 days of hiking you arrive at Lot M.\nAfter 2 more days of looking for your car you give up and contemplate what to do next.'
p2222
sg1137
I1
sbaNaNaa(lp2223
NaNaNaNaa(lp2224
(lp2225
NaNaNaNaa(lp2226
(iGameClasses
Map
p2227
(dp2228
g12
S'SECRET ROOM:\nYou can only climb up and out.'
p2229
sg1106
(lp2230
sg5
S'Secret Room'
p2231
sg1123
(lp2232
(iGameClasses
Interact
p2233
(dp2234
g12
S"You blow the dust off, open it, and read:\n'The ability to peer into history would be a most formidable power.'\n'I have potentially produced a piece of the puzzle but without a\n'device capable of maintaining the field density long enough I fear\n'it will never become a reality.'\n'Thus I have decided to hide my invention until the time comes where\nsomeone can realize my dream.'\n'If you are reading this, find the place where you can see\ncampus in its entirety.'\n'If you ARE the hero, the next steps shall be revealed.'\n-M. Faraday"
p2235
sg5
S'Old Journal'
p2236
sg1113
g1119
sg1116
I00
sg20
(I6
I1
I0
tp2237
sg1117
g1119
sg1118
g1119
sbasg1125
(lp2238
sg1127
(g1128
g1129
g1130
g1131
g1132
tp2239
sg1134
g2237
sg1135
S"You inspect the floorboards and find one is loose.\nUpon lifting it you reveal a secret room!\nYou climb down and find yourself surrounded by stacks of ancient books and\nforgotten items from McMaster's past."
p2240
sg1137
I1
sba(iGameClasses
Map
p2241
(dp2242
g12
S'UNIVERSITY HALL:\nThe exit is to your left.'
p2243
sg1106
(lp2244
sg5
S'Inside University Hall'
p2245
sg1123
(lp2246
g1007
asg1125
(lp2247
sg1127
(g1131
g1129
g1128
tp2248
sg1134
g1013
sg1135
S'The glares from portraits of old white founding fathers intimidate you.\nThe memories of failing midterms in their presence sends you into an almost trance-like state.\nYou notice that the portrait of Keyes totally looks like Stephen Fry.\nAfter talking yourself out of stealing a piece of Mac history you plan your next move.'
p2249
sg1137
I1
sba(iGameClasses
Map
p2250
(dp2251
g12
S'2ND FLOOR UH:\nYou can only go back down the stairs.'
p2252
sg1106
(lp2253
sg5
S'2nd Floor UH'
p2254
sg1123
(lp2255
(iGameClasses
Interact
p2256
(dp2257
g12
S'Looks like a set of glasses with multiple coloured lenses...'
p2258
sg5
S'Tri-Coloured Glasses'
p2259
sg1113
Nsg1116
I00
sg20
(I6
I1
I2
tp2260
sg1117
S'declaration of independence'
p2261
sg1118
S"Its a cipher...\nOn the back of the declaration you can see different coded messages using the coloured lenses...\nRED:'Lithium Carbon Boron Mangnesium(-g)'\nBLUE:'Jerry likes presents.'\nGREEN:'Guardians of De Galaxy character.'"
p2262
sbasg1125
(lp2263
sg1127
(g1128
g1129
g1130
g1131
g1178
tp2264
sg1134
g2260
sg1135
S'You make your way up the rickety staircase into a room from a time long past.\nYou notice a dust covered table with some old instruments and clutter thrown about.'
p2265
sg1137
I1
sbaNaa(lp2266
NaNaNaNaa(lp2267
NaNaNaNaa(lp2268
NaNaNaNaa(lp2269
NaNaNaNaa(lp2270
NaNaNaNaa(lp2271
NaNaNaNaa(lp2272
NaNaNaNaatp2273
a(dp2274
S'dr. soleymani'
p2275
g1167
sS'dr. knights'
p2276
g2150
sS'bill the mac cop'
p2277
g1890
sS'dr. kleimann'
p2278
g1453
sS'mario the mixologist'
p2279
g1419
sS'sir william mcmaster'
p2280
(iGameClasses
Enemy
p2281
(dp2282
g12
S"'You must rid the university of the evil Dr. Cassidy has planned!'"
p2283
sg3
(I175
I125
I100
tp2284
sg5
S'Sir William McMaster'
p2285
sg1113
S'iron ring'
p2286
sg49
I01
sg1115
Nsg1116
I00
sg19
I125
sg20
(NNNtp2287
sg1117
g1119
sg50
I00
sg1118
g1119
sg1120
S"The spirit of Sir William McMaster bursts with a fiercely bright explosion.\nYou look down to see your Iron Ring as well as the deed to McMaster!\nDr. Cassidy quickly picks up the deed and turns to you.\n'Excellent!' he says coupled with maniacal laughter.\n'Too fulfill your true destiny, take the power you hold in your Iron Ring and destroy all of the professors'\n'Only after they are gone can Engineering Physics truly reign supreme!'"
p2288
sbsS'will the mac cop'
p2289
g1983
sS'eric the baller'
p2290
g1249
sS'dan fitzgreen'
p2291
(iGameClasses
Enemy
p2292
(dp2293
g12
S"Hello, although I've turned to the dark side to do Physics Labs\n I'm still a great guy. Did I mention I worked at CERN!?"
p2294
sg3
(I100
I75
I100
tp2295
sg5
S'Dan Fitzgreen'
p2296
sg1113
S'ambifacient lunar waneshaft'
p2297
sg49
I01
sg1115
Nsg1116
I00
sg19
I400
sg20
g2287
sg1117
g1119
sg50
I00
sg1118
S"'Been a lot stirring around the faculty since last night.'\n'I used to be an adventurous student like you before the High Council and I decided to part ways.'\n'I know what you seek and I am here to help.'\n'You need to fire up that old reactor in the basement of the Tandem Accelerator.'\n'It needs some sort of high power instrument to bring it to life...'\n'I think Dr. Nagasaki has been working on something like that, he is probably somewhere in ITB.'\n'He will likely need this...'"
p2298
sg1120
S"I'm moving to the physics department"
p2299
sbsS'dr. buijs'
p2300
(iGameClasses
Enemy
p2301
(dp2302
g12
S"'I've been looking for you.'\n'I have a lot to tell you, but first we must test your loyalty.'\n'There is a traitor amongst the Eng Phys faculty!'\n'His name is Chris and he was last seen in the Tandem Accelerator.'\n'Bring me what he has stolen!'"
p2303
sg3
(I250
I150
I100
tp2304
sg5
S'Dr. Buijs'
p2305
sg1113
S'voltage divider'
p2306
sg49
I01
sg1115
Nsg1116
I00
sg19
I300
sg20
g2287
sg1117
S'capstone tools'
p2307
sg50
I00
sg1118
S"'Ah you have returned.'\nYou sit down and listen to what Dr. Buijs has to say.\n'The Engineering Physics professors are part of an ancient council known as\nThe Quantum Order'\n'It is our duty to ensure the safety of this campus.'\n'It appears that your actions last night have stirred an evil\neven we don't understand.'\n'All that we do know is that some faculty members have been\ntempted by a Dark Lord with the promise of infinite knowledge.'\n'A prophecy from a time long past has foretold that an adventurer's decisions\nwould dictate the future of the faculty.'\n'Perhaps it is you they spoke of. Keep that in mind as you consider your actions.'\n'See Dan Fitzgreen in the basement.'\n'He has hatched a plan that may turn the balances in our favour.'"
p2308
sg1120
S'It is a voltage divider!'
p2309
sbsS'kenrick'
p2310
g1866
sS'dr. haugen'
p2311
(iGameClasses
Enemy
p2312
(dp2313
g12
S"'Hello, as you are likely aware, there has been a disturbance...'\n'You losing your Iron Ring was no accident, it was taken from you.'\n'The Quantum Order is an ancient fold whose goal is to protect the\nUniversity from certain doom and misuse of our knowledge.'\n'There has been an item of importance stolen from us and we need it returned immediately.'\n'Especially if you are to find your Iron Ring.'\n'The council has received intelligence that Dr. Soleymani has stolen Einstein's brain from the McMaster vault.'\n'You must retrieve it at once, she can be found somewhere in the hospital.'\n'Do not underestimate her! She has been tempted by a Dark Lord.'\n'The Quantum Order requires that you defeat her and return the brain at once!'"
p2314
sg3
(I250
I100
I999
tp2315
sg5
S'Dr. Haugen'
p2316
sg1113
Nsg49
I00
sg1115
Nsg1116
I01
sg19
I200
sg20
g533
sg1117
S"einstein's brain"
p2317
sg50
I01
sg1118
S"'Oh my! You've returned! I knew you could do it!'\n'Quickly, hand it over!'\nYou hand Dr. Haugen the brain and he opens the fridge placing it inside.\n'Now, we just need to mount my laser onto my bench-'\nSuddenly a rabid Grad Student bursts into the lab!\n'Hand over the brain, the Dark Lord demands it!' he says.\n'If you strike me down, I will become more powerful than\nyou could possibly imagine' Dr. Haugen replies.\nThe Grad Student lunges at Dr. Haugen who disappears entirely!\nJust before the perplexed Grad Student turns towards you he is met by your blow\nand falls to the floor."
p2318
sg1120
S'Oh my!'
p2319
sbsS'chris'
p2320
g2040
sS'dr. preston'
p2321
g1715
sS'dr. nagasaki'
p2322
g1283
sS'connor the biologist'
p2323
g1567
sS'dr. novog'
p2324
(iGameClasses
Enemy
p2325
(dp2326
g12
S"What's up folks?"
p2327
sg3
(I420
I420
I420
tp2328
sg5
S'Dr. Novog'
p2329
sg1113
S'ancient incantation'
p2330
sg49
I01
sg1115
Nsg1116
I00
sg19
I100
sg20
g2287
sg1117
S'pink donut'
p2331
sg50
I00
sg1118
S"'Alright folks, here's the scoop.'\n'I could only talk to you via the fusion network because the integrity of faculty\ncommunication has been compromised.'\n'The Engineering Physics professors are actually members of an Ancient Council known as The Quantum Order.'\n'For years we have kept McMast-'\n'An assassin?'\n'Hmm... I see, things are worse than we thought.'\n'We have known of this uprising within the faculty for some time but\nwere unaware of just how strong they have grown.'\n'As you have heard, a prophecy foretold of an adventurer dictating the future of the faculty.'\n'This evil group wants nothing more than to take advantage of your power and influence for their own plans.'\n'The choices you make will be yours and yours alone, however, the Quantum Order\nurges that you consider the consequences of your actions.'\n'It is our duty to assist you in realizing your ability but what comes of your power is out of our hands.'\n'You must contact the oracles who foretold of your coming, they will give you the knowledge you require.'\n'Each member of the Quantum Order only knows of the location one Oracle.'\n'For that reason I can only help you so much.'\nDr. Novog pushes a button on a nearby control panel.\nA crane arm descends into the Reactor pool to retrieve a crate from its depths.\n'Take this incantation and find the ancient mirror in the basement of Mills Library... it is your time.'"
p2332
sg1120
g1119
sbsS'mitch the ta'
p2333
g1214
sS'rod the climber'
p2334
g2209
sS'jana the vegan'
p2335
g2127
sS'steven the first-year'
p2336
g1906
sS'dr. minnick'
p2337
g1528
sS'brian the hipster'
p2338
g1646
sS'father frobenius'
p2339
g1604
sS'paul the janitor'
p2340
g1266
sS'dr. kitai'
p2341
g2006
sS'hooded man'
p2342
(iGameClasses
Enemy
p2343
(dp2344
g12
S"I've been looking for you. Especially after what you did last night.\nI recommend you seek out the profs if you are to find your ring...\nOnly they can right the wrongs you have done."
p2345
sg3
(I999
I999
I999
tp2346
sg5
S'Hooded Man'
p2347
sg1113
g1119
sg49
I01
sg1115
Nsg1116
I00
sg19
I999
sg20
g836
sg1117
Nsg50
I00
sg1118
g1119
sg1120
g1119
sbsS'liam the gamer'
p2348
g1831
sS'zack the snack'
p2349
g1682
sS'larry the bus driver'
p2350
g1630
sS'megan the bartender'
p2351
g2143
sS'dr. lapierre'
p2352
g1510
sS'brendan fallon'
p2353
(iGameClasses
Enemy
p2354
(dp2355
g12
S"What's up dude? I'm here to bless up your shit.\nDo you have my lunch box?"
p2356
sg3
(I9999
I9999
I9999
tp2357
sg5
S'Brendan Fallon'
p2358
sg1113
S'green bang bong'
p2359
sg49
I01
sg1115
Nsg1116
I00
sg19
I999
sg20
g2287
sg1117
S"brendan fallon's lunchbox"
p2360
sg50
I00
sg1118
S'THANKS! TOKE UP MY DUDES!'
p2361
sg1120
g1119
sbsS'phil the drunk'
p2362
g2176
sS'undead grad student'
p2363
g1588
sS'erik the sk8r'
p2364
g1108
sS'andreas the nerd'
p2365
g1808
sS'dr. cassidy'
p2366
(iGameClasses
Enemy
p2367
(dp2368
g12
S"'Yes, I was the one who sent you on this quest.'\n'My associates were no match for you, they did not have the strength to acquire the Relics for me.'\n'I know the Quantum Order has told you that the prophecy spoke of you bringing peace.'\n'You have been lead to believe the Order fights for what is just and fair.'\n'But you have been mislead.'\n'They only wish to keep the power of the Quantum Relics to themselves so that they\nalone decide the fate of the University.'\n'I only ever wanted to reveal the true power of Engineering Physics to the students.'\n'They thought my methods were unsafe.'\n'They thought the power I intended to reveal would pollute the minds of the students\nand cloud their judgement.'\n'The Quantum Order only wishes to suppress the true power we hold!'\n'They don't trust the students, they think they are incapable of managing the power I intended to give them.'\n'We are the premier stream and we deserve to rule McMaster as such!'\n'Join me, together we can harness the powers given to you by the oracles.'\n'With the relics we may enter the Shadow Realm and retrieve the deed to the university\nfrom the spirit of Sir William McMaster.'\n'We can then overthrow the Quantum Order and shape the university to our liking and\nfinally Engineering Physics will reign supreme!'\n\nJust as Dr. Cassidy finishes speaking the ground begins to shake and you are blinded\nby a glow emanating from the statue of Sir William McMaster.\nYou recover from shielding your eyes and see the spirit of William McMaster\nemerging from a rift in fabric of spacetime!\n'Just wait, hero.'\n'I took your Iron Ring from you after you desecrated my statue last night for a reason'\n'I have known of Dr. Cassidy's intentions for some time and as you are the one\nthe prophecy has spoken of I knew he would jump at this opportunity to take my deed.'\n'I had to find a way to force him into playing his hand.'\n'Now the opportunity to rid Engineering Physics of this tyrannical Dark Lord has come!'\nDr. Cassidy quickly interjects.\n'You see, he only wants to restrict the power of our faculty!'\n'Destroy him and we shall finally rule the university!'"
p2369
sg3
(I175
I125
I200
tp2370
sg5
S'Dr. Cassidy'
p2371
sg1113
g1119
sg49
I01
sg1115
Nsg1116
I00
sg19
I125
sg20
g2287
sg1117
g1119
sg50
I00
sg1118
g1119
sg1120
S"Dr. Cassidy falls to the ground.\nThe spirit of Sir William McMaster approaches and puts his hand on your shoulder.\n'You have chosen wisely.'\n'Dr. Cassidy had been driven mad in his quest for ultimate power.'\n'You have ensured the safety of McMaster and remained true to your values.'\n'McMaster University is an institution meant to allow all facets of learning coexist in harmony.'\n'No faculty should rule over the rest.'\n'For your actions, I believe you are a worthy engineer.'\n'Here is your Iron Ring, continue to wear it with pride.'"
p2372
sbsa(dp2373
S'red book'
p2374
g1962
sS'workbench'
p2375
g1539
sS'rules sign'
p2376
g1671
sS'old car'
p2377
g1316
sS'red car'
p2378
g1304
sS'fridge'
p2379
g1473
sS'old painting'
p2380
g1784
sS'optical bench'
p2381
g1480
sS'garbage can'
p2382
g1664
sS'uneven earth'
p2383
g1924
sS'new car'
p2384
g1320
sS'mouse'
p2385
g1367
sS'coat of arms'
p2386
g1876
sS'rca tv'
p2387
g2196
sS'sharpxchange'
p2388
g1154
sS'tri-coloured glasses'
p2389
g2256
sS'mcmaster map'
p2390
g1395
sS'blue car'
p2391
g1309
sS'blue book'
p2392
g1958
sS'broken reactor'
p2393
g2025
sS'sun dial'
p2394
g1817
sS'box of old cds'
p2395
g1694
sS'old lamp'
p2396
g2097
sS'old journal'
p2397
g2233
sS'display case'
p2398
g1496
sS'ancient mirror'
p2399
g1942
sa(dp2400
S'knights get book'
p2401
I0
sS'minnick get oscilloscope'
p2402
I0
sS'secret spaces'
p2403
I1
sS'lapierre get coffee'
p2404
I0
sS'the dark lord'
p2405
I1
sS'get key to display case'
p2406
I0
sS'haugen kill soleymani'
p2407
I0
sS'kleimann get solar cell'
p2408
I0
sS'talk to mysterious man'
p2409
I0
sS'create chaos'
p2410
I1
sS'einstein fridge'
p2411
I0
sS'university man'
p2412
I1
sS'preston get dumbbell'
p2413
I1
sS'restored order'
p2414
I1
sS'end game start'
p2415
I1
sS'novog get donut'
p2416
I1
sS'dan fix reactor'
p2417
I1
sS'maxwell portal'
p2418
I0
sS'kitai get silicon substrate'
p2419
I0
sS'feynman mirror'
p2420
I1
sS'buijs kill chris'
p2421
I1
sa(lp2422
F0.27
aS'Alpha v0.27 - Dev Update'
p2423
aF1545854789.594
aI131
aI174
aa.