(lp0
(iGameClasses
Character
p1
(dp2
S'stats'
p3
(I866
I855
I900
tp4
sS'name'
p5
S'Tyler Kashak'
p6
sS'inv'
p7
(dp8
S'body'
p9
(iGameClasses
Equipment
p10
(dp11
S'info'
p12
S'The Shirt of the Hero of Kyvach!'
p13
sg3
(I10
I5
I5
tp14
sg5
S'Big Hits Shirt'
p15
sS'image'
p16
S'BigHits.jpg'
p17
sS'worn'
p18
g9
sS'health'
p19
S''
p20
sS'location'
p21
(lp22
I2
aI3
aI1
asbsS'head'
p23
(iGameClasses
Equipment
p24
(dp25
g12
S'Damn, you are now travelling waaaay to fast. Slow down dude!'
p26
sg3
(I1
I5
I35
tp27
sg5
S'Visor Glasses'
p28
sg16
S'FastGlasses.jpg'
p29
sg18
g23
sg19
g20
sg21
g22
sbsS'off-hand'
p30
(iGameClasses
Equipment
p31
(dp32
g12
S"The sacred glass flute providing righteous tokes since '69."
p33
sg3
(I420
I420
I420
tp34
sg5
S'Green Bang Bong'
p35
sg16
S'GBB.jpg'
p36
sg18
S'off-hand'
p37
sg19
g20
sg21
g22
sbsS'hand'
p38
(iGameClasses
Equipment
p39
(dp40
g12
S'These pack a serious punch...'
p41
sg3
(I15
I5
I20
tp42
sg5
S'Hulk Hands'
p43
sg16
S'HulkHands.jpg'
p44
sg18
g38
sg19
g20
sg21
g22
sbssS'emptyinv'
p45
(dp46
g9
(iGameClasses
Equipment
p47
(dp48
g12
S'Nothing is Equipped'
p49
sg3
(I0
I0
I0
tp50
sg5
S'EMPTY'
p51
sg16
S'EMPTY.png'
p52
sg18
g9
sg19
I-101
sg21
(lp53
I2
aI3
aI1
asbsg23
(iGameClasses
Equipment
p54
(dp55
g12
g49
sg3
(I0
I0
I0
tp56
sg5
g51
sg16
g52
sg18
g23
sg19
I-101
sg21
g53
sbsg30
(iGameClasses
Equipment
p57
(dp58
g12
g49
sg3
(I0
I0
I0
tp59
sg5
g51
sg16
g52
sg18
g30
sg19
I-101
sg21
g53
sbsg38
(iGameClasses
Equipment
p60
(dp61
g12
g49
sg3
(I0
I0
I0
tp62
sg5
g51
sg16
g52
sg18
g38
sg19
I-101
sg21
g53
sbssS'maxhealth'
p63
I999
sS'alive'
p64
I01
sS'basestats'
p65
(lp66
I420
aI420
aI420
asg19
I999
sg21
g22
sS'spoke'
p67
I00
sba(dp68
S'cheese'
p69
(iGameClasses
Equipment
p70
(dp71
g12
S'Not just cheddar, the smelly kind.'
p72
sg3
(I1
I1
I1
tp73
sg5
S'Cheese'
p74
sg16
S'Cheese.jpg'
p75
sg18
g37
sg19
I5
sg21
(I5
I7
I1
tp76
sbsS'delicious meal'
p77
(iGameClasses
Equipment
p78
(dp79
g12
S'A beautiful, home-cooked, meal.'
p80
sg3
(I1
I1
I1
tp81
sg5
S'Delicious Meal'
p82
sg16
S'Meal.jpg'
p83
sg18
g37
sg19
I25
sg21
(NNNtp84
sbsS'shovel'
p85
(iGameClasses
Equipment
p86
(dp87
g12
S'Call a spade a spade.'
p88
sg3
(I15
I0
I5
tp89
sg5
S'Shovel'
p90
sg16
S'Shovel.jpg'
p91
sg18
g38
sg19
g20
sg21
(I5
I0
I0
tp92
sbsS'bowling ball'
p93
(iGameClasses
Equipment
p94
(dp95
g12
S'Heavy.'
p96
sg3
(I20
I15
I-5
tp97
sg5
S'Bowling Ball'
p98
sg16
S'BowlingBall.jpg'
p99
sg18
g38
sg19
g20
sg21
g84
sbsS'led of power'
p100
(iGameClasses
Equipment
p101
(dp102
g12
S'An LED with the power output of a neutron star, ok maybe not.'
p103
sg3
(I21
I0
I20
tp104
sg5
S'LED of Power'
p105
sg16
S'LED.jpg'
p106
sg18
g38
sg19
g20
sg21
g84
sbsS'green bang bong'
p107
g31
sS'gas mask'
p108
(iGameClasses
Equipment
p109
(dp110
g12
S'No one cared who I was till I put on the mask.'
p111
sg3
(I3
I6
I5
tp112
sg5
S'Gas Mask'
p113
sg16
S'GasMask.jpg'
p114
sg18
g23
sg19
g20
sg21
(I3
I5
I1
tp115
sbsS'surgical mask'
p116
(iGameClasses
Equipment
p117
(dp118
g12
S"Don't touch me I'm sterile!"
p119
sg3
(I0
I2
I3
tp120
sg5
S'Surgical Mask'
p121
sg16
S'SurgicalMask.jpg'
p122
sg18
g23
sg19
g20
sg21
(I0
I1
I1
tp123
sbsS'tofu'
p124
(iGameClasses
Equipment
p125
(dp126
g12
S"Vegan's delight."
p127
sg3
(I1
I0
I5
tp128
sg5
S'Tofu'
p129
sg16
S'Carrot.jpg'
p130
sg18
g38
sg19
I2
sg21
(I5
I4
I0
tp131
sbsS'jar of horse radish'
p132
(iGameClasses
Equipment
p133
(dp134
g12
S'Apparently not an instrument...'
p135
sg3
(I2
I0
I4
tp136
sg5
S'Jar of Horse Radish'
p137
sg16
S'HRaddish.jpg'
p138
sg18
g37
sg19
I3
sg21
(I4
I5
I1
tp139
sbsS'gilded blunderbuss'
p140
(iGameClasses
Equipment
p141
(dp142
g12
S'A beautiful firearm with infinite ammo.'
p143
sg3
(I200
I5
I50
tp144
sg5
S'Gilded Blunderbuss'
p145
sg16
S'Blunderbuss.jpg'
p146
sg18
g38
sg19
g20
sg21
g84
sbsS'squash racket'
p147
(iGameClasses
Equipment
p148
(dp149
g12
S"Dr. Buijs' Racket? Voltage Divider!"
p150
sg3
(I5
I0
I8
tp151
sg5
S'Squash Racket'
p152
sg16
S'Racket.jpg'
p153
sg18
g38
sg19
g20
sg21
(I5
I0
I1
tp154
sbsS'tarzan vhs'
p155
(iGameClasses
Equipment
p156
(dp157
g12
S'If only I had a VCR...'
p158
sg3
(I0
I2
I6
tp159
sg5
S'Tarzan VHS'
p160
sg16
S'Tarzan.jpg'
p161
sg18
g37
sg19
I3
sg21
(I0
I2
I1
tp162
sbsS'bike helmet'
p163
(iGameClasses
Equipment
p164
(dp165
g12
S'One of those fast Tour de France ones.'
p166
sg3
(I0
I8
I10
tp167
sg5
S'Bike Helmet'
p168
sg16
S'BikeHelmet.jpg'
p169
sg18
g23
sg19
g20
sg21
(I3
I7
I1
tp170
sbsS'empty bottle'
p171
(iGameClasses
Equipment
p172
(dp173
g12
S'Dasani, more like Dishonest! Amirite?!'
p174
sg3
(I1
I0
I1
tp175
sg5
S'Empty Bottle'
p176
sg16
S'EmptyBottle.jpg'
p177
sg18
g38
sg19
g20
sg21
(I4
I1
I1
tp178
sbsS'hard hat'
p179
(iGameClasses
Equipment
p180
(dp181
g12
S"You don't really want to look like a Civil kid. But at least it protects your head."
p182
sg3
(I1
I10
I5
tp183
sg5
S'Hard Hat'
p184
sg16
S'HardHat.jpg'
p185
sg18
g23
sg19
g20
sg21
(I4
I2
I1
tp186
sbsS'priest gown'
p187
(iGameClasses
Equipment
p188
(dp189
g12
S'Wearing this gives people the impression you are a holy person...'
p190
sg3
(I1
I5
I3
tp191
sg5
S'Priest Gown'
p192
sg16
S'Gown.jpg'
p193
sg18
g9
sg19
g20
sg21
(I2
I0
I2
tp194
sbsS'used plunger'
p195
(iGameClasses
Equipment
p196
(dp197
g12
S'Used. Lovely...'
p198
sg3
(I10
I0
I10
tp199
sg5
S'Used Plunger'
p200
sg16
S'Plunger.jpg'
p201
sg18
g38
sg19
g20
sg21
g92
sbsS'dumbbell'
p202
(iGameClasses
Equipment
p203
(dp204
g12
S'The pump is the greatest feeling in the world.'
p205
sg3
(I5
I0
I2
tp206
sg5
S'Dumbbell'
p207
sg16
S'Dumbbell.jpg'
p208
sg18
g37
sg19
g20
sg21
(I1
I0
I1
tp209
sbsS'febreze'
p210
(iGameClasses
Equipment
p211
(dp212
g12
S'Kills 99.9% of odour at the source!'
p213
sg3
(I6
I0
I10
tp214
sg5
S'Febreze'
p215
sg16
S'Ferbreze.jpg'
p216
sg18
g38
sg19
I-4
sg21
g209
sbsS'msp430'
p217
(iGameClasses
Equipment
p218
(dp219
g12
S'A literal piece of garbage.'
p220
sg3
(I-5
I0
I-5
tp221
sg5
S'MSP430'
p222
sg16
S'MSP430.jpg'
p223
sg18
g38
sg19
I-5
sg21
(I2
I3
I1
tp224
sbsS'declaration of independence'
p225
(iGameClasses
Equipment
p226
(dp227
g12
S"I'm going to steal the Declaration of Independence..."
p228
sg3
(I1
I1
I1
tp229
sg5
S'Declaration of Independence'
p230
sg16
S'DOI.jpg'
p231
sg18
g37
sg19
g20
sg21
g84
sbsS'horrible assignment'
p232
(iGameClasses
Equipment
p233
(dp234
g12
S'A barely legible report on Fourier analysis.'
p235
sg3
(I3
I0
I0
tp236
sg5
S'Horrible Assignment'
p237
sg16
S'BadAss.jpg'
p238
sg18
g37
sg19
g20
sg21
g84
sbsS'pope hat'
p239
(iGameClasses
Equipment
p240
(dp241
g12
S'Does the Pope where a silly hat? Now you do.'
p242
sg3
(I0
I3
I2
tp243
sg5
S'Pope Hat'
p244
sg16
S'PopeHat.jpg'
p245
sg18
g23
sg19
g20
sg21
g194
sbsS'bottle opener'
p246
(iGameClasses
Equipment
p247
(dp248
g12
S'I wish I had a bottle of wine right about now...'
p249
sg3
(I0
I5
I15
tp250
sg5
S'Bottle Opener'
p251
sg16
S'BottleOpener.jpg'
p252
sg18
g37
sg19
g20
sg21
g170
sbsS'car keys'
p253
(iGameClasses
Equipment
p254
(dp255
g12
S"Volkswagen car keys with an 'R' on the keychain.\nHmm..."
p256
sg3
(I5
I0
I5
tp257
sg5
S'Car Keys'
p258
sg16
S'CarKeys.jpg'
p259
sg18
g37
sg19
g20
sg21
g186
sbsS"erik's frosted tips"
p260
(iGameClasses
Equipment
p261
(dp262
g12
S'Ever wanted to look rad as hell? Now you can!'
p263
sg3
(I0
I3
I20
tp264
sg5
S"Erik's Frosted Tips"
p265
sg16
S'FrostedTips.jpg'
p266
sg18
g23
sg19
g20
sg21
g84
sbsS'pedrotti cubed'
p267
(iGameClasses
Equipment
p268
(dp269
g12
S"'Property of Harold Haugen, one of the 3 Quantum Relics' is inscribed on the first page."
p270
sg3
(I50
I150
I250
tp271
sg5
S'Pedrotti Cubed'
p272
sg16
S'Pedrotti.jpg'
p273
sg18
g37
sg19
g20
sg21
g84
sbsS'puke'
p274
(iGameClasses
Equipment
p275
(dp276
g12
S'Ew, literally a pool of vomit'
p277
sg3
(I1
I0
I-10
tp278
sg5
S'Puke'
p279
sg16
S'Puke.jpg'
p280
sg18
g9
sg19
I-2
sg21
g84
sbsS'visor glasses'
p281
g24
sS'plastic bag'
p282
(iGameClasses
Equipment
p283
(dp284
g12
S'The audacity of some people to leave their filth around.'
p285
sg3
(I0
I1
I-10
tp286
sg5
S'Plastic Bag'
p287
sg16
S'PBag.jpg'
p288
sg18
g23
sg19
g20
sg21
(I2
I1
I1
tp289
sbsS'broken wine bottle'
p290
(iGameClasses
Equipment
p291
(dp292
g12
S'A broken wine bottle from 1996, good year.'
p293
sg3
(I10
I0
I5
tp294
sg5
S'Broken Wine Bottle'
p295
sg16
S'WineBottle.jpg'
p296
sg18
g38
sg19
g20
sg21
(I4
I3
I1
tp297
sbsS'jar of peanut butter'
p298
(iGameClasses
Equipment
p299
(dp300
g12
S'Death paste to those who are allergic... Could prove effective...'
p301
sg3
(I0
I5
I5
tp302
sg5
S'Jar of Peanut Butter'
p303
sg16
S'Peanut.jpg'
p304
sg18
g37
sg19
I5
sg21
(I4
I0
I1
tp305
sbsS'toilet seat'
p306
(iGameClasses
Equipment
p307
(dp308
g12
S'How do you even wear this?'
p309
sg3
(I0
I3
I2
tp310
sg5
S'Toilet Seat'
p311
sg16
S'Toilet.jpg'
p312
sg18
g9
sg19
g20
sg21
g92
sbsS'vh sauce'
p313
(iGameClasses
Equipment
p314
(dp315
g12
S'Sweet and sour. Nice.'
p316
sg3
(I1
I2
I1
tp317
sg5
S'VH Sauce'
p318
sg16
S'VHSauce.jpg'
p319
sg18
g37
sg19
I1
sg21
(I1
I4
I1
tp320
sbsS'banana'
p321
(iGameClasses
Equipment
p322
(dp323
g12
S'High in potassium.'
p324
sg3
(I5
I0
I5
tp325
sg5
S'Banana'
p326
sg16
S'Banana.jpg'
p327
sg18
g38
sg19
I2
sg21
(I1
I7
I1
tp328
sbsS'ice-cold pint'
p329
(iGameClasses
Equipment
p330
(dp331
g12
S'Ale of the Gods.'
p332
sg3
(I3
I0
I-5
tp333
sg5
S'Ice-Cold Pint'
p334
sg16
S'Pint.jpg'
p335
sg18
g37
sg19
I2
sg21
g297
sbsS'pencil'
p336
(iGameClasses
Equipment
p337
(dp338
g12
S'HB2. Sharpened.'
p339
sg3
(I2
I0
I5
tp340
sg5
S'Pencil'
p341
sg16
S'Pencil.jpg'
p342
sg18
g38
sg19
g20
sg21
(I2
I4
I1
tp343
sbsS'coffee'
p344
(iGameClasses
Equipment
p345
(dp346
g12
S'The fuel of thinkers.'
p347
sg3
(I3
I0
I9
tp348
sg5
S'Coffee'
p349
sg16
S'Coffee.jpg'
p350
sg18
g37
sg19
I1
sg21
g343
sbsS'capstone tools'
p351
(iGameClasses
Equipment
p352
(dp353
g12
S"Shouldn't the 4A06 students be using these?"
p354
sg3
(I1
I1
I1
tp355
sg5
S'Capstone Tools'
p356
sg16
S'CapTools.jpg'
p357
sg18
g37
sg19
g20
sg21
g84
sbsS'cold steel katana'
p358
(iGameClasses
Equipment
p359
(dp360
g12
S'This could probably kill a buffalo fish...'
p361
sg3
(I18
I5
I20
tp362
sg5
S'Cold Steel Katana'
p363
sg16
S'Katana.jpg'
p364
sg18
g38
sg19
g20
sg21
g84
sbsS'mop'
p365
(iGameClasses
Equipment
p366
(dp367
g12
S"I'm going to clean up this town."
p368
sg3
(I6
I0
I4
tp369
sg5
S'Mop'
p370
sg16
S'Mop.jpg'
p371
sg18
g38
sg19
g20
sg21
(I0
I0
I1
tp372
sbsS'swordfish'
p373
(iGameClasses
Equipment
p374
(dp375
g12
S"I'd better be careful eating this!"
p376
sg3
(I10
I5
I5
tp377
sg5
S'Swordfish'
p378
sg16
S'Swordfish.jpg'
p379
sg18
g37
sg19
I12
sg21
g84
sbsS'ancient incantation'
p380
(iGameClasses
Equipment
p381
(dp382
g12
S'An old tattered scroll with an incantation written in Latin.'
p383
sg3
(I1
I1
I1
tp384
sg5
S'Ancient Incantation'
p385
sg16
S'Incantation.jpg'
p386
sg18
g37
sg19
g20
sg21
g84
sbsS'meow mix'
p387
(iGameClasses
Equipment
p388
(dp389
g12
S'I love chicken, I love liver...'
p390
sg3
(I5
I0
I5
tp391
sg5
S'Meow Mix'
p392
sg16
S'MeowMix.jpg'
p393
sg18
g37
sg19
I1
sg21
g84
sbsS'gauss eye'
p394
(iGameClasses
Equipment
p395
(dp396
g12
S'You can feel the electromagnetic energy emanating from it, one of the 3 quantum relics'
p397
sg3
(I100
I100
I100
tp398
sg5
S'Gauss Eye'
p399
sg16
S'GaussEye.jpg'
p400
sg18
g23
sg19
g20
sg21
g84
sbsS'phone'
p401
(iGameClasses
Equipment
p402
(dp403
g12
S"This thing has been dropped Graham's number times."
p404
sg3
(I5
I6
I9
tp405
sg5
S'Phone'
p406
sg16
S'Phone.jpg'
p407
sg18
g37
sg19
g20
sg21
g84
sbsS'casio'
p408
(iGameClasses
Equipment
p409
(dp410
g12
S"This one can do integrals. That's illegal."
p411
sg3
(I1
I5
I10
tp412
sg5
S'Casio'
p413
sg16
S'Casio.jpg'
p414
sg18
g37
sg19
g20
sg21
(I2
I7
I1
tp415
sbsS'vomit'
p416
(iGameClasses
Equipment
p417
(dp418
g12
S'Literally spew.'
p419
sg3
(I0
I0
I1
tp420
sg5
S'Vomit'
p421
sg16
S'Vomit.jpg'
p422
sg18
g37
sg19
I-1
sg21
g84
sbsS'bleach squirt bottle'
p423
(iGameClasses
Equipment
p424
(dp425
g12
S"Probably wouldn't be nice to get sprayed with."
p426
sg3
(I15
I5
I20
tp427
sg5
S'Bleach Squirt Bottle'
p428
sg16
S'Bleach.jpg'
p429
sg18
g38
sg19
I-10
sg21
g84
sbsS'drumstick'
p430
(iGameClasses
Equipment
p431
(dp432
g12
S"'Property of E-Smooth'"
p433
sg3
(I0
I10
I15
tp434
sg5
S'Drumstick'
p435
sg16
S'Drumstick.jpg'
p436
sg18
g37
sg19
g20
sg21
(I5
I4
I2
tp437
sbsS"wendy's bag"
p438
(iGameClasses
Equipment
p439
(dp440
g12
S'Fully equipped with grease stains.'
p441
sg3
(I1
I0
I-5
tp442
sg5
S"Wendy's Bag"
p443
sg16
S'WendyBag.jpg'
p444
sg18
g23
sg19
g20
sg21
(I0
I6
I1
tp445
sbsS'empty bucket'
p446
(iGameClasses
Equipment
p447
(dp448
g12
S'The smell of cheap soap still lingers.'
p449
sg3
(I0
I10
I1
tp450
sg5
S'Empty Bucket'
p451
sg16
S'Bucket.jpg'
p452
sg18
g23
sg19
g20
sg21
g92
sbsS'old scroll'
p453
(iGameClasses
Equipment
p454
(dp455
g12
S"It reads:\n'A permanent title is too much to bear.'\n'My secret cache, is under there.'"
p456
sg3
(I0
I0
I0
tp457
sg5
S'Old Scroll'
p458
sg16
S'OldScroll.jpg'
p459
sg18
g37
sg19
g20
sg21
g84
sbsS'pid control system'
p460
(iGameClasses
Equipment
p461
(dp462
g12
S'A PID control system. Kp = 69, my dude.'
p463
sg3
(I45
I0
I10
tp464
sg5
S'PID control system'
p465
sg16
S'PID.jpg'
p466
sg18
g23
sg19
g20
sg21
g84
sbsS'voltage divider'
p467
(iGameClasses
Equipment
p468
(dp469
g12
S'It is a Voltage Divider!'
p470
sg3
(I20
I25
I20
tp471
sg5
S'Voltage Divider'
p472
sg16
S'VDivider.jpg'
p473
sg18
g37
sg19
g20
sg21
g84
sbsS'santa hat'
p474
(iGameClasses
Equipment
p475
(dp476
g12
S'Happy Holidays!'
p477
sg3
(I0
I3
I2
tp478
sg5
S'Santa Hat'
p479
sg16
S'SantaHat.jpg'
p480
sg18
g23
sg19
g20
sg21
g372
sbsS'banana wires'
p481
(iGameClasses
Equipment
p482
(dp483
g12
S'Alligator clips added for extra whippage.'
p484
sg3
(I8
I0
I8
tp485
sg5
S'Banana Wires'
p486
sg16
S'BanWires.jpg'
p487
sg18
g38
sg19
I3
sg21
(I3
I3
I1
tp488
sbsS'party hat'
p489
(iGameClasses
Equipment
p490
(dp491
g12
S'A nice hat from a cracker.'
p492
sg3
(I0
I5
I3
tp493
sg5
S'Party Hat'
p494
sg16
S'PartyHat.jpg'
p495
sg18
g23
sg19
g20
sg21
(I3
I6
I1
tp496
sbsS'potato'
p497
(iGameClasses
Equipment
p498
(dp499
g12
S'A most versatile vegetable.\nGood for breakfast, lunch, and dinner.'
p500
sg3
(I1
I1
I1
tp501
sg5
S'Potato'
p502
sg16
S'Potato.jpg'
p503
sg18
g37
sg19
I5
sg21
g84
sbsS'shampoo'
p504
(iGameClasses
Equipment
p505
(dp506
g12
S'Yeah, I could use a shower...'
p507
sg3
(I4
I0
I3
tp508
sg5
S'Shampoo'
p509
sg16
S'Shampoo.jpg'
p510
sg18
g37
sg19
g20
sg21
g372
sbsS'candlestick'
p511
(iGameClasses
Equipment
p512
(dp513
g12
S'Lumiere is up to no good.'
p514
sg3
(I7
I0
I5
tp515
sg5
S'Candlestick'
p516
sg16
S'Candlestick.jpg'
p517
sg18
g38
sg19
g20
sg21
(I4
I0
I0
tp518
sbsS'gamma glove'
p519
(iGameClasses
Equipment
p520
(dp521
g12
S'Shorter than it really is due to length contraction, one of the 3 Quantum Relics'
p522
sg3
(I250
I100
I20
tp523
sg5
S'Gamma Glove'
p524
sg16
S'GammaGauntlet.jpg'
p525
sg18
g38
sg19
g20
sg21
g84
sbsS'clean needle'
p526
(iGameClasses
Equipment
p527
(dp528
g12
S"No more spreadin' disease!"
p529
sg3
(I9
I0
I9
tp530
sg5
S'Clean Needle'
p531
sg16
S'CleanNeedle.jpg'
p532
sg18
g38
sg19
g20
sg21
g84
sbsS'laser safety glasses'
p533
(iGameClasses
Equipment
p534
(dp535
g12
S'Protection from the UV, my dude.'
p536
sg3
(I0
I3
I5
tp537
sg5
S'Laser Safety Glasses'
p538
sg16
S'LSGlasses.jpg'
p539
sg18
g23
sg19
g20
sg21
(I1
I6
I0
tp540
sbsS'goggles'
p541
(iGameClasses
Equipment
p542
(dp543
g12
S'Got PPE?'
p544
sg3
(I2
I0
I2
tp545
sg5
S'Goggles'
p546
sg16
S'Goggles.jpg'
p547
sg18
g23
sg19
g20
sg21
(I3
I2
I1
tp548
sbsS'priceless painting'
p549
(iGameClasses
Equipment
p550
(dp551
g12
S'This painting is supposed to be worth millions...'
p552
sg3
(I1
I10
I5
tp553
sg5
S'Priceless Painting'
p554
sg16
S'Painting.jpg'
p555
sg18
g37
sg19
g20
sg21
(I3
I0
I1
tp556
sbsS'paint brush'
p557
(iGameClasses
Equipment
p558
(dp559
g12
S'You can feel the emotions of a failed arts student coursing through this thing.'
p560
sg3
(I5
I0
I5
tp561
sg5
S'Paint Brush'
p562
sg16
S'Brush.jpg'
p563
sg18
g37
sg19
g20
sg21
(I3
I1
I1
tp564
sbsS'old candle'
p565
(iGameClasses
Equipment
p566
(dp567
g12
S"Seems like it's had some use."
p568
sg3
(I0
I2
I2
tp569
sg5
S'Old Candle'
p570
sg16
S'OldCandle.jpg'
p571
sg18
g37
sg19
g20
sg21
(I2
I0
I0
tp572
sbsS"haugen's clothes"
p573
(iGameClasses
Equipment
p574
(dp575
g12
S'OH My. The clothes of the gentle dolphin now gone.\nFeels kinda wet.'
p576
sg3
(I5
I10
I10
tp577
sg5
S"Haugen's Clothes"
p578
sg16
S'HaugenShirt.jpg'
p579
sg18
g9
sg19
I10
sg21
g84
sbsS'3w textbook'
p580
(iGameClasses
Equipment
p581
(dp582
g12
S'Text book that probably has useful information if you could read it. Too bad it has never been in the QT'
p583
sg3
(I5
I5
I10
tp584
sg5
S'3W Textbook'
p585
sg16
S'3WText.jpg'
p586
sg18
g37
sg19
g20
sg21
g84
sbsS'fireball hat'
p587
(iGameClasses
Equipment
p588
(dp589
g12
S"Kind of like the hat you bought in first year and thought you'd wear forever..."
p590
sg3
(I0
I3
I1
tp591
sg5
S'Fireball Hat'
p592
sg16
S'EngHat.jpg'
p593
sg18
g23
sg19
g20
sg21
(I2
I2
I1
tp594
sbsS'raybans'
p595
(iGameClasses
Equipment
p596
(dp597
g12
S'GQ Teen says Raybans, Board Shorts, Vans, and a Muscle Tee.'
p598
sg3
(I0
I1
I3
tp599
sg5
S'Raybans'
p600
sg16
S'Raybans.jpg'
p601
sg18
g23
sg19
g20
sg21
(I5
I5
I1
tp602
sbsS'pee bottle'
p603
(iGameClasses
Equipment
p604
(dp605
g12
S'It is literally a bottle of urine.'
p606
sg3
(I4
I0
I0
tp607
sg5
S'Pee Bottle'
p608
sg16
S'PeeBottle.jpg'
p609
sg18
g38
sg19
g20
sg21
g289
sbsS'huge shirt'
p610
(iGameClasses
Equipment
p611
(dp612
g12
S'This shirt is WAY too big'
p613
sg3
(I0
I5
I5
tp614
sg5
S'Huge Shirt'
p615
sg16
S'HugeShirt.jpg'
p616
sg18
g9
sg19
g20
sg21
g84
sbsS'joint of destiny'
p617
(iGameClasses
Equipment
p618
(dp619
g12
S"A tighly rolled spliff filled with Devil's lettuce... for real."
p620
sg3
(I420
I420
I420
tp621
sg5
S'Joint of Destiny'
p622
sg16
S'Joint.jpg'
p623
sg18
g37
sg19
g20
sg21
g84
sbsS'tony hawk shirt'
p624
(iGameClasses
Equipment
p625
(dp626
g12
S'A shirt personally made by tony hawk!'
p627
sg3
(I5
I5
I5
tp628
sg5
S'Tony Hawk Shirt'
p629
sg16
S'TonyHAwkShirt.jpg'
p630
sg18
g9
sg19
g20
sg21
g115
sbsS"phil's braces"
p631
(iGameClasses
Equipment
p632
(dp633
g12
S'Bark AND the bite.'
p634
sg3
(I3
I2
I1
tp635
sg5
S"Phil's Braces"
p636
sg16
S'PhilBraces.jpg'
p637
sg18
g23
sg19
g20
sg21
(I2
I5
I0
tp638
sbsS"kenrick's oscilloscope"
p639
(iGameClasses
Equipment
p640
(dp641
g12
S'The window into the electronics world...'
p642
sg3
(I0
I150
I50
tp643
sg5
S"Kenrick's Oscilloscope"
p644
sg16
S'Oscilloscope.jpg'
p645
sg18
g37
sg19
g20
sg21
g84
sbsS'femtosecond laser'
p646
(iGameClasses
Equipment
p647
(dp648
g12
S"Haugen's personal femtosecond laser."
p649
sg3
(I125
I0
I999
tp650
sg5
S'Femtosecond Laser'
p651
sg16
S'Laser.jpg'
p652
sg18
g38
sg19
g20
sg21
g84
sbsS'cricket'
p653
(iGameClasses
Equipment
p654
(dp655
g12
S'Makes the sound commonly heard at 2W lectures.'
p656
sg3
(I1
I1
I1
tp657
sg5
S'Cricket'
p658
sg16
S'Cricket.jpg'
p659
sg18
g37
sg19
I3
sg21
(I3
I3
I2
tp660
sbsS'flux capacitor'
p661
(iGameClasses
Equipment
p662
(dp663
g12
S'If only I could go back to 1985...'
p664
sg3
(I1
I1
I1
tp665
sg5
S'Flux Capacitor'
p666
sg16
S'FluxCapacitor.jpg'
p667
sg18
g38
sg19
g20
sg21
g84
sbsS'okons chainmail'
p668
(iGameClasses
Equipment
p669
(dp670
g12
S'The sacred chainmail forged by the legend himself'
p671
sg3
(I25
I50
I25
tp672
sg5
S'Okons Chainmail'
p673
sg16
S'OkonMail.jpg'
p674
sg18
g9
sg19
g20
sg21
(I0
I2
I0
tp675
sbsS'hazmat suit'
p676
(iGameClasses
Equipment
p677
(dp678
g12
S'Protection from all sorts of McCrindle farts...'
p679
sg3
(I0
I10
I5
tp680
sg5
S'Hazmat Suit'
p681
sg16
S'Hazmat.jpg'
p682
sg18
g9
sg19
g20
sg21
(I2
I5
I1
tp683
sbsS'pizza box'
p684
(iGameClasses
Equipment
p685
(dp686
g12
S'Fully equipped with crusted cheese.'
p687
sg3
(I1
I5
I1
tp688
sg5
S'Pizza Box'
p689
sg16
S'PizzaBox.jpg'
p690
sg18
g9
sg19
g20
sg21
(I0
I3
I1
tp691
sbsS'tire iron'
p692
(iGameClasses
Equipment
p693
(dp694
g12
S'Is this even a real tool? Or just a murder weapon...'
p695
sg3
(I11
I0
I3
tp696
sg5
S'Tire Iron'
p697
sg16
S'TireIron.jpg'
p698
sg18
g38
sg19
g20
sg21
g76
sbsS'ukelele'
p699
(iGameClasses
Equipment
p700
(dp701
g12
S'Wasting away again in Margaritaville...'
p702
sg3
(I6
I0
I5
tp703
sg5
S'Ukelele'
p704
sg16
S'Ukelele.jpg'
p705
sg18
g38
sg19
g20
sg21
(I4
I4
I1
tp706
sbsS'fanny pack'
p707
(iGameClasses
Equipment
p708
(dp709
g12
S'Made for style. Not for carrying.'
p710
sg3
(I3
I8
I15
tp711
sg5
S'Fanny Pack'
p712
sg16
S'FannyPack.jpg'
p713
sg18
g9
sg19
g20
sg21
g84
sbsS"einstein's brain"
p714
(iGameClasses
Equipment
p715
(dp716
g12
S"Feel's kind of weird walking around with this..."
p717
sg3
(I1
I1
I1
tp718
sg5
S"Einstein's Brain"
p719
sg16
S'Brain.jpg'
p720
sg18
g37
sg19
I10
sg21
g84
sbsS'lenovo laptop'
p721
(iGameClasses
Equipment
p722
(dp723
g12
S'This heap of computing majesty could block bullets... I think...'
p724
sg3
(I5
I15
I-5
tp725
sg5
S'Lenovo Laptop'
p726
sg16
S'Lenovo.jpg'
p727
sg18
g37
sg19
g20
sg21
(I1
I5
I2
tp728
sbsS"brendan fallon's lunchbox"
p729
(iGameClasses
Equipment
p730
(dp731
g12
S'The Lunch Box of an Ancient Hero. Full of samosas'
p732
sg3
(I5
I10
I5
tp733
sg5
S"Brendan Fallon's Lunchbox"
p734
sg16
S'Lunchbox.jpg'
p735
sg18
g37
sg19
g20
sg21
(I3
I3
I0
tp736
sbsS'ambifacient lunar waneshaft'
p737
(iGameClasses
Equipment
p738
(dp739
g12
S'The design consists simply of six hydrocoptic marzlevanes,\nthey fit to the ambifacient lunar waneshaft so that side fumbling is effectively prevented'
p740
sg3
(I1
I1
I1
tp741
sg5
S'Ambifacient Lunar Waneshaft'
p742
sg16
S'Dumbness.jpg'
p743
sg18
g37
sg19
g20
sg21
g84
sbsS'eng phys pen'
p744
(iGameClasses
Equipment
p745
(dp746
g12
S'It would be amazing if this thing actually worked. Plug it in and find all of 2P04.'
p747
sg3
(I5
I0
I5
tp748
sg5
S'Eng Phys Pen'
p749
sg16
S'PhysPen.jpg'
p750
sg18
g38
sg19
g20
sg21
g84
sbsS'space pop'
p751
(iGameClasses
Equipment
p752
(dp753
g12
S'Get ready to go to space pop city.'
p754
sg3
(I4
I0
I10
tp755
sg5
S'Space Pop'
p756
sg16
S'SpacePop.jgp'
p757
sg18
g38
sg19
I1
sg21
(I1
I7
I2
tp758
sbsS'hockey pads'
p759
(iGameClasses
Equipment
p760
(dp761
g12
S"IM NOT WEARIN' HOCKEY PADS!"
p762
sg3
(I3
I13
I5
tp763
sg5
S'Hockey Pads'
p764
sg16
S'HockeyPads.jpg'
p765
sg18
g9
sg19
g20
sg21
g76
sbsS'old ladder'
p766
(iGameClasses
Equipment
p767
(dp768
g12
S'Pretty rickety but would work for climbing.'
p769
sg3
(I14
I8
I-15
tp770
sg5
S'Old Ladder'
p771
sg16
S'OldLadder.jpg'
p772
sg18
g37
sg19
g20
sg21
(I0
I7
I1
tp773
sbsS'pink donut'
p774
(iGameClasses
Equipment
p775
(dp776
g12
S'This is what fusion is all about?'
p777
sg3
(I1
I1
I1
tp778
sg5
S'Pink Donut'
p779
sg16
S'PinkDonut.jpg'
p780
sg18
g37
sg19
I2
sg21
g84
sbsS'relativistic key'
p781
(iGameClasses
Equipment
p782
(dp783
g12
S'You can feel the power radiating from this thing.'
p784
sg3
(I1
I1
I1
tp785
sg5
S'Relativistic Key'
p786
sg16
S'Relativistickey.jpg'
p787
sg18
g38
sg19
g20
sg21
g84
sbsS'stylish watch'
p788
(iGameClasses
Equipment
p789
(dp790
g12
S'If only you learned how to tell time on an analog clock...'
p791
sg3
(I0
I15
I20
tp792
sg5
S'Stylish Watch'
p793
sg16
S'watch.jpg'
p794
sg18
g37
sg19
g20
sg21
g84
sbsS'solar ray'
p795
(iGameClasses
Equipment
p796
(dp797
g12
S'The literal power of the Sun!'
p798
sg3
(I100
I20
I50
tp799
sg5
S'Solar Ray'
p800
sg16
S'SolarRay.jpg'
p801
sg18
g38
sg19
g20
sg21
g84
sbsS'starbucks apron'
p802
(iGameClasses
Equipment
p803
(dp804
g12
S'If you put this on do you immediately know how to make a frappe?'
p805
sg3
(I1
I5
I5
tp806
sg5
S'Starbucks Apron'
p807
sg16
S'Apron.jpg'
p808
sg18
g9
sg19
g20
sg21
g154
sbsS'maroon jumpsuit'
p809
(iGameClasses
Equipment
p810
(dp811
g12
S'Overalls of the Maroons'
p812
sg3
(I1
I8
I5
tp813
sg5
S'Maroon Jumpsuit'
p814
sg16
S'MaroonSuit.jpg'
p815
sg18
g9
sg19
g20
sg21
(I5
I1
I1
tp816
sbsS'needa pita'
p817
(iGameClasses
Equipment
p818
(dp819
g12
S'Better have gotten black olives on that'
p820
sg3
(I2
I0
I1
tp821
sg5
S'Needa Pita'
p822
sg16
S'Pita.jpg'
p823
sg18
g38
sg19
I5
sg21
(I4
I6
I1
tp824
sbsS'lamp'
p825
(iGameClasses
Equipment
p826
(dp827
g12
S'I love lamp.'
p828
sg3
(I8
I0
I4
tp829
sg5
S'Lamp'
p830
sg16
S'Lamp.jpg'
p831
sg18
g38
sg19
g20
sg21
(I0
I5
I1
tp832
sbsS'redsuit'
p833
(iGameClasses
Equipment
p834
(dp835
g12
S'Overalls of drunks... I mean engineers'
p836
sg3
(I5
I5
I5
tp837
sg5
S'Redsuit'
p838
sg16
S'Redsuit.jpg'
p839
sg18
g9
sg19
g20
sg21
(I2
I4
I2
tp840
sbsS'cold beer'
p841
(iGameClasses
Equipment
p842
(dp843
g12
S'A freshly brewed pint from Andy Knights himself.'
p844
sg3
(I15
I0
I20
tp845
sg5
S'Cold Beer'
p846
sg16
S'ColdBeer.jpg'
p847
sg18
g37
sg19
I2
sg21
g84
sbsS'eng phys shirt'
p848
(iGameClasses
Equipment
p849
(dp850
g12
S'Rolling Rock baby! Premium Stream my ass... More like premium pain...'
p851
sg3
(I0
I7
I5
tp852
sg5
S'Eng Phys Shirt'
p853
sg16
S'EngPhysShirt.jpg'
p854
sg18
g9
sg19
g20
sg21
g736
sbsS'pvc pipe'
p855
(iGameClasses
Equipment
p856
(dp857
g12
S'Probably part of a PID project...'
p858
sg3
(I9
I2
I10
tp859
sg5
S'PVC Pipe'
p860
sg16
S'PVCPipe.jpg'
p861
sg18
g38
sg19
g20
sg21
(I4
I7
I1
tp862
sbsS'couch cushion'
p863
(iGameClasses
Equipment
p864
(dp865
g12
S'I hope I find I pillow fight.'
p866
sg3
(I4
I10
I1
tp867
sg5
S'Couch Cushion'
p868
sg16
S'CCushion.jpg'
p869
sg18
g37
sg19
g20
sg21
g328
sbsS'fake gun'
p870
(iGameClasses
Equipment
p871
(dp872
g12
S'Is this seriously what at the MAC cops carry...'
p873
sg3
(I5
I0
I5
tp874
sg5
S'Fake Gun'
p875
sg16
S'FakeGun.jpg'
p876
sg18
g38
sg19
g20
sg21
g84
sbsS'iron ring'
p877
(iGameClasses
Equipment
p878
(dp879
g12
S'The One Ring to Rule them ALL.'
p880
sg3
(I1000
I1000
I1000
tp881
sg5
S'Iron Ring'
p882
sg16
S'IronRing.jpg'
p883
sg18
g38
sg19
I-1000
sg21
g488
sbsS"minnick's glasses"
p884
(iGameClasses
Equipment
p885
(dp886
g12
S'The spectacles of a wizard from the High Order of the Ancient Council.'
p887
sg3
(I100
I100
I100
tp888
sg5
S"Minnick's Glasses"
p889
sg16
S'MinnickGlasses.jpg'
p890
sg18
g23
sg19
g20
sg21
g84
sbsS'frisbee'
p891
(iGameClasses
Equipment
p892
(dp893
g12
S'Look at the flick of the wrist!'
p894
sg3
(I3
I0
I5
tp895
sg5
S'Frisbee'
p896
sg16
S'Frisbee.jpg'
p897
sg18
g38
sg19
g20
sg21
g594
sbsS'butter knife'
p898
(iGameClasses
Equipment
p899
(dp900
g12
S'Meant for spreading, not stabbing...'
p901
sg3
(I4
I0
I5
tp902
sg5
S'Butter Knife'
p903
sg16
S'ButterKnife.jpg'
p904
sg18
g38
sg19
g20
sg21
g824
sbsS'guitar'
p905
(iGameClasses
Equipment
p906
(dp907
g12
S'Monster Mash.'
p908
sg3
(I10
I3
I5
tp909
sg5
S'Guitar'
p910
sg16
S'Guitar.jpg'
p911
sg18
g38
sg19
g20
sg21
g84
sbsS'old headphones'
p912
(iGameClasses
Equipment
p913
(dp914
g12
S'Old frayed apple headphones. Good for whipping.'
p915
sg3
(I5
I0
I5
tp916
sg5
S'Old Headphones'
p917
sg16
S'OldHeadphones.jpg'
p918
sg18
g38
sg19
g20
sg21
(I1
I5
I1
tp919
sbsS'old car keys'
p920
(iGameClasses
Equipment
p921
(dp922
g12
S'Fun for babies. Not for Batman.'
p923
sg3
(I7
I0
I15
tp924
sg5
S'Old Car Keys'
p925
sg16
g259
sg18
g38
sg19
g20
sg21
g445
sbsS'hulk hands'
p926
g39
sS'adderall'
p927
(iGameClasses
Equipment
p928
(dp929
g12
S'Speed up, my dude!'
p930
sg3
(I0
I0
I50
tp931
sg5
S'Adderall'
p932
sg16
S'Adderall.jpg'
p933
sg18
g37
sg19
I2
sg21
(I5
I3
I1
tp934
sbsS'goldfish'
p935
(iGameClasses
Equipment
p936
(dp937
g12
S'Fun fact, not made of real gold.'
p938
sg3
(I1
I1
I1
tp939
sg5
S'Goldfish'
p940
sg16
S'Goldfish.jpg'
p941
sg18
g37
sg19
I4
sg21
g194
sbsS"frank's red hot"
p942
(iGameClasses
Equipment
p943
(dp944
g12
S'I put that...'
p945
sg3
(I3
I0
I2
tp946
sg5
S"Frank's Red Hot"
p947
sg16
S'FranksRed.jpg'
p948
sg18
g37
sg19
I1
sg21
(I0
I4
I1
tp949
sbsS'silicon substrate'
p950
(iGameClasses
Equipment
p951
(dp952
g12
S'A bulk silicon wafer.'
p953
sg3
(I1
I1
I1
tp954
sg5
S'Silicon Substrate'
p955
sg16
S'Substrate.jpg'
p956
sg18
g37
sg19
g20
sg21
(I0
I3
I2
tp957
sbsS"faraday's cage"
p958
(iGameClasses
Equipment
p959
(dp960
g12
S'Faraday cage.'
p961
sg3
(I20
I75
I15
tp962
sg5
S"Faraday's Cage"
p963
sg16
S'Faraday.jpg'
p964
sg18
g23
sg19
g20
sg21
g84
sbsS'rusty key'
p965
(iGameClasses
Equipment
p966
(dp967
g12
S"You can just about read:\n'By the building where the smallest are seen.'\n'This key will provide for those who are keen'"
p968
sg3
(I1
I1
I1
tp969
sg5
S'Rusty Key'
p970
sg16
S'RustyKey.jpg'
p971
sg18
g37
sg19
g20
sg21
g84
sbsS'wood shield'
p972
(iGameClasses
Equipment
p973
(dp974
g12
S'An old wooden shield used in a play, you think...'
p975
sg3
(I5
I20
I-5
tp976
sg5
S'Wood Shield'
p977
sg16
S'Shield.jpg'
p978
sg18
g37
sg19
g20
sg21
g437
sbsS'paper towels'
p979
(iGameClasses
Equipment
p980
(dp981
g12
S"WHERE'S THE PAPER TOWELS?"
p982
sg3
(I2
I0
I1
tp983
sg5
S'Paper Towels'
p984
sg16
S'PaperTowels.jpg'
p985
sg18
g37
sg19
g20
sg21
(I0
I5
I2
tp986
sbsS'engineering mug'
p987
(iGameClasses
Equipment
p988
(dp989
g12
S'Do people even have these anymore?'
p990
sg3
(I1
I0
I2
tp991
sg5
S'Engineering Mug'
p992
sg16
S'EngMug.jpg'
p993
sg18
g38
sg19
g20
sg21
g84
sbsS'blazer'
p994
(iGameClasses
Equipment
p995
(dp996
g12
S'Styyyyyylishhhhhh'
p997
sg3
(I0
I4
I1
tp998
sg5
S'Blazer'
p999
sg16
S'Blazer.jpg'
p1000
sg18
g9
sg19
g20
sg21
(I5
I6
I1
tp1001
sbsS'high vis vest'
p1002
(iGameClasses
Equipment
p1003
(dp1004
g12
S'Safety first, folks.'
p1005
sg3
(I0
I5
I3
tp1006
sg5
S'High Vis Vest'
p1007
sg16
S'HighVis.jpg'
p1008
sg18
g9
sg19
g20
sg21
(I2
I6
I1
tp1009
sbsS'big hits shirt'
p1010
g10
sS'jar of mayo'
p1011
(iGameClasses
Equipment
p1012
(dp1013
g12
S'Is mayonaise an instrument?'
p1014
sg3
(I3
I0
I5
tp1015
sg5
S'Jar of Mayo'
p1016
sg16
S'Mayo.jpg'
p1017
sg18
g37
sg19
I1
sg21
g162
sbsS'holy bible'
p1018
(iGameClasses
Equipment
p1019
(dp1020
g12
S'King James version...'
p1021
sg3
(I3
I0
I3
tp1022
sg5
S'Holy Bible'
p1023
sg16
S'Bible.jpg'
p1024
sg18
g37
sg19
g20
sg21
(I2
I0
I1
tp1025
sbsS'griffiths electrodynamics'
p1026
(iGameClasses
Equipment
p1027
(dp1028
g12
S'The holy scriptures which govern the fabric of our being'
p1029
sg3
(I0
I10
I5
tp1030
sg5
S'Griffiths Electrodynamics'
p1031
sg16
S'Griffiths.jpg'
p1032
sg18
g37
sg19
g20
sg21
g840
sbsS'skateboard'
p1033
(iGameClasses
Equipment
p1034
(dp1035
g12
S'Cowabunga, dude.'
p1036
sg3
(I9
I0
I10
tp1037
sg5
S'Skateboard'
p1038
sg16
S'Skateboard.jpg'
p1039
sg18
g38
sg19
g20
sg21
(I0
I0
I0
tp1040
sbsS'diary of the fallen'
p1041
(iGameClasses
Equipment
p1042
(dp1043
g12
S'The personal notes of an ancient Hero.'
p1044
sg3
(I25
I20
I30
tp1045
sg5
S'Diary of the Fallen'
p1046
sg16
S'Diary.jpg'
p1047
sg18
g37
sg19
g20
sg21
g675
sbsS'green lantern shirt'
p1048
(iGameClasses
Equipment
p1049
(dp1050
g12
S'Darkest day... Darkest night...'
p1051
sg3
(I15
I15
I10
tp1052
sg5
S'Green Lantern Shirt'
p1053
sg16
S'GLShirt.jpg'
p1054
sg18
g9
sg19
g20
sg21
g84
sbsS'dirty needle'
p1055
(iGameClasses
Equipment
p1056
(dp1057
g12
S"This isn't clean. Someone find me a SharpXchange!"
p1058
sg3
(I7
I0
I5
tp1059
sg5
S'Dirty Needle'
p1060
sg16
S'Needle.jpg'
p1061
sg18
g38
sg19
g20
sg21
g949
sbsS'willy dog'
p1062
(iGameClasses
Equipment
p1063
(dp1064
g12
S'Definitely not vegan'
p1065
sg3
(I1
I0
I2
tp1066
sg5
S'Willy Dog'
p1067
sg16
S'Hotdog.jpg'
p1068
sg18
g38
sg19
I5
sg21
g178
sbsS'crucifix'
p1069
(iGameClasses
Equipment
p1070
(dp1071
g12
S'The Power of Chirst compels you!'
p1072
sg3
(I10
I0
I10
tp1073
sg5
S'Crucifix'
p1074
sg16
S'Crucifix.jpg'
p1075
sg18
g38
sg19
g20
sg21
g84
sbsS'wrench'
p1076
(iGameClasses
Equipment
p1077
(dp1078
g12
S"It's a wrench. 22mm."
p1079
sg3
(I9
I0
I2
tp1080
sg5
S'Wrench'
p1081
sg16
S'Wrench.jpg'
p1082
sg18
g38
sg19
g20
sg21
(I1
I3
I1
tp1083
sbsS'wool sweater'
p1084
(iGameClasses
Equipment
p1085
(dp1086
g12
S'Just like grandma makes.'
p1087
sg3
(I1
I4
I6
tp1088
sg5
S'Wool Sweater'
p1089
sg16
S'WoolSweater.jpg'
p1090
sg18
g9
sg19
g20
sg21
g934
sbsS'solar cell'
p1091
(iGameClasses
Equipment
p1092
(dp1093
g12
S"Harness the power of the Sun!\nI really hope I don't drop this..."
p1094
sg3
(I1
I1
I1
tp1095
sg5
S'Solar Cell'
p1096
sg16
S'SolarCell.jpg'
p1097
sg18
g37
sg19
g20
sg21
g84
sbsa((lp1098
(lp1099
(iGameClasses
Map
p1100
(dp1101
g12
S'PARKING GARAGE:\nYou can only go back up to the Hospital.'
p1102
sS'ENEMY'
p1103
(lp1104
(iGameClasses
Enemy
p1105
(dp1106
g12
S"'Check out this tre flip, pretty tight eh?'"
p1107
sg3
(I15
I15
I40
tp1108
sg5
S'Erik the Sk8r'
p1109
sS'drop'
p1110
S"erik's frosted tips"
p1111
sg64
I01
sS'item'
p1112
NsS'quest'
p1113
I00
sg19
I20
sg21
g1040
sS'need'
p1114
Nsg67
I00
sS'Sinfo'
p1115
g20
sS'Dinfo'
p1116
S"Man, that's dumb!"
p1117
sbasg5
S'Parking Garage'
p1118
sS'items'
p1119
(lp1120
g1034
asS'interact'
p1121
(lp1122
sS'walls'
p1123
(S'f'
p1124
S'b'
p1125
S'l'
p1126
S'r'
p1127
S'd'
p1128
tp1129
sS'coords'
p1130
g1040
sS'lore'
p1131
S'The smooth floor down here makes an excellent skate surface.\nRad.\nIf only you learned how to kickflip.'
p1132
sS'travelled'
p1133
I1
sba(iGameClasses
Map
p1134
(dp1135
g12
S'HOSPITAL EAST WING:\nIn front of you is the West Wing. MDCL is to your right.\nThe Parking Garage is below you.'
p1136
sg1103
(lp1137
sg5
S'East Hospital'
p1138
sg1119
(lp1139
g475
ag366
ag505
asg1121
(lp1140
sg1123
(g1126
g1125
tp1141
sg1130
g372
sg1131
S'You smile as you overhear a conversation between a doctor and a family.\nTurns out their child is going to make a full recovery.\nThanks science.'
p1142
sg1133
I1
sbaNaNaa(lp1143
Na(iGameClasses
Map
p1144
(dp1145
g12
S'HOSPITAL WEST WING:\nIn front of your is T-13. To your right is the Health Sci Library.\nThe East Wing of the Hospital is behind you.\nYou can go upstairs.'
p1146
sg1103
(lp1147
sg5
S'West Hospital'
p1148
sg1119
(lp1149
g117
a(iGameClasses
Interact
p1150
(dp1151
g12
S'Would you like to exchange a needle?'
p1152
sg5
S'SharpXChange'
p1153
sg1110
S'clean needle'
p1154
sg1113
I00
sg21
g123
sg1114
S'dirty needle'
p1155
sg1115
S'Needle Accepted!'
p1156
sbasg1121
(lp1157
sg1123
g1126
sg1130
g123
sg1131
S"Doctors and Nurses rush around you.\nYou remember why you didn't want to become a doctor as you\nnearly faint looking at a patient's paper cut in the waiting room.\nAfter a drink from the water fountain you plan what to do."
p1158
sg1133
I1
sba(iGameClasses
Map
p1159
(dp1160
g12
S'2ND FLOOR W WING:\nYou can only go back down the stairs.'
p1161
sg1103
(lp1162
(iGameClasses
Enemy
p1163
(dp1164
g12
S"'Are you interested in a research position?'"
p1165
sg3
(I100
I100
I100
tp1166
sg5
S'Dr. Soleymani'
p1167
sg1110
S"einstein's brain"
p1168
sg64
I01
sg1112
Nsg1113
I00
sg19
I75
sg21
(I0
I1
I2
tp1169
sg1114
Nsg67
I00
sg1115
g20
sg1116
S'NOOO! The Dark Lord will never forgive me!'
p1170
sbasg5
S'2nd Floor W Wing'
p1171
sg1119
(lp1172
sg1121
(lp1173
sg1123
(g1124
g1125
g1126
g1127
S'u'
p1174
tp1175
sg1130
g1169
sg1131
S"The endless number of rooms are mesmerizing.\nYou don't even know which way to go.\nAfter being lost for 2 hours you circle back to where you entered."
p1176
sg1133
I1
sbaNaa(lp1177
(iGameClasses
Map
p1178
(dp1179
g12
S'SECRET ROOM!:\nGo up to climb out.'
p1180
sg1103
(lp1181
sg5
S'Secret Trapdoor!'
p1182
sg1119
(lp1183
g669
ag1042
asg1121
(lp1184
sg1123
(g1124
g1125
g1126
g1127
g1128
tp1185
sg1130
g675
sg1131
S'You uncover a trapdoor after pulling up a loose floor tile.\nUpon descending you see stacks of failed midterms and assorted books all around you.\nA suit of armor and a chainmail flag with a skull on it are barely visible.\nWho made this place anyway?'
p1186
sg1133
I1
sba(iGameClasses
Map
p1187
(dp1188
g12
S'T-13:\nETB is in front of you. The McMaster Map is to your right.\nThe West Wing of the Hospital is behind you.'
p1189
sg1103
(lp1190
sg5
S'T-13'
p1191
sg1119
(lp1192
g1012
ag156
asg1121
(lp1193
sg1123
(lp1194
g1126
ag1128
asg1130
g162
sg1131
S"How many bad invigilators does it take to screw in a light bulb?\nI'm not sure but they took my damn Casio FX-911+C..."
p1195
sg1133
I1
sbaNaNaa(lp1196
(iGameClasses
Map
p1197
(dp1198
g12
S'ETB BASEMENT:\nYou can only go back up to the main floor.'
p1199
sg1103
(lp1200
sg5
S'ETB Basement'
p1201
sg1119
(lp1202
g39
asg1121
(lp1203
sg1123
(g1124
g1125
g1126
g1127
g1128
tp1204
sg1130
(I0
I3
I0
tp1205
sg1131
S'After getting lost in a maze of corridors and locked rooms you stumble\nacross a door that is slightly ajar.\nYou open the door to reveal a rather small dark room.\nYou flick on the light switch.'
p1206
sg1133
I1
sba(iGameClasses
Map
p1207
(dp1208
g12
S'ETB:\nTo your right is the Hatch Building. An alleyway is in front of you.\nT-13 is behind you. You can also go upstairs.'
p1209
sg1103
(lp1210
(iGameClasses
Enemy
p1211
(dp1212
g12
S"'Hey, I saw your picture on Instagram!'\n'They let you get away with doing that to the Willy McMaster statue?'"
p1213
sg3
(I10
I5
I10
tp1214
sg5
S'Mitch the TA'
p1215
sg1110
S'phone'
p1216
sg64
I01
sg1112
Nsg1113
I00
sg19
I25
sg21
g691
sg1114
Nsg67
I00
sg1115
g20
sg1116
S"There's my phone."
p1217
sbasg5
S'ETB'
p1218
sg1119
(lp1219
g685
asg1121
(lp1220
sg1123
g1126
sg1130
g691
sg1131
S'The memories of actually doing something in first year flood your mind.\nGear trains. Python. 3D printing.\nEngineering had such a different meaning in your first year...\nYou plan your next move.'
p1221
sg1133
I1
sba(iGameClasses
Map
p1222
(dp1223
g12
S'2ND FLOOR ETB:\nYou can only go back down the stairs.'
p1224
sg1103
(lp1225
sg5
S'2nd Floor ETB'
p1226
sg1119
(lp1227
g951
asg1121
(lp1228
sg1123
(g1124
g1125
g1126
g1127
g1174
tp1229
sg1130
g957
sg1131
S'You realize you really have never come up here.\nYou see 4th year Eng Phys students hurry out of a long-winded lecture.\nAfter picking a booger.\nYou plan your next move.'
p1230
sg1133
I1
sbaNaa(lp1231
Na(iGameClasses
Map
p1232
(dp1233
g12
S'ALLEY:\nITB is in front of you. ETB is behind you.\nYou can enter Hatch to your right.'
p1234
sg1103
(lp1235
sg5
S'Alley'
p1236
sg1119
(lp1237
g1056
ag943
asg1121
(lp1238
sg1123
g1126
sg1130
g949
sg1131
S'As you head down the narrow path between ITB and ETB you hear car horns blaring down Main Street.\nYou gather up some trash and put it in a garbage can like a good McMasterian.\nThen plan your next move.'
p1239
sg1133
I1
sbaNaNaa(lp1240
(iGameClasses
Map
p1241
(dp1242
g12
S'ITB BASEMENT:\nYou can only go back up to the main floor.'
p1243
sg1103
(lp1244
(iGameClasses
Enemy
p1245
(dp1246
g12
S"'Huge talking to people play.'"
p1247
sg3
(I20
I15
I20
tp1248
sg5
S'Eric the Baller'
p1249
sg1110
S'cold steel katana'
p1250
sg64
I01
sg1112
Nsg1113
I00
sg19
I50
sg21
(I0
I5
I0
tp1251
sg1114
Nsg67
I00
sg1115
g20
sg1116
S'This is sub-optimal.'
p1252
sbasg5
S'ITB Basement'
p1253
sg1119
(lp1254
sg1121
(lp1255
sg1123
(g1124
g1125
g1126
g1127
g1128
tp1256
sg1130
g1251
sg1131
S"As if the upstairs floor plan wasn't bad enough...\nAfter another 3 hours wandering around you are back where you started\nand don't feel like you learned anything..."
p1257
sg1133
I1
sba(iGameClasses
Map
p1258
(dp1259
g12
S'ITB:\nJHE-Annex is to your right. Lot I is in front of you.\nAn alley is behind you. You can go up OR down the stairs.'
p1260
sg1103
(lp1261
(iGameClasses
Enemy
p1262
(dp1263
g12
S"'Hey brother, I really could use some Febreze.'"
p1264
sg3
(I20
I20
I20
tp1265
sg5
S'Paul the Janitor'
p1266
sg1110
S'bleach squirt bottle'
p1267
sg64
I01
sg1112
Nsg1113
I00
sg19
I20
sg21
g832
sg1114
S'febreze'
p1268
sg67
I00
sg1115
S'Rock on brother! Thanks so much!'
p1269
sg1116
S"NOOO, Now I can't go see Black Sabbath!"
p1270
sbasg5
S'ITB'
p1271
sg1119
(lp1272
g826
asg1121
(lp1273
sg1123
g1126
sg1130
g832
sg1131
S'McMaster, back at it again with the horrible floor plan.\nAfter getting lost for 5 hours you finally reach the lobby\nand decide what to do.'
p1274
sg1133
I1
sba(iGameClasses
Map
p1275
(dp1276
g12
S'2ND FLOOR ITB:\nYou can only go back down the stairs.'
p1277
sg1103
(lp1278
(iGameClasses
Enemy
p1279
(dp1280
g12
S"'My grand invention is almost complete...'"
p1281
sg3
(I100
I100
I100
tp1282
sg5
S'Dr. Nagasaki'
p1283
sg1110
S'flux capacitor'
p1284
sg64
I01
sg1112
Nsg1113
I00
sg19
I75
sg21
g986
sg1114
S'ambifacient lunar waneshaft'
p1285
sg67
I00
sg1115
S"'Yes!'\n'I have been looking for one exactly like that!'\n'Quicky, go to the basement of the Tandem Accelerator!'\n'The High Council is counting on you.'"
p1286
sg1116
S'NOOOO! NOW I WILL NEVER PLEASE THE DARK LORD!'
p1287
sbasg5
S'2nd Floor ITB'
p1288
sg1119
(lp1289
g980
asg1121
(lp1290
sg1123
(g1124
g1125
g1126
g1127
g1174
tp1291
sg1130
g986
sg1131
S"Walking around up here you don't find much other than lab benches with strange instruments.\nThis place gives you the impression that there must be some high level engineering physics going on..."
p1292
sg1133
I1
sbaNaa(lp1293
Na(iGameClasses
Map
p1294
(dp1295
g12
S'LOT I:\nABB is to your right. Cootes Drive is in front of you.\nITB is to your rear.'
p1296
sg1103
(lp1297
sg5
S'Lot I'
p1298
sg1119
(lp1299
g439
ag921
a(iGameClasses
Interact
p1300
(dp1301
g12
S"A red Dodge Avenger...\nPeering into the window you can't really see much."
p1302
sg5
S'Red Car'
p1303
sg1110
Nsg1113
I00
sg21
g445
sg1114
Nsg1115
S'N/A'
p1304
sba(iGameClasses
Interact
p1305
(dp1306
g12
S"A blue Ford Mustang...\nPeering into the window you can't really see much."
p1307
sg5
S'Blue Car'
p1308
sg1110
S'potato'
p1309
sg1113
I00
sg21
g445
sg1114
S'tire iron'
p1310
sg1115
S'You smash open the window with the tire iron, breaking it in the process.\nYou unlock and open the door...\nTo reveal a potato.'
p1311
sba(iGameClasses
Interact
p1312
(dp1313
g12
S"An old Datsun...\nPeering into the window you can't really see much."
p1314
sg5
S'Old Car'
p1315
sg1110
Nsg1113
I00
sg21
g445
sg1114
Nsg1115
g1304
sba(iGameClasses
Interact
p1316
(dp1317
g12
S"A new Volkswagen...\nPeering into the window you can't really see much."
p1318
sg5
S'New Car'
p1319
sg1110
S'bowling ball'
p1320
sg1113
I00
sg21
g445
sg1114
S'car keys'
p1321
sg1115
S'You open the car and rummage around.\nUnderneath one of the seats you find a bowling ball!'
p1322
sbasg1121
(lp1323
sg1123
g1126
sg1130
g445
sg1131
S"Nope, your car isn't here.\nMaybe you parked in Lot M? Maybe not.\nAfter scoffing at all of the prof Mercedes that are way too nice...\nYou think of what to do."
p1324
sg1133
I1
sbaNaNaa(lp1325
Na(iGameClasses
Map
p1326
(dp1327
g12
S'COOTES DRIVE:\nThode is to your right. Lot I is behind you.'
p1328
sg1103
(lp1329
sg5
S'Cootes Dr.'
p1330
sg1119
(lp1331
g767
asg1121
(lp1332
sg1123
(g1124
g1126
tp1333
sg1130
g773
sg1131
S'You notice a series of pickup trucks for what must be a landscaping or construction company.\nThere is construction gear spread all over the place.\nThe sound of sirens grows louder as an ambulance suddenly rushes by.\nYou collect yourself and consider what to do next.'
p1334
sg1133
I1
sbaNaNaa(lp1335
NaNaNaNaa(lp1336
(lp1337
Na(iGameClasses
Map
p1338
(dp1339
g12
S'MDCL:\nThe East Wing of the Hospital is to your left. Health Sci library is forward.'
p1340
sg1103
(lp1341
sg5
S'MDCL'
p1342
sg1119
(lp1343
g211
ag203
asg1121
(lp1344
sg1123
(g1125
g1127
tp1345
sg1130
g209
sg1131
S'After a solid 5 minutes of meditation in the reflection area.\nYou make your next decision feeling refreshed.'
p1346
sg1133
I1
sba(iGameClasses
Map
p1347
(dp1348
g12
S'CLIMBING MDCL:\nYou can continue climbing or go back down...'
p1349
sg1103
(lp1350
sg5
S'Climbing MDCL'
p1351
sg1119
(lp1352
sg1121
(lp1353
sg1123
(g1124
g1125
g1126
g1127
tp1354
sg1130
(I1
I0
I2
tp1355
sg1131
S'You struggle and find yourself on the outer wall of MDCL.'
p1356
sg1133
I1
sba(iGameClasses
Map
p1357
(dp1358
g12
S'MDCL Roof:\nYou can only go back down.'
p1359
sg1103
(lp1360
sg5
S'Roof of MDCL'
p1361
sg1119
(lp1362
(iGameClasses
Interact
p1363
(dp1364
g12
S"It's a mouse scurrying around...\nDid it just stare at you?"
p1365
sg5
S'Mouse'
p1366
sg1110
S'gilded blunderbuss'
p1367
sg1113
I00
sg21
(I1
I0
I3
tp1368
sg1114
S'cheese'
p1369
sg1115
S"The mouse rushes over and takes the cheese.\nIt runs into a small opening it has made in the roof of the building.\nIt returns with something in it's mouth!"
p1370
sbasg1121
(lp1371
sg1123
(g1124
g1125
g1126
g1127
g1174
tp1372
sg1130
g1368
sg1131
S'With all of your might you pull yourself up and onto the roof.\nYou can see the majority of campus from up here!'
p1373
sg1133
I1
sbaa(lp1374
Na(iGameClasses
Map
p1375
(dp1376
g12
S'HEALTH SCIENCES LIBRARY:\nIn front of you is the McMaster Map. To your right is the bus stop.\nMDCL is behind you. The Hospital West Wing is to your left.'
p1377
sg1103
(lp1378
sg5
S'Health Sciences Library'
p1379
sg1119
(lp1380
sg1121
(lp1381
sg1123
(tsg1130
(I1
I1
I1
tp1382
sg1131
S"You are constantly asked to be quiet even though you have yet to make a sound.\nAfter scanning the tables and see no one you recognize you take a seat\nin an armchair and stare out towards the centre of campus.\nYou daydream of a life where these study rooms weren't constantly full."
p1383
sg1133
I1
sbaNaNaa(lp1384
Na(iGameClasses
Map
p1385
(dp1386
g12
S'MCMASTER MAP:\nIn front of you lies the entrance to Hatch. To your right, JHE Field.\nTo your rear lies the Health Sci Library. T-13 is to your left.'
p1387
sg1103
(lp1388
sg5
S'Map of McMaster'
p1389
sg1119
(lp1390
(iGameClasses
Interact
p1391
(dp1392
g12
S"It's the map of McMaster.'\n ________________________________________________\n|Map of McMaster                                 |\n|                                       BATES    |\n|                                                |\n| ETB        JHE         BSB                     |\n|                                                |\n|                                      STATUE    |\n|                                                |\n| HOSPITAL                                       |\n|          MDCL         CHAPEL              MUSC |\n|________________________________________________|"
p1393
sg5
S'McMaster Map'
p1394
sg1110
S"minnick's glasses"
p1395
sg1113
I00
sg21
(I1
I2
I1
tp1396
sg1114
S"minnick's glasses"
p1397
sg1115
S"Through Minnick's glasses the true map is revealled!\nYou read:\n'Harness the sun.'\n ________________________________________________\n|Map of McMaster                                 |\n|                                       BATES    |\n|                                                |\n| ETB        JHE         BSB                     |\n|                                                |\n|                        \\/            STATUE    |\n|                        /\\                      |\n| HOSPITAL                                       |\n|          MDCL         CHAPEL              MUSC |\n|________________________________________________|\nDr. Minnick's glasses glow hot as you quickly swat them off of your face."
p1398
sbasg1121
(lp1399
sg1123
(tsg1130
g1396
sg1131
S'Has anyone even used this thing?\nA lost freshman asks you for directions even though the map is clearly next to you.\nAfter sending them in the wrong direction you plan your next move.'
p1400
sg1133
I1
sbaNaNaa(lp1401
Na(iGameClasses
Map
p1402
(dp1403
g12
S'OUTSIDE HATCH:\nETB to your left. Enter Hatch by going forward.\nThe McMaster Map to your rear. JHE Entrance is to your right.'
p1404
sg1103
(lp1405
sg5
S'In Front of Hatch'
p1406
sg1119
(lp1407
g1077
asg1121
(lp1408
sg1123
(tsg1130
g1083
sg1131
S'You stare at the newly completed building.\nThe sun still shines and you are irritated by the constant drone of the Hamiltonian sirens\nwhich you have yet to grow accustomed to...'
p1409
sg1133
I1
sbaNaNaa(lp1410
Na(iGameClasses
Map
p1411
(dp1412
g12
S'INSIDE HATCH:\nIn front of you lies JHE-Annex. To your right is the JHE lobby.\nTo your rear you can exit.\nTo your left is an alley.'
p1413
sg1103
(lp1414
(iGameClasses
Enemy
p1415
(dp1416
g12
S"'Yo check out my meme page, you ever heard coco jay?'"
p1417
sg3
(I15
I10
I20
tp1418
sg5
S'Mario the Mixologist'
p1419
sg1110
S'stylish watch'
p1420
sg64
I01
sg1112
Nsg1113
I00
sg19
I50
sg21
g320
sg1114
Nsg67
I00
sg1115
g20
sg1116
S'si ya saben como consigo, por que me invitan?'
p1421
sbasg5
S'Inside Hatch'
p1422
sg1119
(lp1423
g314
asg1121
(lp1424
sg1123
(tsg1130
g320
sg1131
S"That 'fresh building' smell still lingers.\nYou see members of the various clubs rushing from room to room including a man carrying a rocket.\nThe Kipling clock ticks away... only 364 more...\nWho is this Gerald Hatch anyway?"
p1425
sg1133
I1
sba(iGameClasses
Map
p1426
(dp1427
g12
S'2ND FLOOR Hatch:\nIn front of you lies the Eng Phys Office. To your right is 2nd Floor JHE.\nHatch is downstairs.'
p1428
sg1103
(lp1429
sg5
S'2nd Floor Hatch'
p1430
sg1119
(lp1431
sg1121
(lp1432
sg1123
(g1125
g1126
g1174
tp1433
sg1130
(I1
I4
I2
tp1434
sg1131
S"You see various meeting rooms with 1st years occupying them.\nThe MES office is full but nothing seems to be getting done.\nThere's therapy dogs scattered everywhere for Paws and Play.\nYou can't get a session with a real therapist but at least there is this"
p1435
sg1133
I1
sbaNaa(lp1436
Na(iGameClasses
Map
p1437
(dp1438
g12
S'JHE ANNEX:\nHatch is to your rear. ABB in front of you.\nITB is to your left. NRB to your right.\nThe Eng Phys office is up the stairs.'
p1439
sg1103
(lp1440
sg5
S'JHE Annex'
p1441
sg1119
(lp1442
g913
asg1121
(lp1443
sg1123
(tsg1130
g919
sg1131
S'They made a big engineering building, got money, then added more.\nYou wonder why Eng Phys classes get pushed into the rooms in this side of JHE...\nHmm...'
p1444
sg1133
I1
sba(iGameClasses
Map
p1445
(dp1446
g12
S'ENG PHYS OFFICE:\n2nd Floor Abb is infront of you. 2nd Floor Hatch is behind you. You can go down the stairs to JHE Annex.'
p1447
sg1103
(lp1448
sg5
S'Eng Phys Office'
p1449
sg1119
(lp1450
g722
asg1121
(lp1451
sg1123
(g1126
g1127
g1174
tp1452
sg1130
g728
sg1131
S'The portrait of Dr. Novog makes you jealous as you realize you could\nnever pull off a hairstyle like that.\nYou scan the display case of past Eng Phys projects.\nThey display these as trophies...\nTrophies which only tell a story of endless grind you think to yourself...'
p1453
sg1133
I1
sbaNaa(lp1454
(iGameClasses
Map
p1455
(dp1456
g12
S'ABB BASEMENT:\nYou can only go back up to the main floor.'
p1457
sg1103
(lp1458
sg5
S'ABB Basement'
p1459
sg1119
(lp1460
g534
a(iGameClasses
Interact
p1461
(dp1462
g12
S'Seems like a regular fridge to me.'
p1463
sg5
S'Fridge'
p1464
sg1110
S'pedrotti cubed'
p1465
sg1113
I00
sg21
g540
sg1114
S'relativistic key'
p1466
sg1115
S"You inspect the inside of the fridge to reveal a small keyhole.\nUpon inserting and turning the key you hear a robotic voice bellow.\n'WORMHOLE ACTIVATED'\nThe compartment bursts open and out flies a book!"
p1467
sba(iGameClasses
Interact
p1468
(dp1469
g12
S"Dr. Haugen's personal optical bench..."
p1470
sg5
S'Optical Bench'
p1471
sg1110
S'relativistic key'
p1472
sg1113
I00
sg21
g540
sg1114
S'femtosecond laser'
p1473
sg1115
S"You place Dr. Haugen's femtosecond laser on the bench and aim it at the fridge.\nTurning the laser on (remembering your laser safety glasses, of course)\nfires the high-intensity beam at the fridge.\nThe room begins to shake and smoke begins to billow out of the cracks of the fridge.\nThe door swings open and a glowing apparition of Albert Einstein emerges!\n'You have come a long way, but your quest is not yet over.'\n'For there still remains a great evil on this campus'\n'Dr. Haugen was entrusted with protecting the contents of my fridge.'\n'I have known of your destiny since your first year here at McMaster.'\n'You will be the one who determines the fate of the faculty.'\n'It is, therefore, my responsibility to prepare you for what lies ahead.'\n'This key opens a compartment in my fridge which holds one of three Quantum Relics.'\n'These items give the holder the power to shape the fate of the entire university.'\n'I cannot tell you much more. Perhaps I have said too much.'\n'Take this. Good Luck.'"
p1474
sbasg1121
(lp1475
sg1123
(g1124
g1125
g1126
g1127
g1128
tp1476
sg1130
g540
sg1131
S'The Laser lab is pretty darn cool.\nWalking around here you notice a number of PhD students looking rather shifty.\nHmmm...\nYou wonder why that is.'
p1477
sg1133
I1
sba(iGameClasses
Map
p1478
(dp1479
g12
S'ABB:\nThode is in front of you. JHE Annex is behind you.\nThe Nuclear Reactor is to your right. LOT I is to your left.\nYou can go up or down the stairs.'
p1480
sg1103
(lp1481
sg5
S'ABB'
p1482
sg1119
(lp1483
(iGameClasses
Interact
p1484
(dp1485
g12
S"It's a display case full of all sorts of old-time Engineering Physics wizardry."
p1486
sg5
S'Display Case'
p1487
sg1110
S"faraday's cage"
p1488
sg1113
I00
sg21
(I1
I6
I1
tp1489
sg1114
S'rusty key'
p1490
sg1115
S'The rusty key fits perfectly!\nAs you turn the key glowing square forms on the back\nof the display case and opens revealing an old relic...'
p1491
sbasg1121
(lp1492
sg1123
(tsg1130
g1489
sg1131
S'You stare at the electron microscope structure and wonder if it could even see your GPA...\nA tear rolls down your cheek. You collect yourself and plan what to do next.'
p1493
sg1133
I1
sba(iGameClasses
Map
p1494
(dp1495
g12
S'2ND FLOOR ABB:\nThe Eng Phys Office is behind you. You can down the stairs to ABB.'
p1496
sg1103
(lp1497
sg5
S'2nd Floor ABB'
p1498
sg1119
(lp1499
sg1121
(lp1500
sg1123
(g1124
g1126
g1127
g1174
tp1501
sg1130
(I1
I6
I2
tp1502
sg1131
S'You were told JHE would be your home.\nNope.\nInstead you recall countless hours lectures on the 2nd floor\nas you drifted in and out of daydreams staring out the windows on a spring afternoon...'
p1503
sg1133
I1
sbaNaa(lp1504
(iGameClasses
Map
p1505
(dp1506
g12
S'THODE BASEMENT:\nGo up to head outside.'
p1507
sg1103
(lp1508
sg5
S'Thode Basement'
p1509
sg1119
(lp1510
(iGameClasses
Interact
p1511
(dp1512
g12
S'Looks like an old dusty workbench.'
p1513
sg5
S'Workbench'
p1514
sg1110
g20
sg1113
I00
sg21
(I1
I7
I0
tp1515
sg1114
Nsg1115
g20
sbasg1121
(lp1516
sg1123
(g1124
g1125
g1126
g1127
g1128
tp1517
sg1130
g1515
sg1131
S"You feel the laser glares burning into the back of your neck as\nyou hastily walk amongst the rows of desks.\nIs it possible to book a study room down here without finding a phallic object drawn on the whiteboard?\nYou'll never know."
p1518
sg1133
I1
sba(iGameClasses
Map
p1519
(dp1520
g12
S'THODE:\nABB is at your rear. The campus exit is to your right.\nCootes Drive is to your left. You can go up or down the stairs.'
p1521
sg1103
(lp1522
sg5
S'Thode'
p1523
sg1119
(lp1524
g322
ag864
asg1121
(lp1525
sg1123
g1124
sg1130
g328
sg1131
S'Oh the Reactor Cafe.\nYou think of the good old days when you could actually see the reactor from the Cafe...\nAfter overhearing someone ask whether keV is bigger than MeV you first contemplate your existence,\nthen contemplate your next move...'
p1526
sg1133
I1
sba(iGameClasses
Map
p1527
(dp1528
g12
S'2ND FLOOR THODE:\nYou can go up or down the stairs.'
p1529
sg1103
(lp1530
sg5
S'2nd Floor Thode'
p1531
sg1119
(lp1532
g752
asg1121
(lp1533
sg1123
(g1124
g1125
g1126
g1127
tp1534
sg1130
g758
sg1131
S"As you enter Club Thode the smell of feet enters your nostrils.\nWho goes barefoot in a library? C'mon.\nThe memory of countless hours spent slamming together a report made of nonsense, caffeine,\nand hope makes you light headed...\nComing to your senses... You plan your next move."
p1535
sg1133
I1
sba(iGameClasses
Map
p1536
(dp1537
g12
S'3RD FLOOR THODE:\nYou can only go back down the stairs.'
p1538
sg1103
(lp1539
(iGameClasses
Enemy
p1540
(dp1541
g12
S'I would really like a cricket to continue my research...'
p1542
sg3
(I10
I10
I10
tp1543
sg5
S'Connor the Biologist'
p1544
sg1110
Nsg64
I01
sg1112
Nsg1113
I00
sg19
I15
sg21
(I1
I7
I3
tp1545
sg1114
S'cricket'
p1546
sg67
I00
sg1115
S'Thanks!'
p1547
sg1116
S"'I can't believe you've done this."
p1548
sbasg5
S'3rd Floor Thode'
p1549
sg1119
(lp1550
sg1121
(lp1551
sg1123
(g1124
g1125
g1126
g1127
g1174
tp1552
sg1130
g1545
sg1131
S"After hauling up another set of stairs you realize you probably shouldn't\nhave given up on your Pulse membership...\nThe sounds of sobbing can be heard from all around you.\nAfter you dispense all of your tissues to passing I-Sci's you plan your next move."
p1553
sg1133
I1
sbaa(lp1554
NaNaNaNaa(lp1555
(lp1556
(iGameClasses
Map
p1557
(dp1558
g12
S'CHAPEL UNDERCROFT:\nYou can only go back up to the main floor.'
p1559
sg1103
(lp1560
(iGameClasses
Enemy
p1561
(dp1562
g12
S"'Mussst eeaaat funnnndingg... Er, I mean braaains.'"
p1563
sg3
(I20
I10
I1
tp1564
sg5
S'Undead Grad Student'
p1565
sg1110
S'horrible assignment'
p1566
sg64
I01
sg1112
Nsg1113
I00
sg19
I20
sg21
g572
sg1114
Nsg67
I00
sg1115
g20
sg1116
S'My 12 year post-grad was for nothiiiiiingggggg!'
p1567
sbasg5
S'Chapel Undercroft'
p1568
sg1119
(lp1569
g566
asg1121
(lp1570
sg1123
(g1124
g1125
g1126
g1127
g1128
tp1571
sg1130
g572
sg1131
S'You struggle down the dimly lit stairway into the undercroft.\nThe distinct smell of mould enters your nose as you travel further into the musty basement.\nThe faint glow of candles cause the shadows of ancient statues to flicker on the walls of the room...\nYou plan your next move.'
p1572
sg1133
I1
sba(iGameClasses
Map
p1573
(dp1574
g12
S'MCMASTER CHAPEL:\nThe Bus Stop is in front of you back out the door. There is a set of stairs going up.\nAs well as an old stairway leading downward.'
p1575
sg1103
(lp1576
(iGameClasses
Enemy
p1577
(dp1578
g12
S"'You need prayer. Recharge at the altar.'"
p1579
sg3
(I10
I10
I10
tp1580
sg5
S'Father Frobenius'
p1581
sg1110
S'crucifix'
p1582
sg64
I01
sg1112
Nsg1113
I00
sg19
I25
sg21
g1025
sg1114
Nsg67
I00
sg1115
g20
sg1116
S'I am slain!'
p1583
sbasg5
S'The Chapel'
p1584
sg1119
(lp1585
g1019
asg1121
(lp1586
sg1123
(g1127
g1126
g1125
tp1587
sg1130
g1025
sg1131
S"The low drone of the organ draws you in.\nThe pews are relatively empty and the lighting quite dim.\nYou think it would be in your best interest\nto pray especially with exam season just around the corner...\nIt can't hurt, right? It'd probably work better than those healing stones\non your desk."
p1588
sg1133
I1
sba(iGameClasses
Map
p1589
(dp1590
g12
S'2ND FLOOR CHAPEL:\nYou can only go back down the stairs.'
p1591
sg1103
(lp1592
sg5
S'Upstairs Chapel'
p1593
sg1119
(lp1594
g240
ag188
ag936
asg1121
(lp1595
sg1123
(g1124
g1125
g1126
g1127
g1174
tp1596
sg1130
g194
sg1131
S'The combination of ringing bells and echoes from the organ is deafening.\nYou can barely collect your thoughts.\nThe cobwebs and dust give you the impression this place has been ill-travelled\nand long forgotten.'
p1597
sg1133
I1
sbaNaa(lp1598
Na(iGameClasses
Map
p1599
(dp1600
g12
S'BUS STOP:\nHealth Sciences Library to your left. JHE field in front of you.\nThe chapel is behind you. Art Museum to your right.'
p1601
sg1103
(lp1602
(iGameClasses
Enemy
p1603
(dp1604
g12
S"'Is that even your bus pass?'"
p1605
sg3
(I10
I10
I5
tp1606
sg5
S'Larry the bus driver'
p1607
sg1110
S'huge shirt'
p1608
sg64
I01
sg1112
Nsg1113
I00
sg19
I40
sg21
g289
sg1114
Nsg67
I00
sg1115
g20
sg1116
S'That was definitely not your bus pass!'
p1609
sbasg5
S'The Bus Stop'
p1610
sg1119
(lp1611
g283
ag604
asg1121
(lp1612
sg1123
(tsg1130
g289
sg1131
S'Students gather around to catch the next bus.\nYou get pushed and shoved as they desperately clammer on-board.\nYou overhear an argument between a student and the Bus Driver when suddenly the altercation\nturns to blows and pours onto the sidewalk.'
p1613
sg1133
I1
sbaNaNaa(lp1614
Na(iGameClasses
Map
p1615
(dp1616
g12
S'JHE FIELD:\nBSB Field is to your right. McMaster map to your left.\nThe Bus Stop is at your rear. The entrance to JHE is in front of you.'
p1617
sg1103
(lp1618
(iGameClasses
Enemy
p1619
(dp1620
g12
S"'Man, you were a RIOT at the Phoenix last night!'"
p1621
sg3
(I5
I2
I10
tp1622
sg5
S'Brian the hipster'
p1623
sg1110
S'guitar'
p1624
sg64
I01
sg1112
Nsg1113
I00
sg19
I10
sg21
g594
sg1114
Nsg67
I00
sg1115
g20
sg1116
S"That's not vegan."
p1625
sbasg5
S'JHE Field'
p1626
sg1119
(lp1627
g588
ag892
asg1121
(lp1628
sg1123
(tsg1130
g594
sg1131
S'The morning sun warms your face as you scoff at a hipster slack-lining.\nStudents lie in the grass around the field even though everybody knows\nnothing gets done studying outside.\nAfter narrowly dodging a frisbee you plan what to do.'
p1629
sg1133
I1
sbaNaNaa(lp1630
Na(iGameClasses
Map
p1631
(dp1632
g12
S'FRONT OF JHE:\nBSB is to your right. Hatch to your left.\nJHE field is to your rear. Enter JHE by going forward.'
p1633
sg1103
(lp1634
sg5
S'Starting Location'
p1635
sg1119
(lp1636
g218
a(iGameClasses
Interact
p1637
(dp1638
g12
S"It's a garbage can."
p1639
sg5
S'Garbage Can'
p1640
sg1110
S'vomit'
p1641
sg1113
I00
sg21
g224
sg1114
S'msp430'
p1642
sg1115
S'You throw the MSP430 in... Yes, you have chosen wisely.'
p1643
sba(iGameClasses
Interact
p1644
(dp1645
g12
S"Welcome to The Great ENG PHYS Text Adventure!\n\nHere are the rules of the realm:\nYour orientation never changes. When you enter you will be facing the\nentrance of JHE and you will always face that way.\n\nThe commands which allow you to interact with your environment are:\nforward = f, backward = b, left = l, right = r, up = u, down = d\ntalk (person name) -talk to someone near you\nattack (person name) -attacks someone\ninspect (item name) -let's you interact with interactables and gives stats of items, can't inspect people\nequip (item name) -you pick up an item, drops any item you have in that slot\ndrop (item name) -drops an item in your inventory\neat (item name) -eat an item\nstats -will show your stats\nsearch - will search the area for things to interact with.\ninventory -will show your current inventory.\n\nBe sure to type the ENTIRE name of what you want to interact with.\nThat's it! Good Luck!"
p1646
sg5
S'Rules Sign'
p1647
sg1110
g20
sg1113
I00
sg21
g224
sg1114
g20
sg1115
g20
sbasg1121
(lp1648
sg1123
(tsg1130
g224
sg1131
S"You hear a booming voice that sounds oddly like a game developer. \ntype: 'inspect rules sign!'\nYou see the Iron Ring out front of JHE shining in the morning sun.\nThe campus is bustling with student life.\nThere are people heading in all directions with Kipling pranks\nstill scattered about JHE."
p1649
sg1133
I0
sbaNaNaa(lp1650
(iGameClasses
Map
p1651
(dp1652
g12
S'JHE BASEMENT:\nYou can only go back up to the main floor.'
p1653
sg1103
(lp1654
(iGameClasses
Enemy
p1655
(dp1656
g12
S"'I need a snack that smiles back!'"
p1657
sg3
(I17
I12
I15
tp1658
sg5
S'Zack the Snack'
p1659
sg1110
S'fanny pack'
p1660
sg64
I01
sg1112
Nsg1113
I00
sg19
I25
sg21
(I2
I4
I0
tp1661
sg1114
S'goldfish'
p1662
sg67
I00
sg1115
S'Whoa thats whack! Check out this fanny pack.'
p1663
sg1116
S'Why are you the way you are?'
p1664
sbasg5
S'JHE Basement'
p1665
sg1119
(lp1666
(iGameClasses
Interact
p1667
(dp1668
g12
S"It's a dusty box of old CDs..."
p1669
sg5
S'Box of old CDs'
p1670
sg1110
Nsg1113
I00
sg21
g1661
sg1114
S'lenovo laptop'
p1671
sg1115
S'You insert one of the CDs into the monolithic computing device...\nThe laptop instantly blue-screens and bursts into flames.'
p1672
sbasg1121
(lp1673
sg1123
(g1124
g1125
g1126
g1127
g1128
tp1674
sg1130
g1661
sg1131
S'You see the remnants of failed clubs and the shattered dreams of past engineers...\nThis place is a bit chilly.'
p1675
sg1133
I1
sba(iGameClasses
Map
p1676
(dp1677
g12
S'JHE LOBBY:\nTo your right you can exit towards BSB. To your left you can head into Hatch.\nForward is the Nuclear Research building. Behind you lies the exit.\nThere are also stairs going up and down.'
p1678
sg1103
(lp1679
sg5
S'Inside JHE'
p1680
sg1119
(lp1681
g337
ag345
asg1121
(lp1682
sg1123
(tsg1130
g343
sg1131
S'JHE lobby is alive.\nStudents rushing all around as the smell of burnt coffee and sorrow tickles your nose.\nYou scan the faces around you but see no one familiar.\nThere is a confused air about this place as Kipling was just last night.\nMany engineers happy. Many more still grinding.'
p1683
sg1133
I1
sba(iGameClasses
Map
p1684
(dp1685
g12
S'2ND FLOOR JHE:\nTo the left is 2nd Floor Hatch. You can go down the stairs to JHE Lobby.'
p1686
sg1103
(lp1687
sg5
S'2nd Floor JHE'
p1688
sg1119
(lp1689
g834
ag1027
asg1121
(lp1690
sg1123
(g1124
g1125
g1127
g1174
tp1691
sg1130
g840
sg1131
S'You spend 20 minutes staring at the 1970 graduating class wondering if you could ever pull off a moustache like that...\nAfter realizing the cool lecture halls were only given to first years.\nYou shake your fist and plan your next move.'
p1692
sg1133
I1
sbaNaa(lp1693
(iGameClasses
Map
p1694
(dp1695
g12
S'BASEMENT OF NRB:\nYou can only go back up to the main floor.'
p1696
sg1103
(lp1697
sg5
S'NRB Basement'
p1698
sg1119
(lp1699
g632
asg1121
(lp1700
sg1123
(g1124
g1125
g1126
g1127
g1128
tp1701
sg1130
g638
sg1131
S'You head down the stairs to the basement...\nThe forgotten dreams of PhD students linger in the air.\nThere is an endless amount of engineering wizardry in the rooms around you.'
p1702
sg1133
I1
sba(iGameClasses
Map
p1703
(dp1704
g12
S'NUCLEAR RESEARCH BUILDING:\nTo your left lies the JHE-Annex. The Reactor is in front of you.\nThe Police Station is to your right. JHE lobby is behind you.\nThere are stairs going down.'
p1705
sg1103
(lp1706
sg5
S'Nuclear Research Building'
p1707
sg1119
(lp1708
g677
asg1121
(lp1709
sg1123
(tsg1130
g683
sg1131
S"You have barely ever been in here other than to struggle through\n3 hours of waiting for a water level PID controller to reach steady state.\nYou wonder how anyone could get away with a floor plan this confusing.\nPerhaps that's why no terrorists have blown up the reactor because\nthey are all still lost in here..."
p1710
sg1133
I1
sbaNaNaa(lp1711
(iGameClasses
Map
p1712
(dp1713
g12
S'INSIDE THE REACTOR:\nGo up to head outside.'
p1714
sg1103
(lp1715
sg5
S'Inside the Reactor'
p1716
sg1119
(lp1717
sg1121
(lp1718
sg1123
(g1124
g1125
g1126
g1127
g1128
tp1719
sg1130
(I2
I6
I0
tp1720
sg1131
S'The hum of air conditioning drowns your thoughts.\nYou lose yourself staring into the faint blue glow of the pool as you slowly approach its edge.'
p1721
sg1133
I1
sba(iGameClasses
Map
p1722
(dp1723
g12
S'NUCLEAR REACTOR:\nRight is the GO station. Left is ABB.\n NRB is at your rear. The campus exit lies in front of you.\nGo down to enter.'
p1724
sg1103
(lp1725
sg5
S'Nuclear Reactor'
p1726
sg1119
(lp1727
g1003
asg1121
(lp1728
sg1123
(tsg1130
g1009
sg1131
S"As you approach you wonder if that steam is really radioactive?\nIt can't be.\nThe ominous structure draws you closer as you consider what it would be\nlike to swim in that sweet blue pool..."
p1729
sg1133
I1
sbaNaNaa(lp1730
Na(iGameClasses
Map
p1731
(dp1732
g12
S'CAMPUS EXIT:\nHead to Thode by going left. Head down Cootes trail if you go right.\nThe Reactor is behind you.'
p1733
sg1103
(lp1734
sg5
S'Campus Exit'
p1735
sg1119
(lp1736
g409
asg1121
(lp1737
sg1123
g1124
sg1130
g415
sg1131
S'A faint glow can be seen in the distance.\nWarning signs litter the trail as you squint to get a better look.\nA chill is sent down your spine as you see the flickering stretched shadows of\nfighting dance on the road ahead.\nYou cannot go straight... yet.'
p1738
sg1133
I1
sbaNaNaa(lp1739
NaNaNaNaa(lp1740
(lp1741
Na(iGameClasses
Map
p1742
(dp1743
g12
S'ART MUSEUM:\nThe exit lies in front of you.'
p1744
sg1103
(lp1745
sg5
S'Inside the Art Museum'
p1746
sg1119
(lp1747
g550
a(iGameClasses
Interact
p1748
(dp1749
g12
S'An old oil painting of the founding fathers of McMaster.\nDated:April 20th, 1887'
p1750
sg5
S'Old Painting'
p1751
sg1110
S"minnick's glasses"
p1752
sg1113
I00
sg21
g556
sg1114
S"minnick's glasses"
p1753
sg1115
S"Through Dr. Minnick's glasses a glowing green inscription is revealed!\n'In the hall where we eternally meet,\nThe second clue lies beneath your feet.'\nWhile reading the secret message Dr. Minnick's glasses get increasingly hotter and you quickly swat them off your face."
p1754
sbasg1121
(lp1755
sg1123
(g1127
g1126
g1125
tp1756
sg1130
g556
sg1131
S'Who knew McMaster had such a beautiful gallery.\nYou tilt your head endlessly until the art sort of makes sense.\nAfter telling yourself you could totally make every piece in the place had you been given\na chance you put your pinky out.\nThen contemplate your next move.'
p1757
sg1133
I1
sbaNaNaa(lp1758
Na(iGameClasses
Map
p1759
(dp1760
g12
S'OUTSIDE ART MUSEUM:\nYou can enter the museum to your rear. Bus Stop is to your left.\nWilly-dog stand to your right. BSB field lies in front of you.'
p1761
sg1103
(lp1762
sg5
S'Outside the Art Museum'
p1763
sg1119
(lp1764
g558
asg1121
(lp1765
sg1123
(tsg1130
g564
sg1131
S'Standing out front of the art museum you feel you are already being critiqued.\nAfter narrowly escaping a conversation with an arts student\nabout their installation piece of a dirty coffee table...\nYou plan your next move.'
p1766
sg1133
I1
sbaNaNaa(lp1767
Na(iGameClasses
Map
p1768
(dp1769
g12
S'BSB FIELD:\nThe turning circle is to your right. JHE field is to your left.\nEntrance to BSB is in front of you. The Art Museum is to your rear.'
p1770
sg1103
(lp1771
(iGameClasses
Enemy
p1772
(dp1773
g12
S"'I heard some jebroni took the 3W Textbook and hid in Bridges cafe.'\n'Full send, dude!'"
p1774
sg3
(I10
I15
I5
tp1775
sg5
S'Andreas the Nerd'
p1776
sg1110
S'visor glasses'
p1777
sg64
I01
sg1112
Nsg1113
I00
sg19
I50
sg21
g548
sg1114
Nsg67
I00
sg1115
g20
sg1116
S'Dude, that was definitely a full send'
p1778
sbasg5
S'BSB Field'
p1779
sg1119
(lp1780
g542
a(iGameClasses
Interact
p1781
(dp1782
g12
S"You can't even tell time on an analog clock.\nHow are you supposed to use this?"
p1783
sg5
S'Sun Dial'
p1784
sg1110
S'rusty key'
p1785
sg1113
I00
sg21
g548
sg1114
S"minnick's glasses"
p1786
sg1115
S"Through Dr. Minnick's glasses, you see a green glowing handprint appears\non the face of the sundial!\nYou place your hand on it and a compartment opens."
p1787
sbasg1121
(lp1788
sg1123
(tsg1130
g548
sg1131
S'You look up to see the flags flapping happily in the morning breeze.\nThat sundial at their feet ticking to the tune of celestial magic.\nAfter swatting Neil Degrasse quotes from your thoughts...\nYou consider what to do next.'
p1789
sg1133
I1
sbaNaNaa(lp1790
(iGameClasses
Map
p1791
(dp1792
g12
S'QUANTUM TUNNEL:\nGo up to return to the main floor of BSB'
p1793
sg1103
(lp1794
(iGameClasses
Enemy
p1795
(dp1796
g12
S'I am NOT going to finish this assignment... if only I had one to copy.'
p1797
sg3
(I10
I10
I10
tp1798
sg5
S'Liam the Gamer'
p1799
sg1110
S'swordfish'
p1800
sg64
I01
sg1112
Nsg1113
I00
sg19
I15
sg21
g736
sg1114
S'horrible assignment'
p1801
sg67
I00
sg1115
S'Nice! Take this swordfish. I needed 45 cooking for that.'
p1802
sg1116
g20
sbasg5
S'The Quantum Tunnel'
p1803
sg1119
(lp1804
g849
ag730
asg1121
(lp1805
sg1123
(g1124
g1125
g1126
g1127
g1128
tp1806
sg1130
g736
sg1131
S"What other faculty spends thousands of dollars on furniture for a\nliteral custodial closet in the BSB basement?\nYou guessed it...\nEng Phys. Gotta love em'"
p1807
sg1133
I1
sba(iGameClasses
Map
p1808
(dp1809
g12
S'BSB:\nBSB field is at your rear. Exit BSB to your right.\nThe entrance to JHE is to your left. The Quantum Tunnel is down the stairs.'
p1810
sg1103
(lp1811
sg5
S'BSB'
p1812
sg1119
(lp1813
g482
ag878
asg1121
(lp1814
sg1123
(tsg1130
g488
sg1131
S"You were told JHE would be your home but after picking Eng Phys\nyou didn't realize how wrong you were.\nAt least the cafe is better than JHE's.\nA shudder runs through your body as you draw nearer to the electronics labs.\nWiping a cold sweat from your brow you plan ahead."
p1815
sg1133
I1
sba(iGameClasses
Map
p1816
(dp1817
g12
S'2ND FLOOR BSB:\nYou can only go back down the stairs.'
p1818
sg1103
(lp1819
sg5
S'2nd Floor BSB'
p1820
sg1119
(lp1821
g654
asg1121
(lp1822
sg1123
(g1124
g1125
g1126
g1127
g1174
tp1823
sg1130
g660
sg1131
S'Despite the horrible numbering of floors the layout of the building is great.\nNot a complaint with this one.'
p1824
sg1133
I1
sbaNaa(lp1825
Na(iGameClasses
Map
p1826
(dp1827
g12
S'JHE/BSB JUNCTION:\nEnter JHE to your left. General Sciences building to your right.\nBSB is behind you. The Police station is in front of you.'
p1828
sg1103
(lp1829
(iGameClasses
Enemy
p1830
(dp1831
g12
S"'The oscilloscope is the window into the electronic world.'"
p1832
sg3
(I100
I100
I200
tp1833
sg5
S'Kenrick'
p1834
sg1110
S"kenrick's oscilloscope"
p1835
sg64
I01
sg1112
Nsg1113
I00
sg19
I75
sg21
(I3
I4
I1
tp1836
sg1114
Nsg67
I00
sg1115
g20
sg1116
S"Oh no! My window! The Dark Lord will know I've failed him!"
p1837
sbasg5
S'Between JHE and BSB'
p1838
sg1119
(lp1839
(iGameClasses
Interact
p1840
(dp1841
g12
S'Under closer inspection you notice the book is a different kind of stone\nthan the rest...\nIf only you could get up there for a closer look...'
p1842
sg5
S'Coat of Arms'
p1843
sg1110
S'old scroll'
p1844
sg1113
I00
sg21
g1836
sg1114
S'old ladder'
p1845
sg1115
S'With some effort you climb the rickety ladder and remove the book from the wall.\nReaching into the hole you pull out an old scroll!'
p1846
sbasg1121
(lp1847
sg1123
(tsg1130
g1836
sg1131
S"You look up and see the McMaster coat of arms engraved into the side of BSB.\nThis little pathway has been well worn and you wonder why they don't connect JHE and BSB anyway.\nAn underground (quantum) tunnel would save some hardship on a rainy day..."
p1848
sg1133
I1
sbaNaNaa(lp1849
Na(iGameClasses
Map
p1850
(dp1851
g12
S'POLICE STATION:\nThe path between JHE & BSB behind you. The GO station lies ahead of you.\nThe Nuclear Research Building is to your left. The Tandem Accelerator is to your right.'
p1852
sg1103
(lp1853
(iGameClasses
Enemy
p1854
(dp1855
g12
S"'Give me your student card!'"
p1856
sg3
(I50
I25
I10
tp1857
sg5
S'Bill the MAC Cop'
p1858
sg1110
S'solar cell'
p1859
sg64
I01
sg1112
Nsg1113
I00
sg19
I50
sg21
g115
sg1114
Nsg67
I00
sg1115
g20
sg1116
S"We aren't able to arrest you anyway!"
p1860
sbasg5
S'Police Station'
p1861
sg1119
(lp1862
g109
ag625
asg1121
(lp1863
sg1123
(tsg1130
g115
sg1131
S'Thoughts of getting kicked out of res parties fill your head.\nThose special constables are punks.\nYou mutter the lyrics of a certain N.W.A hit. After avoiding a campus P.D cruiser\nscreaming around the blind corner, you think of what to do next.'
p1864
sg1133
I1
sbaNaNaa(lp1865
Na(iGameClasses
Map
p1866
(dp1867
g12
S'GO STATION:\nThe Reactor is to your left. Keyes is to your right.\nCootes Trail is in front of you. The Police Station is behind you.'
p1868
sg1103
(lp1869
(iGameClasses
Enemy
p1870
(dp1871
g12
S"'Have you got the LON-CAPA Python code?'"
p1872
sg3
(I5
I1
I10
tp1873
sg5
S'Steven the first-year'
p1874
sg1110
S'engineering mug'
p1875
sg64
I01
sg1112
Nsg1113
I00
sg19
I15
sg21
g496
sg1114
Nsg67
I00
sg1115
g20
sg1116
S"I'm a failure at home and at school!"
p1876
sbasg5
S'GO Station'
p1877
sg1119
(lp1878
g490
asg1121
(lp1879
sg1123
(tsg1130
g496
sg1131
S'The rush of people and buses around you is disorienting.\nYou nearly get hit by 3 buses and 2 MAC Cop cars as\nyou play a strange game of real-life frogger.\nReaching a bench you sit down, catch your breath, and plan what to do next.'
p1880
sg1133
I1
sbaNaNaa(lp1881
Na(iGameClasses
Map
p1882
(dp1883
g12
S'COOTES TRAIL:\nCampus exit is to your left. GO station to your rear.\nThe Bridge to Lot M is to your right.'
p1884
sg1103
(lp1885
sg5
S'Cootes Trail'
p1886
sg1119
(lp1887
g164
ag247
a(iGameClasses
Interact
p1888
(dp1889
g12
S'This patch of dirt looks out of place...'
p1890
sg5
S'Uneven Earth'
p1891
sg1110
S'declaration of independence'
p1892
sg1113
I00
sg21
g170
sg1114
S'shovel'
p1893
sg1115
S"You begin digging and find an old box!\nYou open it up and read a note...\n'In the eldest of halls. The attic holds all.'"
p1894
sbasg1121
(lp1895
sg1123
g1124
sg1130
g170
sg1131
S'The flickering light through the trees dances off of the trail ahead of you.\nYou smile as you see a squirrel gathering nuts,\nprobably for his little squirrel family.\nWith this new positive outlook on life you plan your next move.'
p1896
sg1133
I1
sbaNaNaa(lp1897
NaNaNaNaa(lp1898
(lp1899
(iGameClasses
Map
p1900
(dp1901
g12
S'MILLS BASEMENT:\nYou can only go back up to Mills.'
p1902
sg1103
(lp1903
sg5
S'Mills Basement'
p1904
sg1119
(lp1905
g512
a(iGameClasses
Interact
p1906
(dp1907
g12
S"It's an old mirror from a time long past."
p1908
sg5
S'Ancient Mirror'
p1909
sg1110
S'gamma glove'
p1910
sg1113
I00
sg21
g518
sg1114
S'ancient incantation'
p1911
sg1115
S"You mutter the incantation... Suddenly, you see the reflection of Richard Feynman himself standing behind you!\n'You have come a long way. The way of the physicist is strong with you.'\n'Here, take this it is one of the 3 Quantum Relics.\n'You will need all 3 to acquire your Iron Ring.'\n'Trust your instincts and when the time comes you will know what to do."
p1912
sbasg1121
(lp1913
sg1123
(g1124
g1125
g1126
g1127
g1128
tp1914
sg1130
g518
sg1131
S'Jeez has anyone ever been down here?\nThe rows of bookshelves seem to go on forever...\nIf only you could possess all of the knowledge they hold.'
p1915
sg1133
I1
sba(iGameClasses
Map
p1916
(dp1917
g12
S'MILLS LIBRARY:\nThe Willy Dog Stand is in front of you. MUSC is to your right.\nYou can go downstairs.'
p1918
sg1103
(lp1919
sg5
S'Mills Library'
p1920
sg1119
(lp1921
g299
a(iGameClasses
Interact
p1922
(dp1923
g12
S"It's a guide to the Bruce trail."
p1924
sg5
S'Blue Book'
p1925
sg1110
g20
sg1113
I00
sg21
g305
sg1114
g20
sg1115
g20
sba(iGameClasses
Interact
p1926
(dp1927
g12
S"Flipping through you read:\n'The mitochondria is the powerhouse of the cell.'"
p1928
sg5
S'Red Book'
p1929
sg1110
g20
sg1113
I00
sg21
g305
sg1114
g20
sg1115
g20
sbasg1121
(lp1930
sg1123
(g1126
g1125
tp1931
sg1130
g305
sg1131
S'This is definitely not Thode.\nYou wonder if anything gets done in this library.\nAll of the debauchery taking place on the 6th floor sends a shudder through your body.\nYou notice a stack of books...'
p1932
sg1133
I1
sbaNaNaa(lp1933
Na(iGameClasses
Map
p1934
(dp1935
g12
S'WILLY DOG STAND:\nThe turning circle lies in front of you. Mills library at your rear.\nThe Archway to your right. The Art Museum is to your left.'
p1936
sg1103
(lp1937
sg5
S'The Willy Dog stand'
p1938
sg1119
(lp1939
g172
ag1063
asg1121
(lp1940
sg1123
(tsg1130
g178
sg1131
S"Oh, that sweet sweet aroma.\nMany drunken nights flash through your head.\nThat Willy dog cart is more of a staple to McMaster students than the Archway next to it.\nWas it named Willy Dog after Sir William McMaster?\nYou'll never know..."
p1941
sg1133
I1
sbaNaNaa(lp1942
Na(iGameClasses
Map
p1943
(dp1944
g12
S'TURNING CIRCLE:\nWilly Dog stand is to your rear. BSB-field is to your left.\nThe Willy McMaster Statue is to your right. Head down the road if you go forward.'
p1945
sg1103
(lp1946
(iGameClasses
Enemy
p1947
(dp1948
g12
g1856
sg3
(I50
I25
I10
tp1949
sg5
S'Will the MAC Cop'
p1950
sg1110
S'fake gun'
p1951
sg64
I01
sg1112
Nsg1113
I00
sg19
I50
sg21
g186
sg1114
Nsg67
I00
sg1115
g20
sg1116
g1860
sbasg5
S'Turning Circle'
p1952
sg1119
(lp1953
g180
ag254
asg1121
(lp1954
sg1123
(tsg1130
g186
sg1131
S'The circle thing with the three trees in it is looking pretty nice\nin the morning sun.\nStudents rush all around.\nThe aroma from the Willy Dog stand is making you pretty hungry...'
p1955
sg1133
I1
sbaNaNaa(lp1956
Na(iGameClasses
Map
p1957
(dp1958
g12
S'A ROAD:\nEnter BSB to your left. Hamilton Hall to your right.\nThe turning circle is behind you. General Sciences building in front of you.'
p1959
sg1103
(lp1960
sg5
S'Campus Road'
p1961
sg1119
(lp1962
g291
ag330
asg1121
(lp1963
sg1123
(tsg1130
g297
sg1131
S"A lost first year's parent drives by in a mini-van\nclearly ignoring the 'no access' sign.\nYou thank your astrology sign for making sure they looked up and saw you."
p1964
sg1133
I1
sbaNaNaa(lp1965
Na(iGameClasses
Map
p1966
(dp1967
g12
S'GENERAL SCIENCES BUILDING:\nThe Phoenix is to your right. The junction between JHE & BSB is to your left.\nThe Tandem Accelerator is in front of you. Exit to your rear.'
p1968
sg1103
(lp1969
sg5
S'General Sciences'
p1970
sg1119
(lp1971
g700
asg1121
(lp1972
sg1123
(tsg1130
g706
sg1131
S"Have you ever been in here?\nI haven't.\nYou see a group of people huddled around a pentagram-wearing goat heads.\nMaybe? I seriously don't know what goes on in here."
p1973
sg1133
I1
sbaNaNaa(lp1974
(iGameClasses
Map
p1975
(dp1976
g12
S'TANDEM BASEMENT:\nYou can only go back up the stairs.'
p1977
sg1103
(lp1978
sg5
S'Tandem Basement'
p1979
sg1119
(lp1980
(iGameClasses
Interact
p1981
(dp1982
g12
S"It's an old broken reactor."
p1983
sg5
S'Broken Reactor'
p1984
sg1110
S'pink donut'
p1985
sg1113
I00
sg21
(I4
I5
I0
tp1986
sg1114
S'flux capacitor'
p1987
sg1115
S"After some elbow grease and a bit of luck you manage to complete the reactor.\nThere is a low whirr as the device starts and begins to glow with a\npink hue.\nYou feel like ancient mechanisms beyond your comprehension are coming to life.\nWithin the pink glow you see an apparition of Dr. Novog!\n'What's up folks! This is the only channel safe for communication\n'Come meet me in the basement of the Nuclear Reactor ASAP and bring that Pink Donut!'\nAs the aparition fades a hooded figure emerges from behind a lab bench.\n'The Dark Lord demands that donut!'\nThe assassin lunges for you but is quickly met by your blow.\nAs they fall to the ground you notice an insignia on their robe that tickles your 'that's familiar' bone...\nYou pull back their hood to reveal the face of an Eng Phys PhD student!\nYou don't remember their name... But you know they are in the faculty..."
p1988
sbasg1121
(lp1989
sg1123
(g1124
g1125
g1126
g1127
g1128
tp1990
sg1130
g1986
sg1131
S"An old basement with all sorts of technological wizardry you don't recognize.\nIt seems like this place has been untouched for some time.\nLooking around you get the impression that not a lot of people come down here."
p1991
sg1133
I1
sba(iGameClasses
Map
p1992
(dp1993
g12
S'TANDEM ACCELERATOR:\nThe General Sciences Building is behind you. The Police station is to your left.\nA trail is to your right. Keyes is in front of you.'
p1994
sg1103
(lp1995
(iGameClasses
Enemy
p1996
(dp1997
g12
S"'The tools should be coming any day now.'"
p1998
sg3
(I50
I75
I50
tp1999
sg5
S'Chris'
p2000
sg1110
S'capstone tools'
p2001
sg64
I01
sg1112
Nsg1113
I00
sg19
I50
sg21
g139
sg1114
Nsg67
I00
sg1115
g20
sg1116
S'I was going to quit anyway!'
p2002
sbasg5
S'Tandem Accelerator'
p2003
sg1119
(lp2004
g133
asg1121
(lp2005
sg1123
(tsg1130
g139
sg1131
S'Turns out the Tandem Accelerator is NOT a rad place to ride a 2-person bike...\nBummed out you remind yourself you graduated and consider what to do next.'
p2006
sg1133
I1
sbaNaNaa(lp2007
Na(iGameClasses
Map
p2008
(dp2009
g12
S'MARY KEYES:\nYou can head to the Bridge if you go forward. The GO station is to your left.\nThe Tandem Accelerator is at your rear. Bates is to your right.'
p2010
sg1103
(lp2011
sg5
S'Keyes'
p2012
sg1119
(lp2013
g818
ag899
asg1121
(lp2014
sg1123
(tsg1130
g824
sg1131
S"A snack station that's open 'til midnight.\nWhat a life saver indeed.\nYou quickly thank the engineering gods for Mary Keyes and fight yourself\nfrom ordering chicken fingers & fries super combo..."
p2015
sg1133
I1
sbaNaNaa(lp2016
Na(iGameClasses
Map
p2017
(dp2018
g12
S'THE BRIDGE:\nLot M is to your right. Keyes is at your rear.\nHead down Cootes trail if you go left.'
p2019
sg1103
(lp2020
sg5
S'The Bridge'
p2021
sg1119
(lp2022
g856
asg1121
(lp2023
sg1123
g1124
sg1130
g862
sg1131
S'You narrowly avoid a GO bus\npick yourself up and brush yourself off.\nThen plan your next move.'
p2024
sg1133
I1
sbaNaNaa(lp2025
NaNaNaNaa(lp2026
(lp2027
(iGameClasses
Map
p2028
(dp2029
g12
S'CUSTODIAL CLOSET:\nYou can only go up to go back to MUSC.'
p2030
sg1103
(lp2031
sg5
S'Custodial Closet'
p2032
sg1119
(lp2033
g447
ag307
ag196
ag86
asg1121
(lp2034
sg1123
(g1124
g1125
g1126
g1127
g1128
tp2035
sg1130
g92
sg1131
S'You enter the custodial closet and a formidable stench fills your nostrils...\nEw.'
p2036
sg1133
I1
sba(iGameClasses
Map
p2037
(dp2038
g12
S'MUSC:\nMills is to your left. The Archway is in front of you.\nA custodial closet is down the stairs.'
p2039
sg1103
(lp2040
sg5
S'McMaster Student Centre'
p2041
sg1119
(lp2042
g803
ag148
asg1121
(lp2043
sg1123
(g1127
g1125
tp2044
sg1130
g154
sg1131
S'The Student Centre is alive.\nAfter counting the number of jean jackets in the Starbucks line like the Count from Sesame Street\nyou snap back to reality.\n(Oops there goes gravity).\nYou notice a Starbucks employee arguing with his manager before throwing their apron to the ground.'
p2045
sg1133
I1
sbaNaNaa(lp2046
Na(iGameClasses
Map
p2047
(dp2048
g12
S'ARCHWAY:\nMUSC at your rear. Statue of Willy in front of you.\nEntrance to University Hall is to your right. The Willy Dog stand is to your left.'
p2049
sg1103
(lp2050
sg5
S'The McMaster Archway'
p2051
sg1119
(lp2052
g810
a(iGameClasses
Interact
p2053
(dp2054
g12
S'It appears the hole was caused by some sort of laser...'
p2055
sg5
S'Old Lamp'
p2056
sg1110
g20
sg1113
I00
sg21
g816
sg1114
g20
sg1115
g20
sbasg1121
(lp2057
sg1123
(tsg1130
g816
sg1131
S"Probably the most beautiful structure at Mac.\nYou notice a hole that appears to have melted through the glass of the lamp underneath...\nYou snap a quick selfie in front of the Archway for the 'gram."
p2058
sg1133
I1
sbaNaNaa(lp2059
Na(iGameClasses
Map
p2060
(dp2061
g12
S'WILLIAM MCMASTER STATUE:\nHamilton Hall is in front of you. The Archway is behind you.\nTurning Circle is to your left.'
p2062
sg1103
(lp2063
sg5
S'Statue of Sir William McMaster'
p2064
sg1119
(lp2065
sg1121
(lp2066
sg1123
g1127
sg1130
(I5
I2
I1
tp2067
sg1131
S'Approaching the statue you notice massive burn marks on the lawn and chunks\nout of the tree...\nHmm...\nWhat if Sir Willy McMaster was actually in that statue Han Solo style?\nAfter a quick selfie with Willy you plan your next move.'
p2068
sg1133
I1
sbaNaNaa(lp2069
Na(iGameClasses
Map
p2070
(dp2071
g12
S'HAMILTON HALL:\nThe Phoenix is in front of you. A road is to your left.\nThe Willy McMaster Statue is to your rear.'
p2072
sg1103
(lp2073
sg5
S'Hamilton Hall'
p2074
sg1119
(lp2075
g1085
ag928
asg1121
(lp2076
sg1123
g1127
sg1130
g934
sg1131
S"You think about helping some first years in the Math help centre.\nThen you don't.\nThey should learn to fight through it if they're going to make it through the\nnext 4 years."
p2077
sg1133
I1
sbaNaNaa(lp2078
(iGameClasses
Map
p2079
(dp2080
g12
S'BRIDGES CAFE:\nYou can only go back up to the Phoenix.'
p2081
sg1103
(lp2082
(iGameClasses
Enemy
p2083
(dp2084
g12
S"'Did I mention I'm vegan?'"
p2085
sg3
(I15
I1
I5
tp2086
sg5
S'Jana the vegan'
p2087
sg1110
S'3w textbook'
p2088
sg64
I01
sg1112
Nsg1113
I00
sg19
I10
sg21
g131
sg1114
Nsg67
I00
sg1115
g20
sg1116
S'I was going to bring it back I swear!'
p2089
sbasg5
S'Bridges'
p2090
sg1119
(lp2091
g125
asg1121
(lp2092
sg1123
(g1124
g1125
g1126
g1127
g1128
tp2093
sg1130
g131
sg1131
S'You feel guilty walking in here after you performed a\nbeat down on a double big mac combo in a drunken stupor only hours earlier.\nAfter pledging to be more vegan in the future, you plan what to do next.'
p2094
sg1133
I1
sba(iGameClasses
Map
p2095
(dp2096
g12
S'THE PHOENIX:\nGeneral Sciences Building is to your left. Hamilton Hall is to your rear.\nThe trail to Bates is in front of you. You can also go down the stairs to Bridges Cafe.'
p2097
sg1103
(lp2098
(iGameClasses
Enemy
p2099
(dp2100
g12
S"I've been looking for you. Especially after what you did last night.\nI recommend you seek out the profs if you are to find your ring...\nOnly they can right the wrongs you have done."
p2101
sg3
(I999
I999
I999
tp2102
sg5
S'Hooded Man'
p2103
sg1110
g20
sg64
I01
sg1112
Nsg1113
I00
sg19
I999
sg21
(I5
I4
I1
tp2104
sg1114
Nsg67
I00
sg1115
g20
sg1116
g20
sba(iGameClasses
Enemy
p2105
(dp2106
g12
S"'Wait... I recognize you... you have a $420E69 tab!'"
p2107
sg3
(I15
I20
I10
tp2108
sg5
S'Megan the Bartender'
p2109
sg1110
S'meow mix'
p2110
sg64
I01
sg1112
Nsg1113
I00
sg19
I20
sg21
g2104
sg1114
Nsg67
I00
sg1115
g20
sg1116
S'Nuuuuuuuuuuuu'
p2111
sbasg5
S'The Phoenix'
p2112
sg1119
(lp2113
sg1121
(lp2114
sg1123
g1127
sg1130
g2104
sg1131
S"Upon entering, a rush of memories from last night enter your mind.\nPeople's faces are a blur but you somewhat recall '16 tequila shots' as something you said.\nYou see a mysterious Hooded Man as he beckons you to come over."
p2115
sg1133
I1
sba(iGameClasses
Map
p2116
(dp2117
g12
S'PHOENIX LOFT:\nYou can only go back down the stairs.'
p2118
sg1103
(lp2119
sg5
S'The Pheonix Loft'
p2120
sg1119
(lp2121
g973
ag431
asg1121
(lp2122
sg1123
(g1124
g1125
g1126
g1127
g1174
tp2123
sg1130
g437
sg1131
S'The history up here is incredible. So many relics from a time long past.\nFrom old costumes from plays to furniture.\nAfter a quick Shakespearean sonnet you think of what to do next.'
p2124
sg1133
I1
sbaNaa(lp2125
Na(iGameClasses
Map
p2126
(dp2127
g12
S'TRAIL TO PHOENIX:\nBates lies in front of you. The Phoenix at your rear.\nThe Tandem Accelerator is to your left.'
p2128
sg1103
(lp2129
(iGameClasses
Enemy
p2130
(dp2131
g12
S"'MHhmgh, Soouh whatu we getta druuuunk'"
p2132
sg3
(I10
I5
I1
tp2133
sg5
S'Phil the drunk'
p2134
sg1110
S'vomit'
p2135
sg64
I01
sg1112
Nsg1113
I00
sg19
I15
sg21
g602
sg1114
S"phil's braces"
p2136
sg67
I00
sg1115
S"'UHhhh i thinka im gonna- im gon-'\nPhil vomits."
p2137
sg1116
S'mhmh spooky ghost urggh ectoplasm noooooo'
p2138
sbasg5
S'Trail'
p2139
sg1119
(lp2140
g596
asg1121
(lp2141
sg1123
g1127
sg1130
g602
sg1131
S"Longboarding down this trail going Mach 16 was a blast and a half.\nDodging deer and first years like it's some sort of cube runner.\nNice."
p2142
sg1133
I1
sbaNaNaa(lp2143
Na(iGameClasses
Map
p2144
(dp2145
g12
S'BATES:\nLOT M lies in front of you. Keyes is to your left.\nThe trail to the Phoenix is behind you.'
p2146
sg1103
(lp2147
sg5
S'Bates'
p2148
sg1119
(lp2149
g995
a(iGameClasses
Interact
p2150
(dp2151
g12
S'Old RCA TV with VHS slot...'
p2152
sg5
S'RCA TV'
p2153
sg1110
g20
sg1113
I00
sg21
g1001
sg1114
S'tarzan vhs'
p2154
sg1115
S"You put the VHS into the slot and press play...\nThe opening scenes to Tarzan begin but suddenly the screen goes black and a message\nis displayed!\n'DrOWN I Need EveryThing graBs'"
p2155
sbasg1121
(lp2156
sg1123
g1127
sg1130
g1001
sg1131
S'Memories of ridiculous res parties fill your mind.\nYou also recall the landfill of a room that was more of a circus attraction\nthan a living space.\nOh how distant first year seems...'
p2157
sg1133
I1
sbaNaNaa(lp2158
Na(iGameClasses
Map
p2159
(dp2160
g12
S'LOT M:\nTo your left is the bridge. Bates is behind you.'
p2161
sg1103
(lp2162
(iGameClasses
Enemy
p2163
(dp2164
g12
S"'Righteous! Could you help me get into my car?\nI lost my keys and can't find my car.\nI REALLY need what is in there.'"
p2165
sg3
(I14
I20
I5
tp2166
sg5
S'Rod the climber'
p2167
sg1110
S'delicious meal'
p2168
sg64
I01
sg1112
Nsg1113
I00
sg19
I40
sg21
g76
sg1114
S'bowling ball'
p2169
sg67
I00
sg1115
S'Thanks!\nNow I can learn to bowl that perfect strike.\nTake this, I just cooked it up.'
p2170
sg1116
S'Ouch!'
p2171
sbasg5
S'Lot M'
p2172
sg1119
(lp2173
g760
ag693
ag70
asg1121
(lp2174
sg1123
(g1124
g1127
tp2175
sg1130
g76
sg1131
S'After 3 days of hiking you arrive at Lot M.\nAfter 2 more days of looking for your car you give up and contemplate what to do next.'
p2176
sg1133
I1
sbaNaNaa(lp2177
NaNaNaNaa(lp2178
(lp2179
NaNaNaNaa(lp2180
(iGameClasses
Map
p2181
(dp2182
g12
S'SECRET ROOM:\nYou can only climb up and out.'
p2183
sg1103
(lp2184
sg5
S'Secret Room'
p2185
sg1119
(lp2186
(iGameClasses
Interact
p2187
(dp2188
g12
S"You blow the dust off, open it, and read:\n'The ability to peer into history would be a most formidable power.'\n'I have potentially produced a piece of the puzzle but without a\n'device capable of maintaining the field density long enough I fear\n'it will never become a reality.'\n'Thus I have decided to hide my invention until the time comes where\nsomeone can realize my dream.'\n'If you are reading this, find the place where you can see\ncampus in its entirety.'\n'If you ARE the hero, the next steps shall be revealed.'\n-M. Faraday"
p2189
sg5
S'Old Journal'
p2190
sg1110
g20
sg1113
I00
sg21
(I6
I1
I0
tp2191
sg1114
g20
sg1115
g20
sbasg1121
(lp2192
sg1123
(g1124
g1125
g1126
g1127
g1128
tp2193
sg1130
g2191
sg1131
S"You inspect the floorboards and find one is loose.\nUpon lifting it you reveal a secret room!\nYou climb down and find yourself surrounded by stacks of ancient books and\nforgotten items from McMaster's past."
p2194
sg1133
I1
sba(iGameClasses
Map
p2195
(dp2196
g12
S'UNIVERSITY HALL:\nThe exit is to your left.'
p2197
sg1103
(lp2198
sg5
S'Inside University Hall'
p2199
sg1119
(lp2200
g10
asg1121
(lp2201
sg1123
(g1127
g1125
g1124
tp2202
sg1130
(I6
I1
I1
tp2203
sg1131
S'The glares from portraits of old white founding fathers intimidate you.\nThe memories of failing midterms in their presence sends you into an almost trance-like state.\nYou notice that the portrait of Keyes totally looks like Stephen Fry.\nAfter talking yourself out of stealing a piece of Mac history you plan your next move.'
p2204
sg1133
I1
sba(iGameClasses
Map
p2205
(dp2206
g12
S'2ND FLOOR UH:\nYou can only go back down the stairs.'
p2207
sg1103
(lp2208
sg5
S'2nd Floor UH'
p2209
sg1119
(lp2210
(iGameClasses
Interact
p2211
(dp2212
g12
S'Looks like a set of glasses with multiple coloured lenses...'
p2213
sg5
S'Tri-Coloured Glasses'
p2214
sg1110
Nsg1113
I00
sg21
(I6
I1
I2
tp2215
sg1114
S'declaration of independence'
p2216
sg1115
S"Its a cipher...\nOn the back of the declaration you can see different coded messages using the coloured lenses...\nRED:'Lithium Carbon Boron Mangnesium(-g)'\nBLUE:'Jerry likes presents.'\nGREEN:'Guardians of De Galaxy character.'"
p2217
sbasg1121
(lp2218
sg1123
(g1124
g1125
g1126
g1127
g1174
tp2219
sg1130
g2215
sg1131
S'You make your way up the rickety staircase into a room from a time long past.\nYou notice a dust covered table with some old instruments and clutter thrown about.'
p2220
sg1133
I1
sbaNaa(lp2221
NaNaNaNaa(lp2222
NaNaNaNaa(lp2223
NaNaNaNaa(lp2224
NaNaNaNaa(lp2225
NaNaNaNaa(lp2226
NaNaNaNaa(lp2227
NaNaNaNaatp2228
a(dp2229
S'dr. soleymani'
p2230
g1163
sS'dr. knights'
p2231
(iGameClasses
Enemy
p2232
(dp2233
g12
S"'Whoever took the 3W Textbook from the QT shall feel my eternal wrath...'"
p2234
sg3
(I200
I100
I50
tp2235
sg5
S'Dr. Knights'
p2236
sg1110
S'cold beer'
p2237
sg64
I01
sg1112
Nsg1113
I00
sg19
I300
sg21
(NNNtp2238
sg1114
S'3w textbook'
p2239
sg67
I00
sg1115
S"'I've been looking all over for that, have a cold one on me!'\n'But before you go you should know that a difficult road lies ahead.'\n'It will not be easy to have your Iron Ring returned to you'\n'Dr. Haugen should be the one you seek next.'"
p2240
sg1116
S"'What are you doing?!'"
p2241
sbsS'bill the mac cop'
p2242
g1854
sS'dr. kleimann'
p2243
(iGameClasses
Enemy
p2244
(dp2245
g12
S"'We have been looking for you.'\n'The Department is not pleased...'\n'But first, the McMaster Police have confiscated my Solar Cell, go get it.'\n'Then, maybe you are truly worthy of continuing this quest.'"
p2246
sg3
(I300
I150
I100
tp2247
sg5
S'Dr. Kleimann'
p2248
sg1110
S'solar ray'
p2249
sg64
I01
sg1112
Nsg1113
I00
sg19
I300
sg21
g2238
sg1114
S'solar cell'
p2250
sg67
I00
sg1115
S"You sit down and listen to what Dr. Kleimann has to say...\n'You have awoken an ancient force that hasn't stirred in many years'.\n'You didn't think we would find out what you did but we know all.'\n'It had been prophecized that an adventurer would dictate the future of the faculty...'\n'Only The Quantum Order can assist you now, seek out Dr. Minnick. I wish you luck...'"
p2251
sg1116
S'You have betrayed The Order!'
p2252
sbsS'mario the mixologist'
p2253
g1415
sS'sir william mcmaster'
p2254
(iGameClasses
Enemy
p2255
(dp2256
g12
S"'You must rid the university of the evil Dr. Cassidy has planned!'"
p2257
sg3
(I175
I125
I100
tp2258
sg5
S'Sir William McMaster'
p2259
sg1110
S'iron ring'
p2260
sg64
I01
sg1112
Nsg1113
I00
sg19
I125
sg21
g2238
sg1114
g20
sg67
I00
sg1115
g20
sg1116
S"The spirit of Sir William McMaster bursts with a fiercely bright explosion.\nYou look down to see your Iron Ring as well as the deed to McMaster!\nDr. Cassidy quickly picks up the deed and turns to you.\n'Excellent!' he says coupled with maniacal laughter.\n'Too fulfill your true destiny, take the power you hold in your Iron Ring and destroy all of the professors'\n'Only after they are gone can Engineering Physics truly reign supreme!'"
p2261
sbsS'will the mac cop'
p2262
g1947
sS'eric the baller'
p2263
g1245
sS'dan fitzgreen'
p2264
(iGameClasses
Enemy
p2265
(dp2266
g12
S"Hello, although I've turned to the dark side to do Physics Labs\n I'm still a great guy. Did I mention I worked at CERN!?"
p2267
sg3
(I100
I75
I100
tp2268
sg5
S'Dan Fitzgreen'
p2269
sg1110
S'ambifacient lunar waneshaft'
p2270
sg64
I01
sg1112
Nsg1113
I00
sg19
I400
sg21
g2238
sg1114
g20
sg67
I00
sg1115
S"'Been a lot stirring around the faculty since last night.'\n'I used to be an adventurous student like you before the High Council and I decided to part ways.'\n'I know what you seek and I am here to help.'\n'You need to fire up that old reactor in the basement of the Tandem Accelerator.'\n'It needs some sort of high power instrument to bring it to life...'\n'I think Dr. Nagasaki has been working on something like that, he is probably somewhere in ITB.'\n'He will likely need this...'"
p2271
sg1116
S"I'm moving to the physics department"
p2272
sbsS'dr. buijs'
p2273
(iGameClasses
Enemy
p2274
(dp2275
g12
S"'I've been looking for you.'\n'I have a lot to tell you, but first we must test your loyalty.'\n'There is a traitor amongst the Eng Phys faculty!'\n'His name is Chris and he was last seen in the Tandem Accelerator.'\n'Bring me what he has stolen!'"
p2276
sg3
(I250
I150
I100
tp2277
sg5
S'Dr. Buijs'
p2278
sg1110
S'voltage divider'
p2279
sg64
I01
sg1112
Nsg1113
I00
sg19
I300
sg21
g2238
sg1114
S'capstone tools'
p2280
sg67
I00
sg1115
S"'Ah you have returned.'\nYou sit down and listen to what Dr. Buijs has to say.\n'The Engineering Physics professors are part of an ancient council known as\nThe Quantum Order'\n'It is our duty to ensure the safety of this campus.'\n'It appears that your actions last night have stirred an evil\neven we don't understand.'\n'All that we do know is that some faculty members have been\ntempted by a Dark Lord with the promise of infinite knowledge.'\n'A prophecy from a time long past has foretold that an adventurer's decisions\nwould dictate the future of the faculty.'\n'Perhaps it is you they spoke of. Keep that in mind as you consider your actions.'\n'See Dan Fitzgreen in the basement.'\n'He has hatched a plan that may turn the balances in our favour.'"
p2281
sg1116
S'It is a voltage divider!'
p2282
sbsS'kenrick'
p2283
g1830
sS'dr. haugen'
p2284
(iGameClasses
Enemy
p2285
(dp2286
g12
S"'Hello, as you are likely aware, there has been a disturbance...'\n'You losing your Iron Ring was no accident, it was taken from you.'\n'The Quantum Order is an ancient fold whose goal is to protect the\nUniversity from certain doom and misuse of our knowledge.'\n'There has been an item of importance stolen from us and we need it returned immediately.'\n'Especially if you are to find your Iron Ring.'\n'The council has received intelligence that Dr. Soleymani has stolen Einstein's brain from the McMaster vault.'\n'You must retrieve it at once, she can be found somewhere in the hospital.'\n'Do not underestimate her! She has been tempted by a Dark Lord.'\n'The Quantum Order requires that you defeat her and return the brain at once!'"
p2287
sg3
(I250
I100
I999
tp2288
sg5
S'Dr. Haugen'
p2289
sg1110
S'femtosecond laser'
p2290
sg64
I01
sg1112
Nsg1113
I00
sg19
I200
sg21
g2238
sg1114
S"einstein's brain"
p2291
sg67
I00
sg1115
S"'Oh my! You've returned! I knew you could do it!'\n'Quickly, hand it over!'\nYou hand Dr. Haugen the brain and he opens the fridge placing it inside.\n'Now, we just need to mount my laser onto my bench-'\nSuddenly a rabid Grad Student bursts into the lab!\n'Hand over the brain, the Dark Lord demands it!' he says.\n'If you strike me down, I will become more powerful than\nyou could possibly imagine' Dr. Haugen replies.\nThe Grad Student lunges at Dr. Haugen who disappears entirely!\nJust before the perplexed Grad Student turns towards you he is met by your blow\nand falls to the floor."
p2292
sg1116
S'Oh my!'
p2293
sbsS'chris'
p2294
g1996
sS'dr. preston'
p2295
(iGameClasses
Enemy
p2296
(dp2297
g12
S"'I would like to improve my already impressive dad strength.'\n'Bring me a dumbbell.'"
p2298
sg3
(I250
I150
I100
tp2299
sg5
S'Dr. Preston'
p2300
sg1110
S'green lantern shirt'
p2301
sg64
I01
sg1112
Nsg1113
I00
sg19
I300
sg21
g2238
sg1114
S'dumbbell'
p2302
sg67
I00
sg1115
S"'Yes! Now I can get the pump I've been after!'\n'Go look for Dr. Buijs he has much more to tell than I.'"
p2303
sg1116
S'HOW DID YOU OVERCOME MY DAD STRENGTH?!'
p2304
sbsS'dr. nagasaki'
p2305
g1279
sS'connor the biologist'
p2306
g1540
sS'dr. novog'
p2307
(iGameClasses
Enemy
p2308
(dp2309
g12
S"What's up folks?"
p2310
sg3
(I420
I420
I420
tp2311
sg5
S'Dr. Novog'
p2312
sg1110
S'ancient incantation'
p2313
sg64
I01
sg1112
Nsg1113
I00
sg19
I100
sg21
g2238
sg1114
S'pink donut'
p2314
sg67
I00
sg1115
S"'Alright folks, here's the scoop.'\n'I could only talk to you via the fusion network because the integrity of faculty\ncommunication has been compromised.'\n'The Engineering Physics professors are actually members of an Ancient Council known as The Quantum Order.'\n'For years we have kept McMast-'\n'An assassin?'\n'Hmm... I see, things are worse than we thought.'\n'We have known of this uprising within the faculty for some time but\nwere unaware of just how strong they have grown.'\n'As you have heard, a prophecy foretold of an adventurer dictating the future of the faculty.'\n'This evil group wants nothing more than to take advantage of your power and influence for their own plans.'\n'The choices you make will be yours and yours alone, however, the Quantum Order\nurges that you consider the consequences of your actions.'\n'It is our duty to assist you in realizing your ability but what comes of your power is out of our hands.'\n'You must contact the oracles who foretold of your coming, they will give you the knowledge you require.'\n'Each member of the Quantum Order only knows of the location one Oracle.'\n'For that reason I can only help you so much.'\nDr. Novog pushes a button on a nearby control panel.\nA crane arm descends into the Reactor pool to retrieve a crate from its depths.\n'Take this incantation and find the ancient mirror in the basement of Mills Library... it is your time.'"
p2315
sg1116
g20
sbsS'mitch the ta'
p2316
g1211
sS'rod the climber'
p2317
g2163
sS'jana the vegan'
p2318
g2083
sS'steven the first-year'
p2319
g1870
sS'dr. minnick'
p2320
(iGameClasses
Enemy
p2321
(dp2322
g12
S"'Hello and welcome to how we retrieve your iron ring.'\n'The Quantum Order does not know exactly what you have done.'\n'However, we have felt the consequences of your actions.'\n'I believe the only way to explain this is to show you.'\n'The Quantum Order has gathered intelligence that Kenrick has been using\nhis oscilloscope for evil.'\n'I need you to confront him and return his oscilloscope if we are to go further.'"
p2323
sg3
(I400
I400
I400
tp2324
sg5
S'Dr. Minnick'
p2325
sg1110
S"minnick's glasses"
p2326
sg64
I01
sg1112
Nsg1113
I00
sg19
I200
sg21
g2238
sg1114
S"kenrick's oscilloscope"
p2327
sg67
I00
sg1115
S"'Ah, you have returned.'\n'You see, Kenrick has retrofitted his oscilloscope and created some sort\nof 'window' into the electronics world.'\n'Using this window he has been attempting to access the minds of the greatest\nphysicists in history and use their power for evil!'\n'Our intelligence does not go any further and we do not know what he has done.'\n'All that we do know is that after last night you must be rooted in all of this just as the prophecy foretold.'\n'Take these, if you truly are the one, they will reveal what you need to see.'\n'I suggest you start in the museum.'\n'Also, my lab has since been compromised so I will work in secret in the basement of Thode.'\n'Once you have found the next relic, my workbench will be ready...'"
p2328
sg1116
S"'I'm jealous of stupid people, they have more opportunities to learn!'"
p2329
sbsS'brian the hipster'
p2330
g1619
sS'father frobenius'
p2331
g1577
sS'paul the janitor'
p2332
g1262
sS'dr. kitai'
p2333
(iGameClasses
Enemy
p2334
(dp2335
g12
S"'I've been trying to develop a new LED...'\n'But I need some silicon, find me a Silicon Substrate please!'"
p2336
sg3
(I150
I50
I50
tp2337
sg5
S'Dr. Kitai'
p2338
sg1110
S'led of power'
p2339
sg64
I01
sg1112
Nsg1113
I00
sg19
I150
sg21
g2238
sg1114
S'silicon substrate'
p2340
sg67
I00
sg1115
S"'I've been looking for one just like this, how did you get it?'\n'Maybe you are th-'\n'Nevermind... just be on the lookout for Dr. Kleiman.'"
p2341
sg1116
S"'It was only a midterm, don't off yourself.'"
p2342
sbsS'hooded man'
p2343
g2099
sS'liam the gamer'
p2344
g1795
sS'zack the snack'
p2345
g1655
sS'larry the bus driver'
p2346
g1603
sS'megan the bartender'
p2347
g2105
sS'dr. lapierre'
p2348
(iGameClasses
Enemy
p2349
(dp2350
g12
S"'Bring me a Coffee please, I am rather tired.'"
p2351
sg3
(I100
I100
I200
tp2352
sg5
S'Dr. LaPierre'
p2353
sg1110
S'eng phys pen'
p2354
sg64
I01
sg1112
Nsg1113
I00
sg19
I300
sg21
g2238
sg1114
S'coffee'
p2355
sg67
I00
sg1115
S'Here. I nice pen for your troubles.\nGo find Dr. Knights, he has more for you to do.'
p2356
sg1116
S"I can't believe you've done this."
p2357
sbsS'brendan fallon'
p2358
(iGameClasses
Enemy
p2359
(dp2360
g12
S"What's up dude? I'm here to bless up your shit.\nDo you have my lunch box?"
p2361
sg3
(I9999
I9999
I9999
tp2362
sg5
S'Brendan Fallon'
p2363
sg1110
S'green bang bong'
p2364
sg64
I01
sg1112
Nsg1113
I00
sg19
I999
sg21
g2238
sg1114
S"brendan fallon's lunchbox"
p2365
sg67
I00
sg1115
S'THANKS! TOKE UP MY DUDES!'
p2366
sg1116
g20
sbsS'phil the drunk'
p2367
g2130
sS'undead grad student'
p2368
g1561
sS'erik the sk8r'
p2369
g1105
sS'andreas the nerd'
p2370
g1772
sS'dr. cassidy'
p2371
(iGameClasses
Enemy
p2372
(dp2373
g12
S"'Yes, I was the one who sent you on this quest.'\n'My associates were no match for you, they did not have the strength to acquire the Relics for me.'\n'I know the Quantum Order has told you that the prophecy spoke of you bringing peace.'\n'You have been lead to believe the Order fights for what is just and fair.'\n'But you have been mislead.'\n'They only wish to keep the power of the Quantum Relics to themselves so that they\nalone decide the fate of the University.'\n'I only ever wanted to reveal the true power of Engineering Physics to the students.'\n'They thought my methods were unsafe.'\n'They thought the power I intended to reveal would pollute the minds of the students\nand cloud their judgement.'\n'The Quantum Order only wishes to suppress the true power we hold!'\n'They don't trust the students, they think they are incapable of managing the power I intended to give them.'\n'We are the premier stream and we deserve to rule McMaster as such!'\n'Join me, together we can harness the powers given to you by the oracles.'\n'With the relics we may enter the Shadow Realm and retrieve the deed to the university\nfrom the spirit of Sir William McMaster.'\n'We can then overthrow the Quantum Order and shape the university to our liking and\nfinally Engineering Physics will reign supreme!'\n\nJust as Dr. Cassidy finishes speaking the ground begins to shake and you are blinded\nby a glow emanating from the statue of Sir William McMaster.\nYou recover from shielding your eyes and see the spirit of William McMaster\nemerging from a rift in fabric of spacetime!\n'Just wait, hero.'\n'I took your Iron Ring from you after you desecrated my statue last night for a reason'\n'I have known of Dr. Cassidy's intentions for some time and as you are the one\nthe prophecy has spoken of I knew he would jump at this opportunity to take my deed.'\n'I had to find a way to force him into playing his hand.'\n'Now the opportunity to rid Engineering Physics of this tyrannical Dark Lord has come!'\nDr. Cassidy quickly interjects.\n'You see, he only wants to restrict the power of our faculty!'\n'Destroy him and we shall finally rule the university!'"
p2374
sg3
(I175
I125
I200
tp2375
sg5
S'Dr. Cassidy'
p2376
sg1110
g20
sg64
I01
sg1112
Nsg1113
I00
sg19
I125
sg21
g2238
sg1114
g20
sg67
I00
sg1115
g20
sg1116
S"Dr. Cassidy falls to the ground.\nThe spirit of Sir William McMaster approaches and puts his hand on your shoulder.\n'You have chosen wisely.'\n'Dr. Cassidy had been driven mad in his quest for ultimate power.'\n'You have ensured the safety of McMaster and remained true to your values.'\n'McMaster University is an institution meant to allow all facets of learning coexist in harmony.'\n'No faculty should rule over the rest.'\n'For your actions, I believe you are a worthy engineer.'\n'Here is your Iron Ring, continue to wear it with pride.'"
p2377
sbsa(dp2378
S'red book'
p2379
g1926
sS'workbench'
p2380
g1511
sS'rules sign'
p2381
g1644
sS'old car'
p2382
g1312
sS'red car'
p2383
g1300
sS'fridge'
p2384
g1461
sS'old painting'
p2385
g1748
sS'optical bench'
p2386
g1468
sS'garbage can'
p2387
g1637
sS'uneven earth'
p2388
g1888
sS'new car'
p2389
g1316
sS'mouse'
p2390
g1363
sS'coat of arms'
p2391
g1840
sS'rca tv'
p2392
g2150
sS'sharpxchange'
p2393
g1150
sS'tri-coloured glasses'
p2394
g2211
sS'mcmaster map'
p2395
g1391
sS'blue car'
p2396
g1305
sS'blue book'
p2397
g1922
sS'broken reactor'
p2398
g1981
sS'sun dial'
p2399
g1781
sS'box of old cds'
p2400
g1667
sS'old lamp'
p2401
g2053
sS'old journal'
p2402
g2187
sS'display case'
p2403
g1484
sS'ancient mirror'
p2404
g1906
sa(dp2405
S'knights get book'
p2406
I1
sS'minnick get oscilloscope'
p2407
I1
sS'secret spaces'
p2408
I1
sS'lapierre get coffee'
p2409
I1
sS'the dark lord'
p2410
I1
sS'get key to display case'
p2411
I0
sS'haugen kill soleymani'
p2412
I1
sS'kleimann get solar cell'
p2413
I1
sS'talk to mysterious man'
p2414
I1
sS'create chaos'
p2415
I1
sS'einstein fridge'
p2416
I1
sS'university man'
p2417
I1
sS'preston get dumbbell'
p2418
I1
sS'restored order'
p2419
I1
sS'end game start'
p2420
I1
sS'novog get donut'
p2421
I1
sS'dan fix reactor'
p2422
I1
sS'maxwell portal'
p2423
I1
sS'kitai get silicon substrate'
p2424
I1
sS'feynman mirror'
p2425
I1
sS'buijs kill chris'
p2426
I1
sa(dp2427
S'version'
p2428
F0.27
sS'log'
p2429
(lp2430
S'Alpha v0.27 - Dev Update'
p2431
aS'Tyler Kashak'
p2432
aF1545976513.775
aS'--LOG START--'
p2433
aS'inventory'
p2434
aS'savegame'
p2435
asS'versionname'
p2436
g2431
sS'gamestart'
p2437
F1545976513.775
sS'playername'
p2438
g2432
sS'stepcount'
p2439
I0
sS'runtime'
p2440
F11.141999959945679
sS'commandcount'
p2441
I1
sa.