(lp0
(iGameClasses
Character
p1
(dp2
S'stats'
p3
(I1000
I1000
I1000
tp4
sS'name'
p5
S'Tyler Kashak'
p6
sS'inv'
p7
(dp8
S'body'
p9
(iGameClasses
Equipment
p10
(dp11
S'info'
p12
S'Nothing is Equipped'
p13
sg3
(I0
I0
I0
tp14
sg5
S'EMPTY'
p15
sS'image'
p16
S'EMPTY.png'
p17
sS'worn'
p18
g9
sS'health'
p19
I-101
sS'location'
p20
(lp21
I5
aI4
aI1
asbsS'head'
p22
(iGameClasses
Equipment
p23
(dp24
g12
g13
sg3
(I0
I0
I0
tp25
sg5
g15
sg16
g17
sg18
g22
sg19
I-101
sg20
g21
sbsS'off-hand'
p26
(iGameClasses
Equipment
p27
(dp28
g12
g13
sg3
(I0
I0
I0
tp29
sg5
g15
sg16
g17
sg18
g26
sg19
I-101
sg20
g21
sbsS'hand'
p30
(iGameClasses
Equipment
p31
(dp32
g12
S'The One Ring to Rule them ALL.'
p33
sg3
(I1000
I1000
I1000
tp34
sg5
S'Iron Ring'
p35
sg16
S'IronRing.jpg'
p36
sg18
g30
sg19
I-100
sg20
g21
sbssS'emptyinv'
p37
(dp38
g9
g10
sg22
g23
sg26
g27
sg30
(iGameClasses
Equipment
p39
(dp40
g12
g13
sg3
(I0
I0
I0
tp41
sg5
g15
sg16
g17
sg18
g30
sg19
I-101
sg20
g21
sbssS'alive'
p42
I01
sg19
I999
sg20
g21
sS'spoke'
p43
I00
sba(dp44
S'cheese'
p45
(iGameClasses
Equipment
p46
(dp47
g12
S'Not just cheddar, the smelly kind.'
p48
sg3
(I1
I1
I1
tp49
sg5
S'Cheese'
p50
sg16
S'Cheese.jpg'
p51
sg18
S'off-hand'
p52
sg19
I5
sg20
(I5
I7
I1
tp53
sbsS'delicious meal'
p54
(iGameClasses
Equipment
p55
(dp56
g12
S'A beautiful, home-cooked, meal.'
p57
sg3
(I1
I1
I1
tp58
sg5
S'Delicious Meal'
p59
sg16
S'Meal.jpg'
p60
sg18
g52
sg19
I25
sg20
(NNNtp61
sbsS'shovel'
p62
(iGameClasses
Equipment
p63
(dp64
g12
S'Call a spade a spade.'
p65
sg3
(I15
I0
I5
tp66
sg5
S'Shovel'
p67
sg16
S'Shovel.jpg'
p68
sg18
g30
sg19
I-101
sg20
(I5
I0
I0
tp69
sbsS'bowling ball'
p70
(iGameClasses
Equipment
p71
(dp72
g12
S'Heavy.'
p73
sg3
(I20
I15
I-5
tp74
sg5
S'Bowling Ball'
p75
sg16
S'BowlingBall.jpg'
p76
sg18
g30
sg19
I-101
sg20
g61
sbsS'led of power'
p77
(iGameClasses
Equipment
p78
(dp79
g12
S'An LED with the power output of a neutron star, ok maybe not.'
p80
sg3
(I21
I0
I20
tp81
sg5
S'LED of Power'
p82
sg16
S'LED.jpg'
p83
sg18
g30
sg19
I-101
sg20
g61
sbsS'green bang bong'
p84
(iGameClasses
Equipment
p85
(dp86
g12
S"The sacred glass flute providing righteous tokes since '69."
p87
sg3
(I420
I420
I420
tp88
sg5
S'Green Bang Bong'
p89
sg16
S'GBB.jpg'
p90
sg18
g52
sg19
I-101
sg20
g61
sbsS'gas mask'
p91
(iGameClasses
Equipment
p92
(dp93
g12
S'No one cared who I was till I put on the mask.'
p94
sg3
(I3
I6
I5
tp95
sg5
S'Gas Mask'
p96
sg16
S'GasMask.jpg'
p97
sg18
g22
sg19
I-101
sg20
(I3
I5
I1
tp98
sbsS'surgical mask'
p99
(iGameClasses
Equipment
p100
(dp101
g12
S"Don't touch me I'm sterile!"
p102
sg3
(I0
I2
I3
tp103
sg5
S'Surgical Mask'
p104
sg16
S'SurgicalMask.jpg'
p105
sg18
g22
sg19
I-101
sg20
(I0
I1
I1
tp106
sbsS'tofu'
p107
(iGameClasses
Equipment
p108
(dp109
g12
S"Vegan's delight."
p110
sg3
(I1
I0
I5
tp111
sg5
S'Tofu'
p112
sg16
S'Carrot.jpg'
p113
sg18
g30
sg19
I2
sg20
(I5
I4
I0
tp114
sbsS'jar of horse radish'
p115
(iGameClasses
Equipment
p116
(dp117
g12
S'Apparently not an instrument...'
p118
sg3
(I2
I0
I4
tp119
sg5
S'Jar of Horse Radish'
p120
sg16
S'HRaddish.jpg'
p121
sg18
g52
sg19
I3
sg20
(I4
I5
I1
tp122
sbsS'gilded blunderbuss'
p123
(iGameClasses
Equipment
p124
(dp125
g12
S'A beautiful firearm with infinite ammo.'
p126
sg3
(I200
I5
I50
tp127
sg5
S'Gilded Blunderbuss'
p128
sg16
S'Blunderbuss.jpg'
p129
sg18
g30
sg19
I-101
sg20
g61
sbsS'squash racket'
p130
(iGameClasses
Equipment
p131
(dp132
g12
S"Dr. Buijs' Racket? Voltage Divider!"
p133
sg3
(I5
I0
I8
tp134
sg5
S'Squash Racket'
p135
sg16
S'Racket.jpg'
p136
sg18
g30
sg19
I-101
sg20
(I5
I0
I1
tp137
sbsS'tarzan vhs'
p138
(iGameClasses
Equipment
p139
(dp140
g12
S'If only I had a VCR...'
p141
sg3
(I0
I2
I6
tp142
sg5
S'Tarzan VHS'
p143
sg16
S'Tarzan.jpg'
p144
sg18
g52
sg19
I3
sg20
(I0
I2
I1
tp145
sbsS'bike helmet'
p146
(iGameClasses
Equipment
p147
(dp148
g12
S'One of those fast Tour de France ones.'
p149
sg3
(I0
I8
I10
tp150
sg5
S'Bike Helmet'
p151
sg16
S'BikeHelmet.jpg'
p152
sg18
g22
sg19
I-101
sg20
(I3
I7
I1
tp153
sbsS'empty bottle'
p154
(iGameClasses
Equipment
p155
(dp156
g12
S'Dasani, more like Dishonest! Amirite?!'
p157
sg3
(I1
I0
I1
tp158
sg5
S'Empty Bottle'
p159
sg16
S'EmptyBottle.jpg'
p160
sg18
g30
sg19
I-101
sg20
(I4
I1
I1
tp161
sbsS'hard hat'
p162
(iGameClasses
Equipment
p163
(dp164
g12
S"You don't really want to look like a Civil kid. But at least it protects your head."
p165
sg3
(I1
I10
I5
tp166
sg5
S'Hard Hat'
p167
sg16
S'HardHat.jpg'
p168
sg18
g22
sg19
I-101
sg20
(I4
I2
I1
tp169
sbsS'priest gown'
p170
(iGameClasses
Equipment
p171
(dp172
g12
S'Wearing this gives people the impression you are a holy person...'
p173
sg3
(I1
I5
I3
tp174
sg5
S'Priest Gown'
p175
sg16
S'Gown.jpg'
p176
sg18
g9
sg19
I-101
sg20
(I2
I0
I2
tp177
sbsS'used plunger'
p178
(iGameClasses
Equipment
p179
(dp180
g12
S'Used. Lovely...'
p181
sg3
(I10
I0
I10
tp182
sg5
S'Used Plunger'
p183
sg16
S'Plunger.jpg'
p184
sg18
g30
sg19
I-101
sg20
g69
sbsS'dumbbell'
p185
(iGameClasses
Equipment
p186
(dp187
g12
S'The pump is the greatest feeling in the world.'
p188
sg3
(I5
I0
I2
tp189
sg5
S'Dumbbell'
p190
sg16
S'Dumbbell.jpg'
p191
sg18
g52
sg19
I-101
sg20
(I1
I0
I1
tp192
sbsS'febreze'
p193
(iGameClasses
Equipment
p194
(dp195
g12
S'Kills 99.9% of odour at the source!'
p196
sg3
(I6
I0
I10
tp197
sg5
S'Febreze'
p198
sg16
S'Ferbreze.jpg'
p199
sg18
g30
sg19
I-4
sg20
g192
sbsS'msp430'
p200
(iGameClasses
Equipment
p201
(dp202
g12
S'A literal piece of garbage.'
p203
sg3
(I-5
I0
I-5
tp204
sg5
S'MSP430'
p205
sg16
S'MSP430.jpg'
p206
sg18
g30
sg19
I-5
sg20
(I2
I3
I1
tp207
sbsS'declaration of independence'
p208
(iGameClasses
Equipment
p209
(dp210
g12
S"I'm going to steal the Declaration of Independence..."
p211
sg3
(I1
I1
I1
tp212
sg5
S'Declaration of Independence'
p213
sg16
S'DOI.jpg'
p214
sg18
g52
sg19
I-101
sg20
g61
sbsS'horrible assignment'
p215
(iGameClasses
Equipment
p216
(dp217
g12
S'A barely legible report on Fourier analysis.'
p218
sg3
(I3
I0
I0
tp219
sg5
S'Horrible Assignment'
p220
sg16
S'BadAss.jpg'
p221
sg18
g52
sg19
I-101
sg20
g61
sbsS'pope hat'
p222
(iGameClasses
Equipment
p223
(dp224
g12
S'Does the Pope where a silly hat? Now you do.'
p225
sg3
(I0
I3
I2
tp226
sg5
S'Pope Hat'
p227
sg16
S'PopeHat.jpg'
p228
sg18
g22
sg19
I-101
sg20
g177
sbsS'bottle opener'
p229
(iGameClasses
Equipment
p230
(dp231
g12
S'I wish I had a bottle of wine right about now...'
p232
sg3
(I0
I5
I15
tp233
sg5
S'Bottle Opener'
p234
sg16
S'BottleOpener.jpg'
p235
sg18
g52
sg19
I-101
sg20
g153
sbsS'car keys'
p236
(iGameClasses
Equipment
p237
(dp238
g12
S"Volkswagen car keys with an 'R' on the keychain.\nHmm..."
p239
sg3
(I5
I0
I5
tp240
sg5
S'Car Keys'
p241
sg16
S'CarKeys.jpg'
p242
sg18
g52
sg19
I-101
sg20
g169
sbsS"erik's frosted tips"
p243
(iGameClasses
Equipment
p244
(dp245
g12
S'Ever wanted to look rad as hell? Now you can!'
p246
sg3
(I0
I3
I20
tp247
sg5
S"Erik's Frosted Tips"
p248
sg16
S'FrostedTips.jpg'
p249
sg18
g22
sg19
I-101
sg20
g61
sbsS'pedrotti cubed'
p250
(iGameClasses
Equipment
p251
(dp252
g12
S"'Property of Harold Haugen, one of the 3 Quantum Relics' is inscribed on the first page."
p253
sg3
(I50
I150
I250
tp254
sg5
S'Pedrotti Cubed'
p255
sg16
S'Pedrotti.jpg'
p256
sg18
g52
sg19
I-101
sg20
g61
sbsS'puke'
p257
(iGameClasses
Equipment
p258
(dp259
g12
S'Ew, literally a pool of vomit'
p260
sg3
(I1
I0
I-10
tp261
sg5
S'Puke'
p262
sg16
S'Puke.jpg'
p263
sg18
g9
sg19
I-2
sg20
g61
sbsS'visor glasses'
p264
(iGameClasses
Equipment
p265
(dp266
g12
S'Damn, you are now travelling waaaay to fast. Slow down dude!'
p267
sg3
(I1
I5
I35
tp268
sg5
S'Visor Glasses'
p269
sg16
S'FastGlasses.jpg'
p270
sg18
g22
sg19
I-101
sg20
g61
sbsS'plastic bag'
p271
(iGameClasses
Equipment
p272
(dp273
g12
S'The audacity of some people to leave their filth around.'
p274
sg3
(I0
I1
I-10
tp275
sg5
S'Plastic Bag'
p276
sg16
S'PBag.jpg'
p277
sg18
g22
sg19
I-101
sg20
(I2
I1
I1
tp278
sbsS'broken wine bottle'
p279
(iGameClasses
Equipment
p280
(dp281
g12
S'A broken wine bottle from 1996, good year.'
p282
sg3
(I10
I0
I5
tp283
sg5
S'Broken Wine Bottle'
p284
sg16
S'WineBottle.jpg'
p285
sg18
g30
sg19
I-101
sg20
(I4
I3
I1
tp286
sbsS'jar of peanut butter'
p287
(iGameClasses
Equipment
p288
(dp289
g12
S'Death paste to those who are allergic... Could prove effective...'
p290
sg3
(I0
I5
I5
tp291
sg5
S'Jar of Peanut Butter'
p292
sg16
S'Peanut.jpg'
p293
sg18
g52
sg19
I5
sg20
(I4
I0
I1
tp294
sbsS'toilet seat'
p295
(iGameClasses
Equipment
p296
(dp297
g12
S'How do you even wear this?'
p298
sg3
(I0
I3
I2
tp299
sg5
S'Toilet Seat'
p300
sg16
S'Toilet.jpg'
p301
sg18
g9
sg19
I-101
sg20
g69
sbsS'vh sauce'
p302
(iGameClasses
Equipment
p303
(dp304
g12
S'Sweet and sour. Nice.'
p305
sg3
(I1
I2
I1
tp306
sg5
S'VH Sauce'
p307
sg16
S'VHSauce.jpg'
p308
sg18
g52
sg19
I1
sg20
(I1
I4
I1
tp309
sbsS'banana'
p310
(iGameClasses
Equipment
p311
(dp312
g12
S'High in potassium.'
p313
sg3
(I5
I0
I5
tp314
sg5
S'Banana'
p315
sg16
S'Banana.jpg'
p316
sg18
g30
sg19
I2
sg20
(I1
I7
I1
tp317
sbsS'ice-cold pint'
p318
(iGameClasses
Equipment
p319
(dp320
g12
S'Ale of the Gods.'
p321
sg3
(I3
I0
I-5
tp322
sg5
S'Ice-Cold Pint'
p323
sg16
S'Pint.jpg'
p324
sg18
g52
sg19
I2
sg20
g286
sbsS'pencil'
p325
(iGameClasses
Equipment
p326
(dp327
g12
S'HB2. Sharpened.'
p328
sg3
(I2
I0
I5
tp329
sg5
S'Pencil'
p330
sg16
S'Pencil.jpg'
p331
sg18
g30
sg19
I-101
sg20
(I2
I4
I1
tp332
sbsS'coffee'
p333
(iGameClasses
Equipment
p334
(dp335
g12
S'The fuel of thinkers.'
p336
sg3
(I3
I0
I9
tp337
sg5
S'Coffee'
p338
sg16
S'Coffee.jpg'
p339
sg18
g52
sg19
I1
sg20
g332
sbsS'capstone tools'
p340
(iGameClasses
Equipment
p341
(dp342
g12
S"Shouldn't the 4A06 students be using these?"
p343
sg3
(I1
I1
I1
tp344
sg5
S'Capstone Tools'
p345
sg16
S'CapTools.jpg'
p346
sg18
g52
sg19
I-101
sg20
g61
sbsS'cold steel katana'
p347
(iGameClasses
Equipment
p348
(dp349
g12
S'This could probably kill a buffalo fish...'
p350
sg3
(I18
I5
I20
tp351
sg5
S'Cold Steel Katana'
p352
sg16
S'Katana.jpg'
p353
sg18
g30
sg19
I-101
sg20
g61
sbsS'mop'
p354
(iGameClasses
Equipment
p355
(dp356
g12
S"I'm going to clean up this town."
p357
sg3
(I6
I0
I4
tp358
sg5
S'Mop'
p359
sg16
S'Mop.jpg'
p360
sg18
g30
sg19
I-101
sg20
(I0
I0
I1
tp361
sbsS'swordfish'
p362
(iGameClasses
Equipment
p363
(dp364
g12
S"I'd better be careful eating this!"
p365
sg3
(I10
I5
I5
tp366
sg5
S'Swordfish'
p367
sg16
S'Swordfish.jpg'
p368
sg18
g52
sg19
I12
sg20
g61
sbsS'ancient incantation'
p369
(iGameClasses
Equipment
p370
(dp371
g12
S'An old tattered scroll with an incantation written in Latin.'
p372
sg3
(I1
I1
I1
tp373
sg5
S'Ancient Incantation'
p374
sg16
S'Incantation.jpg'
p375
sg18
g52
sg19
I-101
sg20
g61
sbsS'meow mix'
p376
(iGameClasses
Equipment
p377
(dp378
g12
S'I love chicken, I love liver...'
p379
sg3
(I5
I0
I5
tp380
sg5
S'Meow Mix'
p381
sg16
S'MeowMix.jpg'
p382
sg18
g52
sg19
I1
sg20
g61
sbsS'gauss eye'
p383
(iGameClasses
Equipment
p384
(dp385
g12
S'You can feel the electromagnetic energy emanating from it, one of the 3 quantum relics'
p386
sg3
(I100
I100
I100
tp387
sg5
S'Gauss Eye'
p388
sg16
S'GaussEye.jpg'
p389
sg18
g22
sg19
I-101
sg20
g61
sbsS'phone'
p390
(iGameClasses
Equipment
p391
(dp392
g12
S"This thing has been dropped Graham's number times."
p393
sg3
(I5
I6
I9
tp394
sg5
S'Phone'
p395
sg16
S'Phone.jpg'
p396
sg18
g52
sg19
I-101
sg20
g61
sbsS'casio'
p397
(iGameClasses
Equipment
p398
(dp399
g12
S"This one can do integrals. That's illegal."
p400
sg3
(I1
I5
I10
tp401
sg5
S'Casio'
p402
sg16
S'Casio.jpg'
p403
sg18
g52
sg19
I-101
sg20
(I2
I7
I1
tp404
sbsS'vomit'
p405
(iGameClasses
Equipment
p406
(dp407
g12
S'Literally spew.'
p408
sg3
(I0
I0
I1
tp409
sg5
S'Vomit'
p410
sg16
S'Vomit.jpg'
p411
sg18
g52
sg19
I-1
sg20
g61
sbsS'bleach squirt bottle'
p412
(iGameClasses
Equipment
p413
(dp414
g12
S"Probably wouldn't be nice to get sprayed with."
p415
sg3
(I15
I5
I20
tp416
sg5
S'Bleach Squirt Bottle'
p417
sg16
S'Bleach.jpg'
p418
sg18
g30
sg19
I-10
sg20
g61
sbsS'drumstick'
p419
(iGameClasses
Equipment
p420
(dp421
g12
S"'Property of E-Smooth'"
p422
sg3
(I0
I10
I15
tp423
sg5
S'Drumstick'
p424
sg16
S'Drumstick.jpg'
p425
sg18
g52
sg19
I-101
sg20
(I5
I4
I2
tp426
sbsS"wendy's bag"
p427
(iGameClasses
Equipment
p428
(dp429
g12
S'Fully equipped with grease stains.'
p430
sg3
(I1
I0
I-5
tp431
sg5
S"Wendy's Bag"
p432
sg16
S'WendyBag.jpg'
p433
sg18
g22
sg19
I-101
sg20
(I0
I6
I1
tp434
sbsS'empty bucket'
p435
(iGameClasses
Equipment
p436
(dp437
g12
S'The smell of cheap soap still lingers.'
p438
sg3
(I0
I10
I1
tp439
sg5
S'Empty Bucket'
p440
sg16
S'Bucket.jpg'
p441
sg18
g22
sg19
I-101
sg20
g69
sbsS'old scroll'
p442
(iGameClasses
Equipment
p443
(dp444
g12
S"It reads:\n'A permanent title is too much to bear.'\n'My secret cache, is under there.'"
p445
sg3
(I0
I0
I0
tp446
sg5
S'Old Scroll'
p447
sg16
S'OldScroll.jpg'
p448
sg18
g52
sg19
I-101
sg20
g61
sbsS'pid control system'
p449
(iGameClasses
Equipment
p450
(dp451
g12
S'A PID control system. Kp = 69, my dude.'
p452
sg3
(I45
I0
I10
tp453
sg5
S'PID control system'
p454
sg16
S'PID.jpg'
p455
sg18
g22
sg19
I-101
sg20
g61
sbsS'voltage divider'
p456
(iGameClasses
Equipment
p457
(dp458
g12
S'It is a Voltage Divider!'
p459
sg3
(I20
I25
I20
tp460
sg5
S'Voltage Divider'
p461
sg16
S'VDivider.jpg'
p462
sg18
g52
sg19
I-101
sg20
g61
sbsS'santa hat'
p463
(iGameClasses
Equipment
p464
(dp465
g12
S'Happy Holidays!'
p466
sg3
(I0
I3
I2
tp467
sg5
S'Santa Hat'
p468
sg16
S'SantaHat.jpg'
p469
sg18
g22
sg19
I-101
sg20
g361
sbsS'banana wires'
p470
(iGameClasses
Equipment
p471
(dp472
g12
S'Alligator clips added for extra whippage.'
p473
sg3
(I8
I0
I8
tp474
sg5
S'Banana Wires'
p475
sg16
S'BanWires.jpg'
p476
sg18
g30
sg19
I3
sg20
(I3
I3
I1
tp477
sbsS'party hat'
p478
(iGameClasses
Equipment
p479
(dp480
g12
S'A nice hat from a cracker.'
p481
sg3
(I0
I5
I3
tp482
sg5
S'Party Hat'
p483
sg16
S'PartyHat.jpg'
p484
sg18
g22
sg19
I-101
sg20
(I3
I6
I1
tp485
sbsS'potato'
p486
(iGameClasses
Equipment
p487
(dp488
g12
S'A most versatile vegetable.\nGood for breakfast, lunch, and dinner.'
p489
sg3
(I1
I1
I1
tp490
sg5
S'Potato'
p491
sg16
S'Potato.jpg'
p492
sg18
g52
sg19
I5
sg20
g61
sbsS'shampoo'
p493
(iGameClasses
Equipment
p494
(dp495
g12
S'Yeah, I could use a shower...'
p496
sg3
(I4
I0
I3
tp497
sg5
S'Shampoo'
p498
sg16
S'Shampoo.jpg'
p499
sg18
g52
sg19
I-101
sg20
g361
sbsS'candlestick'
p500
(iGameClasses
Equipment
p501
(dp502
g12
S'Lumiere is up to no good.'
p503
sg3
(I7
I0
I5
tp504
sg5
S'Candlestick'
p505
sg16
S'Candlestick.jpg'
p506
sg18
g30
sg19
I-101
sg20
(I4
I0
I0
tp507
sbsS'gamma glove'
p508
(iGameClasses
Equipment
p509
(dp510
g12
S'Shorter than it really is due to length contraction, one of the 3 Quantum Relics'
p511
sg3
(I250
I100
I20
tp512
sg5
S'Gamma Glove'
p513
sg16
S'GammaGauntlet.jpg'
p514
sg18
g30
sg19
I-101
sg20
g61
sbsS'clean needle'
p515
(iGameClasses
Equipment
p516
(dp517
g12
S"No more spreadin' disease!"
p518
sg3
(I9
I0
I9
tp519
sg5
S'Clean Needle'
p520
sg16
S'CleanNeedle.jpg'
p521
sg18
g30
sg19
I-101
sg20
g61
sbsS'laser safety glasses'
p522
(iGameClasses
Equipment
p523
(dp524
g12
S'Protection from the UV, my dude.'
p525
sg3
(I0
I3
I5
tp526
sg5
S'Laser Safety Glasses'
p527
sg16
S'LSGlasses.jpg'
p528
sg18
g22
sg19
I-101
sg20
(I1
I6
I0
tp529
sbsS'goggles'
p530
(iGameClasses
Equipment
p531
(dp532
g12
S'Got PPE?'
p533
sg3
(I2
I0
I2
tp534
sg5
S'Goggles'
p535
sg16
S'Goggles.jpg'
p536
sg18
g22
sg19
I-101
sg20
(I3
I2
I1
tp537
sbsS'priceless painting'
p538
(iGameClasses
Equipment
p539
(dp540
g12
S'This painting is supposed to be worth millions...'
p541
sg3
(I1
I10
I5
tp542
sg5
S'Priceless Painting'
p543
sg16
S'Painting.jpg'
p544
sg18
g52
sg19
I-101
sg20
(I3
I0
I1
tp545
sbsS'paint brush'
p546
(iGameClasses
Equipment
p547
(dp548
g12
S'You can feel the emotions of a failed arts student coursing through this thing.'
p549
sg3
(I5
I0
I5
tp550
sg5
S'Paint Brush'
p551
sg16
S'Brush.jpg'
p552
sg18
g52
sg19
I-101
sg20
(I3
I1
I1
tp553
sbsS'old candle'
p554
(iGameClasses
Equipment
p555
(dp556
g12
S"Seems like it's had some use."
p557
sg3
(I0
I2
I2
tp558
sg5
S'Old Candle'
p559
sg16
S'OldCandle.jpg'
p560
sg18
g52
sg19
I-101
sg20
(I2
I0
I0
tp561
sbsS"haugen's clothes"
p562
(iGameClasses
Equipment
p563
(dp564
g12
S'OH My. The clothes of the gentle dolphin now gone.\nFeels kinda wet.'
p565
sg3
(I5
I10
I10
tp566
sg5
S"Haugen's Clothes"
p567
sg16
S'HaugenShirt.jpg'
p568
sg18
g9
sg19
I10
sg20
g61
sbsS'3w textbook'
p569
(iGameClasses
Equipment
p570
(dp571
g12
S'Text book that probably has useful information if you could read it. Too bad it has never been in the QT'
p572
sg3
(I5
I5
I10
tp573
sg5
S'3W Textbook'
p574
sg16
S'3WText.jpg'
p575
sg18
g52
sg19
I-101
sg20
g61
sbsS'fireball hat'
p576
(iGameClasses
Equipment
p577
(dp578
g12
S"Kind of like the hat you bought in first year and thought you'd wear forever..."
p579
sg3
(I0
I3
I1
tp580
sg5
S'Fireball Hat'
p581
sg16
S'EngHat.jpg'
p582
sg18
g22
sg19
I-101
sg20
(I2
I2
I1
tp583
sbsS'raybans'
p584
(iGameClasses
Equipment
p585
(dp586
g12
S'GQ Teen says Raybans, Board Shorts, Vans, and a Muscle Tee.'
p587
sg3
(I0
I1
I3
tp588
sg5
S'Raybans'
p589
sg16
S'Raybans.jpg'
p590
sg18
g22
sg19
I-101
sg20
(I5
I5
I1
tp591
sbsS'pee bottle'
p592
(iGameClasses
Equipment
p593
(dp594
g12
S'It is literally a bottle of urine.'
p595
sg3
(I4
I0
I0
tp596
sg5
S'Pee Bottle'
p597
sg16
S'PeeBottle.jpg'
p598
sg18
g30
sg19
I-101
sg20
g278
sbsS'huge shirt'
p599
(iGameClasses
Equipment
p600
(dp601
g12
S'This shirt is WAY too big'
p602
sg3
(I0
I5
I5
tp603
sg5
S'Huge Shirt'
p604
sg16
S'HugeShirt.jpg'
p605
sg18
g9
sg19
I-101
sg20
g61
sbsS'joint of destiny'
p606
(iGameClasses
Equipment
p607
(dp608
g12
S"A tighly rolled spliff filled with Devil's lettuce... for real."
p609
sg3
(I420
I420
I420
tp610
sg5
S'Joint of Destiny'
p611
sg16
S'Joint.jpg'
p612
sg18
g52
sg19
I-101
sg20
g61
sbsS'tony hawk shirt'
p613
(iGameClasses
Equipment
p614
(dp615
g12
S'A shirt personally made by tony hawk!'
p616
sg3
(I5
I5
I5
tp617
sg5
S'Tony Hawk Shirt'
p618
sg16
S'TonyHAwkShirt.jpg'
p619
sg18
g9
sg19
I-101
sg20
g98
sbsS"phil's braces"
p620
(iGameClasses
Equipment
p621
(dp622
g12
S'Bark AND the bite.'
p623
sg3
(I3
I2
I1
tp624
sg5
S"Phil's Braces"
p625
sg16
S'PhilBraces.jpg'
p626
sg18
g22
sg19
I-101
sg20
(I2
I5
I0
tp627
sbsS"kenrick's oscilloscope"
p628
(iGameClasses
Equipment
p629
(dp630
g12
S'The window into the electronics world...'
p631
sg3
(I0
I150
I50
tp632
sg5
S"Kenrick's Oscilloscope"
p633
sg16
S'Oscilloscope.jpg'
p634
sg18
g52
sg19
I-101
sg20
g61
sbsS'femtosecond laser'
p635
(iGameClasses
Equipment
p636
(dp637
g12
S"Haugen's personal femtosecond laser."
p638
sg3
(I125
I0
I999
tp639
sg5
S'Femtosecond Laser'
p640
sg16
S'Laser.jpg'
p641
sg18
g30
sg19
I-101
sg20
g61
sbsS'cricket'
p642
(iGameClasses
Equipment
p643
(dp644
g12
S'Makes the sound commonly heard at 2W lectures.'
p645
sg3
(I1
I1
I1
tp646
sg5
S'Cricket'
p647
sg16
S'Cricket.jpg'
p648
sg18
g52
sg19
I3
sg20
(I3
I3
I2
tp649
sbsS'flux capacitor'
p650
(iGameClasses
Equipment
p651
(dp652
g12
S'If only I could go back to 1985...'
p653
sg3
(I1
I1
I1
tp654
sg5
S'Flux Capacitor'
p655
sg16
S'FluxCapacitor.jpg'
p656
sg18
g30
sg19
I-101
sg20
g61
sbsS'okons chainmail'
p657
(iGameClasses
Equipment
p658
(dp659
g12
S'The sacred chainmail forged by the legend himself'
p660
sg3
(I25
I50
I25
tp661
sg5
S'Okons Chainmail'
p662
sg16
S'OkonMail.jpg'
p663
sg18
g9
sg19
I-101
sg20
(I0
I2
I0
tp664
sbsS'hazmat suit'
p665
(iGameClasses
Equipment
p666
(dp667
g12
S'Protection from all sorts of McCrindle farts...'
p668
sg3
(I0
I10
I5
tp669
sg5
S'Hazmat Suit'
p670
sg16
S'Hazmat.jpg'
p671
sg18
g9
sg19
I-101
sg20
(I2
I5
I1
tp672
sbsS'pizza box'
p673
(iGameClasses
Equipment
p674
(dp675
g12
S'Fully equipped with crusted cheese.'
p676
sg3
(I1
I5
I1
tp677
sg5
S'Pizza Box'
p678
sg16
S'PizzaBox.jpg'
p679
sg18
g9
sg19
I-101
sg20
(I0
I3
I1
tp680
sbsS'tire iron'
p681
(iGameClasses
Equipment
p682
(dp683
g12
S'Is this even a real tool? Or just a murder weapon...'
p684
sg3
(I11
I0
I3
tp685
sg5
S'Tire Iron'
p686
sg16
S'TireIron.jpg'
p687
sg18
g30
sg19
I-101
sg20
g53
sbsS'ukelele'
p688
(iGameClasses
Equipment
p689
(dp690
g12
S'Wasting away again in Margaritaville...'
p691
sg3
(I6
I0
I5
tp692
sg5
S'Ukelele'
p693
sg16
S'Ukelele.jpg'
p694
sg18
g30
sg19
I-101
sg20
(I4
I4
I1
tp695
sbsS'fanny pack'
p696
(iGameClasses
Equipment
p697
(dp698
g12
S'Made for style. Not for carrying.'
p699
sg3
(I3
I8
I15
tp700
sg5
S'Fanny Pack'
p701
sg16
S'FannyPack.jpg'
p702
sg18
g9
sg19
I-101
sg20
g61
sbsS"einstein's brain"
p703
(iGameClasses
Equipment
p704
(dp705
g12
S"Feel's kind of weird walking around with this..."
p706
sg3
(I1
I1
I1
tp707
sg5
S"Einstein's Brain"
p708
sg16
S'Brain.jpg'
p709
sg18
g52
sg19
I10
sg20
g61
sbsS'lenovo laptop'
p710
(iGameClasses
Equipment
p711
(dp712
g12
S'This heap of computing majesty could block bullets... I think...'
p713
sg3
(I5
I15
I-5
tp714
sg5
S'Lenovo Laptop'
p715
sg16
S'Lenovo.jpg'
p716
sg18
g52
sg19
I-101
sg20
(I1
I5
I2
tp717
sbsS"brendan fallon's lunchbox"
p718
(iGameClasses
Equipment
p719
(dp720
g12
S'The Lunch Box of an Ancient Hero. Full of samosas'
p721
sg3
(I5
I10
I5
tp722
sg5
S"Brendan Fallon's Lunchbox"
p723
sg16
S'Lunchbox.jpg'
p724
sg18
g52
sg19
I-101
sg20
(I3
I3
I0
tp725
sbsS'ambifacient lunar waneshaft'
p726
(iGameClasses
Equipment
p727
(dp728
g12
S'The design consists simply of six hydrocoptic marzlevanes,\nthey fit to the ambifacient lunar waneshaft so that side fumbling is effectively prevented'
p729
sg3
(I1
I1
I1
tp730
sg5
S'Ambifacient Lunar Waneshaft'
p731
sg16
S'Dumbness.jpg'
p732
sg18
g52
sg19
I-101
sg20
g61
sbsS'eng phys pen'
p733
(iGameClasses
Equipment
p734
(dp735
g12
S'It would be amazing if this thing actually worked. Plug it in and find all of 2P04.'
p736
sg3
(I5
I0
I5
tp737
sg5
S'Eng Phys Pen'
p738
sg16
S'PhysPen.jpg'
p739
sg18
g30
sg19
I-101
sg20
g61
sbsS'space pop'
p740
(iGameClasses
Equipment
p741
(dp742
g12
S'Get ready to go to space pop city.'
p743
sg3
(I4
I0
I10
tp744
sg5
S'Space Pop'
p745
sg16
S'SpacePop.jgp'
p746
sg18
g30
sg19
I1
sg20
(I1
I7
I2
tp747
sbsS'hockey pads'
p748
(iGameClasses
Equipment
p749
(dp750
g12
S"IM NOT WEARIN' HOCKEY PADS!"
p751
sg3
(I3
I13
I5
tp752
sg5
S'Hockey Pads'
p753
sg16
S'HockeyPads.jpg'
p754
sg18
g9
sg19
I-101
sg20
g53
sbsS'old ladder'
p755
(iGameClasses
Equipment
p756
(dp757
g12
S'Pretty rickety but would work for climbing.'
p758
sg3
(I14
I8
I-15
tp759
sg5
S'Old Ladder'
p760
sg16
S'OldLadder.jpg'
p761
sg18
g52
sg19
I-101
sg20
(I0
I7
I1
tp762
sbsS'pink donut'
p763
(iGameClasses
Equipment
p764
(dp765
g12
S'This is what fusion is all about?'
p766
sg3
(I1
I1
I1
tp767
sg5
S'Pink Donut'
p768
sg16
S'PinkDonut.jpg'
p769
sg18
g52
sg19
I2
sg20
g61
sbsS'relativistic key'
p770
(iGameClasses
Equipment
p771
(dp772
g12
S'You can feel the power radiating from this thing.'
p773
sg3
(I1
I1
I1
tp774
sg5
S'Relativistic Key'
p775
sg16
S'Relativistickey.jpg'
p776
sg18
g30
sg19
I-101
sg20
g61
sbsS'stylish watch'
p777
(iGameClasses
Equipment
p778
(dp779
g12
S'If only you learned how to tell time on an analog clock...'
p780
sg3
(I0
I15
I20
tp781
sg5
S'Stylish Watch'
p782
sg16
S'watch.jpg'
p783
sg18
g52
sg19
I-101
sg20
g61
sbsS'solar ray'
p784
(iGameClasses
Equipment
p785
(dp786
g12
S'The literal power of the Sun!'
p787
sg3
(I100
I20
I50
tp788
sg5
S'Solar Ray'
p789
sg16
S'SolarRay.jpg'
p790
sg18
g30
sg19
I-101
sg20
g61
sbsS'starbucks apron'
p791
(iGameClasses
Equipment
p792
(dp793
g12
S'If you put this on do you immediately know how to make a frappe?'
p794
sg3
(I1
I5
I5
tp795
sg5
S'Starbucks Apron'
p796
sg16
S'Apron.jpg'
p797
sg18
g9
sg19
I-101
sg20
g137
sbsS'maroon jumpsuit'
p798
(iGameClasses
Equipment
p799
(dp800
g12
S'Overalls of the Maroons'
p801
sg3
(I1
I8
I5
tp802
sg5
S'Maroon Jumpsuit'
p803
sg16
S'MaroonSuit.jpg'
p804
sg18
g9
sg19
I-101
sg20
(I5
I1
I1
tp805
sbsS'needa pita'
p806
(iGameClasses
Equipment
p807
(dp808
g12
S'Better have gotten black olives on that'
p809
sg3
(I2
I0
I1
tp810
sg5
S'Needa Pita'
p811
sg16
S'Pita.jpg'
p812
sg18
g30
sg19
I5
sg20
(I4
I6
I1
tp813
sbsS'lamp'
p814
(iGameClasses
Equipment
p815
(dp816
g12
S'I love lamp.'
p817
sg3
(I8
I0
I4
tp818
sg5
S'Lamp'
p819
sg16
S'Lamp.jpg'
p820
sg18
g30
sg19
I-101
sg20
(I0
I5
I1
tp821
sbsS'redsuit'
p822
(iGameClasses
Equipment
p823
(dp824
g12
S'Overalls of drunks... I mean engineers'
p825
sg3
(I5
I5
I5
tp826
sg5
S'Redsuit'
p827
sg16
S'Redsuit.jpg'
p828
sg18
g9
sg19
I-101
sg20
(I2
I4
I2
tp829
sbsS'cold beer'
p830
(iGameClasses
Equipment
p831
(dp832
g12
S'A freshly brewed pint from Andy Knights himself.'
p833
sg3
(I15
I0
I20
tp834
sg5
S'Cold Beer'
p835
sg16
S'ColdBeer.jpg'
p836
sg18
g52
sg19
I2
sg20
g61
sbsS'eng phys shirt'
p837
(iGameClasses
Equipment
p838
(dp839
g12
S'Rolling Rock baby! Premium Stream my ass... More like premium pain...'
p840
sg3
(I0
I7
I5
tp841
sg5
S'Eng Phys Shirt'
p842
sg16
S'EngPhysShirt.jpg'
p843
sg18
g9
sg19
I-101
sg20
g725
sbsS'pvc pipe'
p844
(iGameClasses
Equipment
p845
(dp846
g12
S'Probably part of a PID project...'
p847
sg3
(I9
I2
I10
tp848
sg5
S'PVC Pipe'
p849
sg16
S'PVCPipe.jpg'
p850
sg18
g30
sg19
I-101
sg20
(I4
I7
I1
tp851
sbsS'couch cushion'
p852
(iGameClasses
Equipment
p853
(dp854
g12
S'I hope I find I pillow fight.'
p855
sg3
(I4
I10
I1
tp856
sg5
S'Couch Cushion'
p857
sg16
S'CCushion.jpg'
p858
sg18
g52
sg19
I-101
sg20
g317
sbsS'fake gun'
p859
(iGameClasses
Equipment
p860
(dp861
g12
S'Is this seriously what at the MAC cops carry...'
p862
sg3
(I5
I0
I5
tp863
sg5
S'Fake Gun'
p864
sg16
S'FakeGun.jpg'
p865
sg18
g30
sg19
I-101
sg20
g61
sbsS'iron ring'
p866
g31
sS"minnick's glasses"
p867
(iGameClasses
Equipment
p868
(dp869
g12
S'The spectacles of a wizard from the High Order of the Ancient Council.'
p870
sg3
(I100
I100
I100
tp871
sg5
S"Minnick's Glasses"
p872
sg16
S'MinnickGlasses.jpg'
p873
sg18
g22
sg19
I-101
sg20
g61
sbsS'frisbee'
p874
(iGameClasses
Equipment
p875
(dp876
g12
S'Look at the flick of the wrist!'
p877
sg3
(I3
I0
I5
tp878
sg5
S'Frisbee'
p879
sg16
S'Frisbee.jpg'
p880
sg18
g30
sg19
I-101
sg20
g583
sbsS'butter knife'
p881
(iGameClasses
Equipment
p882
(dp883
g12
S'Meant for spreading, not stabbing...'
p884
sg3
(I4
I0
I5
tp885
sg5
S'Butter Knife'
p886
sg16
S'ButterKnife.jpg'
p887
sg18
g30
sg19
I-101
sg20
g813
sbsS'guitar'
p888
(iGameClasses
Equipment
p889
(dp890
g12
S'Monster Mash.'
p891
sg3
(I10
I3
I5
tp892
sg5
S'Guitar'
p893
sg16
S'Guitar.jpg'
p894
sg18
g30
sg19
I-101
sg20
g61
sbsS'old headphones'
p895
(iGameClasses
Equipment
p896
(dp897
g12
S'Old frayed apple headphones. Good for whipping.'
p898
sg3
(I5
I0
I5
tp899
sg5
S'Old Headphones'
p900
sg16
S'OldHeadphones.jpg'
p901
sg18
g30
sg19
I-101
sg20
(I1
I5
I1
tp902
sbsS'old car keys'
p903
(iGameClasses
Equipment
p904
(dp905
g12
S'Fun for babies. Not for Batman.'
p906
sg3
(I7
I0
I15
tp907
sg5
S'Old Car Keys'
p908
sg16
g242
sg18
g30
sg19
I-101
sg20
g434
sbsS'hulk hands'
p909
(iGameClasses
Equipment
p910
(dp911
g12
S'These pack a serious punch...'
p912
sg3
(I15
I5
I20
tp913
sg5
S'Hulk Hands'
p914
sg16
S'HulkHands.jpg'
p915
sg18
g30
sg19
I-101
sg20
(I0
I3
I0
tp916
sbsS'adderall'
p917
(iGameClasses
Equipment
p918
(dp919
g12
S'Speed up, my dude!'
p920
sg3
(I0
I0
I50
tp921
sg5
S'Adderall'
p922
sg16
S'Adderall.jpg'
p923
sg18
g52
sg19
I2
sg20
(I5
I3
I1
tp924
sbsS'goldfish'
p925
(iGameClasses
Equipment
p926
(dp927
g12
S'Fun fact, not made of real gold.'
p928
sg3
(I1
I1
I1
tp929
sg5
S'Goldfish'
p930
sg16
S'Goldfish.jpg'
p931
sg18
g52
sg19
I4
sg20
g177
sbsS"frank's red hot"
p932
(iGameClasses
Equipment
p933
(dp934
g12
S'I put that...'
p935
sg3
(I3
I0
I2
tp936
sg5
S"Frank's Red Hot"
p937
sg16
S'FranksRed.jpg'
p938
sg18
g52
sg19
I1
sg20
(I0
I4
I1
tp939
sbsS'silicon substrate'
p940
(iGameClasses
Equipment
p941
(dp942
g12
S'A bulk silicon wafer.'
p943
sg3
(I1
I1
I1
tp944
sg5
S'Silicon Substrate'
p945
sg16
S'Substrate.jpg'
p946
sg18
g52
sg19
I-101
sg20
(I0
I3
I2
tp947
sbsS"faraday's cage"
p948
(iGameClasses
Equipment
p949
(dp950
g12
S'Faraday cage.'
p951
sg3
(I20
I75
I15
tp952
sg5
S"Faraday's Cage"
p953
sg16
S'Faraday.jpg'
p954
sg18
g22
sg19
I-101
sg20
g61
sbsS'rusty key'
p955
(iGameClasses
Equipment
p956
(dp957
g12
S"You can just about read:\n'By the building where the smallest are seen.'\n'This key will provide for those who are keen'"
p958
sg3
(I1
I1
I1
tp959
sg5
S'Rusty Key'
p960
sg16
S'RustyKey.jpg'
p961
sg18
g52
sg19
I-101
sg20
g61
sbsS'wood shield'
p962
(iGameClasses
Equipment
p963
(dp964
g12
S'An old wooden shield used in a play, you think...'
p965
sg3
(I5
I20
I-5
tp966
sg5
S'Wood Shield'
p967
sg16
S'Shield.jpg'
p968
sg18
g52
sg19
I-101
sg20
g426
sbsS'paper towels'
p969
(iGameClasses
Equipment
p970
(dp971
g12
S"WHERE'S THE PAPER TOWELS?"
p972
sg3
(I2
I0
I1
tp973
sg5
S'Paper Towels'
p974
sg16
S'PaperTowels.jpg'
p975
sg18
g52
sg19
I-101
sg20
(I0
I5
I2
tp976
sbsS'engineering mug'
p977
(iGameClasses
Equipment
p978
(dp979
g12
S'Do people even have these anymore?'
p980
sg3
(I1
I0
I2
tp981
sg5
S'Engineering Mug'
p982
sg16
S'EngMug.jpg'
p983
sg18
g30
sg19
I-101
sg20
g61
sbsS'blazer'
p984
(iGameClasses
Equipment
p985
(dp986
g12
S'Styyyyyylishhhhhh'
p987
sg3
(I0
I4
I1
tp988
sg5
S'Blazer'
p989
sg16
S'Blazer.jpg'
p990
sg18
g9
sg19
I-101
sg20
(I5
I6
I1
tp991
sbsS'high vis vest'
p992
(iGameClasses
Equipment
p993
(dp994
g12
S'Safety first, folks.'
p995
sg3
(I0
I5
I3
tp996
sg5
S'High Vis Vest'
p997
sg16
S'HighVis.jpg'
p998
sg18
g9
sg19
I-101
sg20
(I2
I6
I1
tp999
sbsS'big hits shirt'
p1000
(iGameClasses
Equipment
p1001
(dp1002
g12
S'The Shirt of the Hero of Kyvach!'
p1003
sg3
(I10
I5
I5
tp1004
sg5
S'Big Hits Shirt'
p1005
sg16
S'BigHits.jpg'
p1006
sg18
g9
sg19
I-101
sg20
(I6
I1
I1
tp1007
sbsS'jar of mayo'
p1008
(iGameClasses
Equipment
p1009
(dp1010
g12
S'Is mayonaise an instrument?'
p1011
sg3
(I3
I0
I5
tp1012
sg5
S'Jar of Mayo'
p1013
sg16
S'Mayo.jpg'
p1014
sg18
g52
sg19
I1
sg20
g145
sbsS'holy bible'
p1015
(iGameClasses
Equipment
p1016
(dp1017
g12
S'King James version...'
p1018
sg3
(I3
I0
I3
tp1019
sg5
S'Holy Bible'
p1020
sg16
S'Bible.jpg'
p1021
sg18
g52
sg19
I-101
sg20
(I2
I0
I1
tp1022
sbsS'griffiths electrodynamics'
p1023
(iGameClasses
Equipment
p1024
(dp1025
g12
S'The holy scriptures which govern the fabric of our being'
p1026
sg3
(I0
I10
I5
tp1027
sg5
S'Griffiths Electrodynamics'
p1028
sg16
S'Griffiths.jpg'
p1029
sg18
g52
sg19
I-101
sg20
g829
sbsS'skateboard'
p1030
(iGameClasses
Equipment
p1031
(dp1032
g12
S'Cowabunga, dude.'
p1033
sg3
(I9
I0
I10
tp1034
sg5
S'Skateboard'
p1035
sg16
S'Skateboard.jpg'
p1036
sg18
g30
sg19
I-101
sg20
(I0
I0
I0
tp1037
sbsS'diary of the fallen'
p1038
(iGameClasses
Equipment
p1039
(dp1040
g12
S'The personal notes of an ancient Hero.'
p1041
sg3
(I25
I20
I30
tp1042
sg5
S'Diary of the Fallen'
p1043
sg16
S'Diary.jpg'
p1044
sg18
g52
sg19
I-101
sg20
g664
sbsS'green lantern shirt'
p1045
(iGameClasses
Equipment
p1046
(dp1047
g12
S'Darkest day... Darkest night...'
p1048
sg3
(I15
I15
I10
tp1049
sg5
S'Green Lantern Shirt'
p1050
sg16
S'GLShirt.jpg'
p1051
sg18
g9
sg19
I-101
sg20
g61
sbsS'dirty needle'
p1052
(iGameClasses
Equipment
p1053
(dp1054
g12
S"This isn't clean. Someone find me a SharpXchange!"
p1055
sg3
(I7
I0
I5
tp1056
sg5
S'Dirty Needle'
p1057
sg16
S'Needle.jpg'
p1058
sg18
g30
sg19
I-101
sg20
g939
sbsS'willy dog'
p1059
(iGameClasses
Equipment
p1060
(dp1061
g12
S'Definitely not vegan'
p1062
sg3
(I1
I0
I2
tp1063
sg5
S'Willy Dog'
p1064
sg16
S'Hotdog.jpg'
p1065
sg18
g30
sg19
I5
sg20
g161
sbsS'crucifix'
p1066
(iGameClasses
Equipment
p1067
(dp1068
g12
S'The Power of Chirst compels you!'
p1069
sg3
(I10
I0
I10
tp1070
sg5
S'Crucifix'
p1071
sg16
S'Crucifix.jpg'
p1072
sg18
g30
sg19
I-101
sg20
g61
sbsS'wrench'
p1073
(iGameClasses
Equipment
p1074
(dp1075
g12
S"It's a wrench. 22mm."
p1076
sg3
(I9
I0
I2
tp1077
sg5
S'Wrench'
p1078
sg16
S'Wrench.jpg'
p1079
sg18
g30
sg19
I-101
sg20
(I1
I3
I1
tp1080
sbsS'wool sweater'
p1081
(iGameClasses
Equipment
p1082
(dp1083
g12
S'Just like grandma makes.'
p1084
sg3
(I1
I4
I6
tp1085
sg5
S'Wool Sweater'
p1086
sg16
S'WoolSweater.jpg'
p1087
sg18
g9
sg19
I-101
sg20
g924
sbsS'solar cell'
p1088
(iGameClasses
Equipment
p1089
(dp1090
g12
S"Harness the power of the Sun!\nI really hope I don't drop this..."
p1091
sg3
(I1
I1
I1
tp1092
sg5
S'Solar Cell'
p1093
sg16
S'SolarCell.jpg'
p1094
sg18
g52
sg19
I-101
sg20
g61
sbsa((lp1095
(lp1096
(iGameClasses
Map
p1097
(dp1098
g12
S'PARKING GARAGE:\nYou can only go back up to the Hospital.'
p1099
sS'ENEMY'
p1100
(lp1101
(iGameClasses
Enemy
p1102
(dp1103
g12
S"'Check out this tre flip, pretty tight eh?'"
p1104
sg3
(I15
I15
I40
tp1105
sg5
S'Erik the Sk8r'
p1106
sS'drop'
p1107
S"erik's frosted tips"
p1108
sg42
I01
sS'item'
p1109
NsS'quest'
p1110
I00
sg19
I20
sg20
g1037
sS'need'
p1111
Nsg43
I00
sS'Sinfo'
p1112
S''
p1113
sS'Dinfo'
p1114
S"Man, that's dumb!"
p1115
sbasg5
S'Parking Garage'
p1116
sS'items'
p1117
(lp1118
g1031
asS'interact'
p1119
(lp1120
sS'walls'
p1121
(S'f'
p1122
S'b'
p1123
S'l'
p1124
S'r'
p1125
S'd'
p1126
tp1127
sS'coords'
p1128
g1037
sS'lore'
p1129
S'The smooth floor down here makes an excellent skate surface.\nRad.\nIf only you learned how to kickflip.'
p1130
sS'travelled'
p1131
I1
sba(iGameClasses
Map
p1132
(dp1133
g12
S'HOSPITAL EAST WING:\nIn front of you is the West Wing. MDCL is to your right.\nThe Parking Garage is below you.'
p1134
sg1100
(lp1135
sg5
S'East Hospital'
p1136
sg1117
(lp1137
g464
ag355
ag494
asg1119
(lp1138
sg1121
(g1124
g1123
tp1139
sg1128
g361
sg1129
S'You smile as you overhear a conversation between a doctor and a family.\nTurns out their child is going to make a full recovery.\nThanks science.'
p1140
sg1131
I1
sbaNaNaa(lp1141
Na(iGameClasses
Map
p1142
(dp1143
g12
S'HOSPITAL WEST WING:\nIn front of your is T-13. To your right is the Health Sci Library.\nThe East Wing of the Hospital is behind you.\nYou can go upstairs.'
p1144
sg1100
(lp1145
sg5
S'West Hospital'
p1146
sg1117
(lp1147
g100
a(iGameClasses
Interact
p1148
(dp1149
g12
S'Would you like to exchange a needle?'
p1150
sg5
S'SharpXChange'
p1151
sg1107
S'clean needle'
p1152
sg1110
I00
sg20
g106
sg1111
S'dirty needle'
p1153
sg1112
S'Needle Accepted!'
p1154
sbasg1119
(lp1155
sg1121
g1124
sg1128
g106
sg1129
S"Doctors and Nurses rush around you.\nYou remember why you didn't want to become a doctor as you\nnearly faint looking at a patient's paper cut in the waiting room.\nAfter a drink from the water fountain you plan what to do."
p1156
sg1131
I1
sba(iGameClasses
Map
p1157
(dp1158
g12
S'2ND FLOOR W WING:\nYou can only go back down the stairs.'
p1159
sg1100
(lp1160
(iGameClasses
Enemy
p1161
(dp1162
g12
S"'Are you interested in a research position?'"
p1163
sg3
(I100
I100
I100
tp1164
sg5
S'Dr. Soleymani'
p1165
sg1107
S"einstein's brain"
p1166
sg42
I01
sg1109
Nsg1110
I00
sg19
I75
sg20
(I0
I1
I2
tp1167
sg1111
Nsg43
I00
sg1112
g1113
sg1114
S'NOOO! The Dark Lord will never forgive me!'
p1168
sbasg5
S'2nd Floor W Wing'
p1169
sg1117
(lp1170
sg1119
(lp1171
sg1121
(g1122
g1123
g1124
g1125
S'u'
p1172
tp1173
sg1128
g1167
sg1129
S"The endless number of rooms are mesmerizing.\nYou don't even know which way to go.\nAfter being lost for 2 hours you circle back to where you entered."
p1174
sg1131
I1
sbaNaa(lp1175
(iGameClasses
Map
p1176
(dp1177
g12
S'SECRET ROOM!:\nGo up to climb out.'
p1178
sg1100
(lp1179
sg5
S'Secret Trapdoor!'
p1180
sg1117
(lp1181
g658
ag1039
asg1119
(lp1182
sg1121
(g1122
g1123
g1124
g1125
g1126
tp1183
sg1128
g664
sg1129
S'You uncover a trapdoor after pulling up a loose floor tile.\nUpon descending you see stacks of failed midterms and assorted books all around you.\nA suit of armor and a chainmail flag with a skull on it are barely visible.\nWho made this place anyway?'
p1184
sg1131
I1
sba(iGameClasses
Map
p1185
(dp1186
g12
S'T-13:\nETB is in front of you. The McMaster Map is to your right.\nThe West Wing of the Hospital is behind you.'
p1187
sg1100
(lp1188
sg5
S'T-13'
p1189
sg1117
(lp1190
g1009
ag139
asg1119
(lp1191
sg1121
(lp1192
g1124
ag1126
asg1128
g145
sg1129
S"How many bad invigilators does it take to screw in a light bulb?\nI'm not sure but they took my damn Casio FX-911+C..."
p1193
sg1131
I1
sbaNaNaa(lp1194
(iGameClasses
Map
p1195
(dp1196
g12
S'ETB BASEMENT:\nYou can only go back up to the main floor.'
p1197
sg1100
(lp1198
sg5
S'ETB Basement'
p1199
sg1117
(lp1200
g910
asg1119
(lp1201
sg1121
(g1122
g1123
g1124
g1125
g1126
tp1202
sg1128
g916
sg1129
S'After getting lost in a maze of corridors and locked rooms you stumble\nacross a door that is slightly ajar.\nYou open the door to reveal a rather small dark room.\nYou flick on the light switch.'
p1203
sg1131
I1
sba(iGameClasses
Map
p1204
(dp1205
g12
S'ETB:\nTo your right is the Hatch Building. An alleyway is in front of you.\nT-13 is behind you. You can also go upstairs.'
p1206
sg1100
(lp1207
(iGameClasses
Enemy
p1208
(dp1209
g12
S"'Hey, I saw your picture on Instagram!'\n'They let you get away with doing that to the Willy McMaster statue?'"
p1210
sg3
(I10
I5
I10
tp1211
sg5
S'Mitch the TA'
p1212
sg1107
S'phone'
p1213
sg42
I01
sg1109
Nsg1110
I00
sg19
I25
sg20
g680
sg1111
Nsg43
I00
sg1112
g1113
sg1114
S"There's my phone."
p1214
sbasg5
S'ETB'
p1215
sg1117
(lp1216
g674
asg1119
(lp1217
sg1121
g1124
sg1128
g680
sg1129
S'The memories of actually doing something in first year flood your mind.\nGear trains. Python. 3D printing.\nEngineering had such a different meaning in your first year...\nYou plan your next move.'
p1218
sg1131
I1
sba(iGameClasses
Map
p1219
(dp1220
g12
S'2ND FLOOR ETB:\nYou can only go back down the stairs.'
p1221
sg1100
(lp1222
sg5
S'2nd Floor ETB'
p1223
sg1117
(lp1224
g941
asg1119
(lp1225
sg1121
(g1122
g1123
g1124
g1125
g1172
tp1226
sg1128
g947
sg1129
S'You realize you really have never come up here.\nYou see 4th year Eng Phys students hurry out of a long-winded lecture.\nAfter picking a booger.\nYou plan your next move.'
p1227
sg1131
I1
sbaNaa(lp1228
Na(iGameClasses
Map
p1229
(dp1230
g12
S'ALLEY:\nITB is in front of you. ETB is behind you.\nYou can enter Hatch to your right.'
p1231
sg1100
(lp1232
sg5
S'Alley'
p1233
sg1117
(lp1234
g1053
ag933
asg1119
(lp1235
sg1121
g1124
sg1128
g939
sg1129
S'As you head down the narrow path between ITB and ETB you hear car horns blaring down Main Street.\nYou gather up some trash and put it in a garbage can like a good McMasterian.\nThen plan your next move.'
p1236
sg1131
I1
sbaNaNaa(lp1237
(iGameClasses
Map
p1238
(dp1239
g12
S'ITB BASEMENT:\nYou can only go back up to the main floor.'
p1240
sg1100
(lp1241
(iGameClasses
Enemy
p1242
(dp1243
g12
S"'Huge talking to people play.'"
p1244
sg3
(I20
I15
I20
tp1245
sg5
S'Eric the Baller'
p1246
sg1107
S'cold steel katana'
p1247
sg42
I01
sg1109
Nsg1110
I00
sg19
I50
sg20
(I0
I5
I0
tp1248
sg1111
Nsg43
I00
sg1112
g1113
sg1114
S'This is sub-optimal.'
p1249
sbasg5
S'ITB Basement'
p1250
sg1117
(lp1251
sg1119
(lp1252
sg1121
(g1122
g1123
g1124
g1125
g1126
tp1253
sg1128
g1248
sg1129
S"As if the upstairs floor plan wasn't bad enough...\nAfter another 3 hours wandering around you are back where you started\nand don't feel like you learned anything..."
p1254
sg1131
I1
sba(iGameClasses
Map
p1255
(dp1256
g12
S'ITB:\nJHE-Annex is to your right. Lot I is in front of you.\nAn alley is behind you. You can go up OR down the stairs.'
p1257
sg1100
(lp1258
(iGameClasses
Enemy
p1259
(dp1260
g12
S"'Hey brother, I really could use some Febreze.'"
p1261
sg3
(I20
I20
I20
tp1262
sg5
S'Paul the Janitor'
p1263
sg1107
S'bleach squirt bottle'
p1264
sg42
I01
sg1109
Nsg1110
I00
sg19
I20
sg20
g821
sg1111
S'febreze'
p1265
sg43
I00
sg1112
S'Rock on brother! Thanks so much!'
p1266
sg1114
S"NOOO, Now I can't go see Black Sabbath!"
p1267
sbasg5
S'ITB'
p1268
sg1117
(lp1269
g815
asg1119
(lp1270
sg1121
g1124
sg1128
g821
sg1129
S'McMaster, back at it again with the horrible floor plan.\nAfter getting lost for 5 hours you finally reach the lobby\nand decide what to do.'
p1271
sg1131
I1
sba(iGameClasses
Map
p1272
(dp1273
g12
S'2ND FLOOR ITB:\nYou can only go back down the stairs.'
p1274
sg1100
(lp1275
(iGameClasses
Enemy
p1276
(dp1277
g12
S"'My grand invention is almost complete...'"
p1278
sg3
(I100
I100
I100
tp1279
sg5
S'Dr. Nagasaki'
p1280
sg1107
S'flux capacitor'
p1281
sg42
I01
sg1109
Nsg1110
I00
sg19
I75
sg20
g976
sg1111
S'ambifacient lunar waneshaft'
p1282
sg43
I00
sg1112
S"'Yes!'\n'I have been looking for one exactly like that!'\n'Quicky, go to the basement of the Tandem Accelerator!'\n'The High Council is counting on you.'"
p1283
sg1114
S'NOOOO! NOW I WILL NEVER PLEASE THE DARK LORD!'
p1284
sbasg5
S'2nd Floor ITB'
p1285
sg1117
(lp1286
g970
asg1119
(lp1287
sg1121
(g1122
g1123
g1124
g1125
g1172
tp1288
sg1128
g976
sg1129
S"Walking around up here you don't find much other than lab benches with strange instruments.\nThis place gives you the impression that there must be some high level engineering physics going on..."
p1289
sg1131
I1
sbaNaa(lp1290
Na(iGameClasses
Map
p1291
(dp1292
g12
S'LOT I:\nABB is to your right. Cootes Drive is in front of you.\nITB is to your rear.'
p1293
sg1100
(lp1294
sg5
S'Lot I'
p1295
sg1117
(lp1296
g428
ag904
a(iGameClasses
Interact
p1297
(dp1298
g12
S"A red Dodge Avenger...\nPeering into the window you can't really see much."
p1299
sg5
S'Red Car'
p1300
sg1107
Nsg1110
I00
sg20
g434
sg1111
Nsg1112
S'N/A'
p1301
sba(iGameClasses
Interact
p1302
(dp1303
g12
S"A blue Ford Mustang...\nPeering into the window you can't really see much."
p1304
sg5
S'Blue Car'
p1305
sg1107
S'potato'
p1306
sg1110
I00
sg20
g434
sg1111
S'tire iron'
p1307
sg1112
S'You smash open the window with the tire iron, breaking it in the process.\nYou unlock and open the door...\nTo reveal a potato.'
p1308
sba(iGameClasses
Interact
p1309
(dp1310
g12
S"An old Datsun...\nPeering into the window you can't really see much."
p1311
sg5
S'Old Car'
p1312
sg1107
Nsg1110
I00
sg20
g434
sg1111
Nsg1112
g1301
sba(iGameClasses
Interact
p1313
(dp1314
g12
S"A new Volkswagen...\nPeering into the window you can't really see much."
p1315
sg5
S'New Car'
p1316
sg1107
S'bowling ball'
p1317
sg1110
I00
sg20
g434
sg1111
S'car keys'
p1318
sg1112
S'You open the car and rummage around.\nUnderneath one of the seats you find a bowling ball!'
p1319
sbasg1119
(lp1320
sg1121
g1124
sg1128
g434
sg1129
S"Nope, your car isn't here.\nMaybe you parked in Lot M? Maybe not.\nAfter scoffing at all of the prof Mercedes that are way too nice...\nYou think of what to do."
p1321
sg1131
I1
sbaNaNaa(lp1322
Na(iGameClasses
Map
p1323
(dp1324
g12
S'COOTES DRIVE:\nThode is to your right. Lot I is behind you.'
p1325
sg1100
(lp1326
sg5
S'Cootes Dr.'
p1327
sg1117
(lp1328
g756
asg1119
(lp1329
sg1121
(g1122
g1124
tp1330
sg1128
g762
sg1129
S'You notice a series of pickup trucks for what must be a landscaping or construction company.\nThere is construction gear spread all over the place.\nThe sound of sirens grows louder as an ambulance suddenly rushes by.\nYou collect yourself and consider what to do next.'
p1331
sg1131
I1
sbaNaNaa(lp1332
NaNaNaNaa(lp1333
(lp1334
Na(iGameClasses
Map
p1335
(dp1336
g12
S'MDCL:\nThe East Wing of the Hospital is to your left. Health Sci library is forward.'
p1337
sg1100
(lp1338
sg5
S'MDCL'
p1339
sg1117
(lp1340
g194
ag186
asg1119
(lp1341
sg1121
(g1123
g1125
tp1342
sg1128
g192
sg1129
S'After a solid 5 minutes of meditation in the reflection area.\nYou make your next decision feeling refreshed.'
p1343
sg1131
I1
sba(iGameClasses
Map
p1344
(dp1345
g12
S'CLIMBING MDCL:\nYou can continue climbing or go back down...'
p1346
sg1100
(lp1347
sg5
S'Climbing MDCL'
p1348
sg1117
(lp1349
sg1119
(lp1350
sg1121
(g1122
g1123
g1124
g1125
tp1351
sg1128
(I1
I0
I2
tp1352
sg1129
S'You struggle and find yourself on the outer wall of MDCL.'
p1353
sg1131
I1
sba(iGameClasses
Map
p1354
(dp1355
g12
S'MDCL Roof:\nYou can only go back down.'
p1356
sg1100
(lp1357
sg5
S'Roof of MDCL'
p1358
sg1117
(lp1359
(iGameClasses
Interact
p1360
(dp1361
g12
S"It's a mouse scurrying around...\nDid it just stare at you?"
p1362
sg5
S'Mouse'
p1363
sg1107
S'gilded blunderbuss'
p1364
sg1110
I00
sg20
(I1
I0
I3
tp1365
sg1111
S'cheese'
p1366
sg1112
S"The mouse rushes over and takes the cheese.\nIt runs into a small opening it has made in the roof of the building.\nIt returns with something in it's mouth!"
p1367
sbasg1119
(lp1368
sg1121
(g1122
g1123
g1124
g1125
g1172
tp1369
sg1128
g1365
sg1129
S'With all of your might you pull yourself up and onto the roof.\nYou can see the majority of campus from up here!'
p1370
sg1131
I1
sbaa(lp1371
Na(iGameClasses
Map
p1372
(dp1373
g12
S'HEALTH SCIENCES LIBRARY:\nIn front of you is the McMaster Map. To your right is the bus stop.\nMDCL is behind you. The Hospital West Wing is to your left.'
p1374
sg1100
(lp1375
sg5
S'Health Sciences Library'
p1376
sg1117
(lp1377
sg1119
(lp1378
sg1121
(tsg1128
(I1
I1
I1
tp1379
sg1129
S"You are constantly asked to be quiet even though you have yet to make a sound.\nAfter scanning the tables and see no one you recognize you take a seat\nin an armchair and stare out towards the centre of campus.\nYou daydream of a life where these study rooms weren't constantly full."
p1380
sg1131
I1
sbaNaNaa(lp1381
Na(iGameClasses
Map
p1382
(dp1383
g12
S'MCMASTER MAP:\nIn front of you lies the entrance to Hatch. To your right, JHE Field.\nTo your rear lies the Health Sci Library. T-13 is to your left.'
p1384
sg1100
(lp1385
sg5
S'Map of McMaster'
p1386
sg1117
(lp1387
(iGameClasses
Interact
p1388
(dp1389
g12
S"It's the map of McMaster.'\n ________________________________________________\n|Map of McMaster                                 |\n|                                       BATES    |\n|                                                |\n| ETB        JHE         BSB                     |\n|                                                |\n|                                      STATUE    |\n|                                                |\n| HOSPITAL                                       |\n|          MDCL         CHAPEL              MUSC |\n|________________________________________________|"
p1390
sg5
S'McMaster Map'
p1391
sg1107
S"minnick's glasses"
p1392
sg1110
I00
sg20
(I1
I2
I1
tp1393
sg1111
S"minnick's glasses"
p1394
sg1112
S"Through Minnick's glasses the true map is revealled!\nYou read:\n'Harness the sun.'\n ________________________________________________\n|Map of McMaster                                 |\n|                                       BATES    |\n|                                                |\n| ETB        JHE         BSB                     |\n|                                                |\n|                        \\/            STATUE    |\n|                        /\\                      |\n| HOSPITAL                                       |\n|          MDCL         CHAPEL              MUSC |\n|________________________________________________|\nDr. Minnick's glasses glow hot as you quickly swat them off of your face."
p1395
sbasg1119
(lp1396
sg1121
(tsg1128
g1393
sg1129
S'Has anyone even used this thing?\nA lost freshman asks you for directions even though the map is clearly next to you.\nAfter sending them in the wrong direction you plan your next move.'
p1397
sg1131
I1
sbaNaNaa(lp1398
Na(iGameClasses
Map
p1399
(dp1400
g12
S'OUTSIDE HATCH:\nETB to your left. Enter Hatch by going forward.\nThe McMaster Map to your rear. JHE Entrance is to your right.'
p1401
sg1100
(lp1402
sg5
S'In Front of Hatch'
p1403
sg1117
(lp1404
g1074
asg1119
(lp1405
sg1121
(tsg1128
g1080
sg1129
S'You stare at the newly completed building.\nThe sun still shines and you are irritated by the constant drone of the Hamiltonian sirens\nwhich you have yet to grow accustomed to...'
p1406
sg1131
I1
sbaNaNaa(lp1407
Na(iGameClasses
Map
p1408
(dp1409
g12
S'INSIDE HATCH:\nIn front of you lies JHE-Annex. To your right is the JHE lobby.\nTo your rear you can exit.\nTo your left is an alley.'
p1410
sg1100
(lp1411
(iGameClasses
Enemy
p1412
(dp1413
g12
S"'Yo check out my meme page, you ever heard coco jay?'"
p1414
sg3
(I15
I10
I20
tp1415
sg5
S'Mario the Mixologist'
p1416
sg1107
S'stylish watch'
p1417
sg42
I01
sg1109
Nsg1110
I00
sg19
I50
sg20
g309
sg1111
Nsg43
I00
sg1112
g1113
sg1114
S'si ya saben como consigo, por que me invitan?'
p1418
sbasg5
S'Inside Hatch'
p1419
sg1117
(lp1420
g303
asg1119
(lp1421
sg1121
(tsg1128
g309
sg1129
S"That 'fresh building' smell still lingers.\nYou see members of the various clubs rushing from room to room including a man carrying a rocket.\nThe Kipling clock ticks away... only 364 more...\nWho is this Gerald Hatch anyway?"
p1422
sg1131
I1
sba(iGameClasses
Map
p1423
(dp1424
g12
S'2ND FLOOR Hatch:\nIn front of you lies the Eng Phys Office. To your right is 2nd Floor JHE.\nHatch is downstairs.'
p1425
sg1100
(lp1426
sg5
S'2nd Floor Hatch'
p1427
sg1117
(lp1428
sg1119
(lp1429
sg1121
(g1123
g1124
g1172
tp1430
sg1128
(I1
I4
I2
tp1431
sg1129
S"You see various meeting rooms with 1st years occupying them.\nThe MES office is full but nothing seems to be getting done.\nThere's therapy dogs scattered everywhere for Paws and Play.\nYou can't get a session with a real therapist but at least there is this"
p1432
sg1131
I1
sbaNaa(lp1433
Na(iGameClasses
Map
p1434
(dp1435
g12
S'JHE ANNEX:\nHatch is to your rear. ABB in front of you.\nITB is to your left. NRB to your right.\nThe Eng Phys office is up the stairs.'
p1436
sg1100
(lp1437
sg5
S'JHE Annex'
p1438
sg1117
(lp1439
g896
asg1119
(lp1440
sg1121
(tsg1128
g902
sg1129
S'They made a big engineering building, got money, then added more.\nYou wonder why Eng Phys classes get pushed into the rooms in this side of JHE...\nHmm...'
p1441
sg1131
I1
sba(iGameClasses
Map
p1442
(dp1443
g12
S'ENG PHYS OFFICE:\n2nd Floor Abb is infront of you. 2nd Floor Hatch is behind you. You can go down the stairs to JHE Annex.'
p1444
sg1100
(lp1445
sg5
S'Eng Phys Office'
p1446
sg1117
(lp1447
g711
asg1119
(lp1448
sg1121
(g1124
g1125
g1172
tp1449
sg1128
g717
sg1129
S'The portrait of Dr. Novog makes you jealous as you realize you could\nnever pull off a hairstyle like that.\nYou scan the display case of past Eng Phys projects.\nThey display these as trophies...\nTrophies which only tell a story of endless grind you think to yourself...'
p1450
sg1131
I1
sbaNaa(lp1451
(iGameClasses
Map
p1452
(dp1453
g12
S'ABB BASEMENT:\nYou can only go back up to the main floor.'
p1454
sg1100
(lp1455
sg5
S'ABB Basement'
p1456
sg1117
(lp1457
g523
a(iGameClasses
Interact
p1458
(dp1459
g12
S'Seems like a regular fridge to me.'
p1460
sg5
S'Fridge'
p1461
sg1107
S'pedrotti cubed'
p1462
sg1110
I00
sg20
g529
sg1111
S'relativistic key'
p1463
sg1112
S"You inspect the inside of the fridge to reveal a small keyhole.\nUpon inserting and turning the key you hear a robotic voice bellow.\n'WORMHOLE ACTIVATED'\nThe compartment bursts open and out flies a book!"
p1464
sba(iGameClasses
Interact
p1465
(dp1466
g12
S"Dr. Haugen's personal optical bench..."
p1467
sg5
S'Optical Bench'
p1468
sg1107
S'relativistic key'
p1469
sg1110
I00
sg20
g529
sg1111
S'femtosecond laser'
p1470
sg1112
S"You place Dr. Haugen's femtosecond laser on the bench and aim it at the fridge.\nTurning the laser on (remembering your laser safety glasses, of course)\nfires the high-intensity beam at the fridge.\nThe room begins to shake and smoke begins to billow out of the cracks of the fridge.\nThe door swings open and a glowing apparition of Albert Einstein emerges!\n'You have come a long way, but your quest is not yet over.'\n'For there still remains a great evil on this campus'\n'Dr. Haugen was entrusted with protecting the contents of my fridge.'\n'I have known of your destiny since your first year here at McMaster.'\n'You will be the one who determines the fate of the faculty.'\n'It is, therefore, my responsibility to prepare you for what lies ahead.'\n'This key opens a compartment in my fridge which holds one of three Quantum Relics.'\n'These items give the holder the power to shape the fate of the entire university.'\n'I cannot tell you much more. Perhaps I have said too much.'\n'Take this. Good Luck.'"
p1471
sbasg1119
(lp1472
sg1121
(g1122
g1123
g1124
g1125
g1126
tp1473
sg1128
g529
sg1129
S'The Laser lab is pretty darn cool.\nWalking around here you notice a number of PhD students looking rather shifty.\nHmmm...\nYou wonder why that is.'
p1474
sg1131
I1
sba(iGameClasses
Map
p1475
(dp1476
g12
S'ABB:\nThode is in front of you. JHE Annex is behind you.\nThe Nuclear Reactor is to your right. LOT I is to your left.\nYou can go up or down the stairs.'
p1477
sg1100
(lp1478
sg5
S'ABB'
p1479
sg1117
(lp1480
(iGameClasses
Interact
p1481
(dp1482
g12
S"It's a display case full of all sorts of old-time Engineering Physics wizardry."
p1483
sg5
S'Display Case'
p1484
sg1107
S"faraday's cage"
p1485
sg1110
I00
sg20
(I1
I6
I1
tp1486
sg1111
S'rusty key'
p1487
sg1112
S'The rusty key fits perfectly!\nAs you turn the key glowing square forms on the back\nof the display case and opens revealing an old relic...'
p1488
sbasg1119
(lp1489
sg1121
(tsg1128
g1486
sg1129
S'You stare at the electron microscope structure and wonder if it could even see your GPA...\nA tear rolls down your cheek. You collect yourself and plan what to do next.'
p1490
sg1131
I1
sba(iGameClasses
Map
p1491
(dp1492
g12
S'2ND FLOOR ABB:\nThe Eng Phys Office is behind you. You can down the stairs to ABB.'
p1493
sg1100
(lp1494
sg5
S'2nd Floor ABB'
p1495
sg1117
(lp1496
sg1119
(lp1497
sg1121
(g1122
g1124
g1125
g1172
tp1498
sg1128
(I1
I6
I2
tp1499
sg1129
S'You were told JHE would be your home.\nNope.\nInstead you recall countless hours lectures on the 2nd floor\nas you drifted in and out of daydreams staring out the windows on a spring afternoon...'
p1500
sg1131
I1
sbaNaa(lp1501
(iGameClasses
Map
p1502
(dp1503
g12
S'THODE BASEMENT:\nGo up to head outside.'
p1504
sg1100
(lp1505
sg5
S'Thode Basement'
p1506
sg1117
(lp1507
(iGameClasses
Interact
p1508
(dp1509
g12
S'Looks like an old dusty workbench.'
p1510
sg5
S'Workbench'
p1511
sg1107
g1113
sg1110
I00
sg20
(I1
I7
I0
tp1512
sg1111
Nsg1112
g1113
sbasg1119
(lp1513
sg1121
(g1122
g1123
g1124
g1125
g1126
tp1514
sg1128
g1512
sg1129
S"You feel the laser glares burning into the back of your neck as\nyou hastily walk amongst the rows of desks.\nIs it possible to book a study room down here without finding a phallic object drawn on the whiteboard?\nYou'll never know."
p1515
sg1131
I1
sba(iGameClasses
Map
p1516
(dp1517
g12
S'THODE:\nABB is at your rear. The campus exit is to your right.\nCootes Drive is to your left. You can go up or down the stairs.'
p1518
sg1100
(lp1519
sg5
S'Thode'
p1520
sg1117
(lp1521
g311
ag853
asg1119
(lp1522
sg1121
g1122
sg1128
g317
sg1129
S'Oh the Reactor Cafe.\nYou think of the good old days when you could actually see the reactor from the Cafe...\nAfter overhearing someone ask whether keV is bigger than MeV you first contemplate your existence,\nthen contemplate your next move...'
p1523
sg1131
I1
sba(iGameClasses
Map
p1524
(dp1525
g12
S'2ND FLOOR THODE:\nYou can go up or down the stairs.'
p1526
sg1100
(lp1527
sg5
S'2nd Floor Thode'
p1528
sg1117
(lp1529
g741
asg1119
(lp1530
sg1121
(g1122
g1123
g1124
g1125
tp1531
sg1128
g747
sg1129
S"As you enter Club Thode the smell of feet enters your nostrils.\nWho goes barefoot in a library? C'mon.\nThe memory of countless hours spent slamming together a report made of nonsense, caffeine,\nand hope makes you light headed...\nComing to your senses... You plan your next move."
p1532
sg1131
I1
sba(iGameClasses
Map
p1533
(dp1534
g12
S'3RD FLOOR THODE:\nYou can only go back down the stairs.'
p1535
sg1100
(lp1536
(iGameClasses
Enemy
p1537
(dp1538
g12
S'I would really like a cricket to continue my research...'
p1539
sg3
(I10
I10
I10
tp1540
sg5
S'Connor the Biologist'
p1541
sg1107
Nsg42
I01
sg1109
Nsg1110
I00
sg19
I15
sg20
(I1
I7
I3
tp1542
sg1111
S'cricket'
p1543
sg43
I00
sg1112
S'Thanks!'
p1544
sg1114
S"'I can't believe you've done this."
p1545
sbasg5
S'3rd Floor Thode'
p1546
sg1117
(lp1547
sg1119
(lp1548
sg1121
(g1122
g1123
g1124
g1125
g1172
tp1549
sg1128
g1542
sg1129
S"After hauling up another set of stairs you realize you probably shouldn't\nhave given up on your Pulse membership...\nThe sounds of sobbing can be heard from all around you.\nAfter you dispense all of your tissues to passing I-Sci's you plan your next move."
p1550
sg1131
I1
sbaa(lp1551
NaNaNaNaa(lp1552
(lp1553
(iGameClasses
Map
p1554
(dp1555
g12
S'CHAPEL UNDERCROFT:\nYou can only go back up to the main floor.'
p1556
sg1100
(lp1557
(iGameClasses
Enemy
p1558
(dp1559
g12
S"'Mussst eeaaat funnnndingg... Er, I mean braaains.'"
p1560
sg3
(I20
I10
I1
tp1561
sg5
S'Undead Grad Student'
p1562
sg1107
S'horrible assignment'
p1563
sg42
I01
sg1109
Nsg1110
I00
sg19
I20
sg20
g561
sg1111
Nsg43
I00
sg1112
g1113
sg1114
S'My 12 year post-grad was for nothiiiiiingggggg!'
p1564
sbasg5
S'Chapel Undercroft'
p1565
sg1117
(lp1566
g555
asg1119
(lp1567
sg1121
(g1122
g1123
g1124
g1125
g1126
tp1568
sg1128
g561
sg1129
S'You struggle down the dimly lit stairway into the undercroft.\nThe distinct smell of mould enters your nose as you travel further into the musty basement.\nThe faint glow of candles cause the shadows of ancient statues to flicker on the walls of the room...\nYou plan your next move.'
p1569
sg1131
I1
sba(iGameClasses
Map
p1570
(dp1571
g12
S'MCMASTER CHAPEL:\nThe Bus Stop is in front of you back out the door. There is a set of stairs going up.\nAs well as an old stairway leading downward.'
p1572
sg1100
(lp1573
(iGameClasses
Enemy
p1574
(dp1575
g12
S"'You need prayer. Recharge at the altar.'"
p1576
sg3
(I10
I10
I10
tp1577
sg5
S'Father Frobenius'
p1578
sg1107
S'crucifix'
p1579
sg42
I01
sg1109
Nsg1110
I00
sg19
I25
sg20
g1022
sg1111
Nsg43
I00
sg1112
g1113
sg1114
S'I am slain!'
p1580
sbasg5
S'The Chapel'
p1581
sg1117
(lp1582
g1016
asg1119
(lp1583
sg1121
(g1125
g1124
g1123
tp1584
sg1128
g1022
sg1129
S"The low drone of the organ draws you in.\nThe pews are relatively empty and the lighting quite dim.\nYou think it would be in your best interest\nto pray especially with exam season just around the corner...\nIt can't hurt, right? It'd probably work better than those healing stones\non your desk."
p1585
sg1131
I1
sba(iGameClasses
Map
p1586
(dp1587
g12
S'2ND FLOOR CHAPEL:\nYou can only go back down the stairs.'
p1588
sg1100
(lp1589
sg5
S'Upstairs Chapel'
p1590
sg1117
(lp1591
g223
ag171
ag926
asg1119
(lp1592
sg1121
(g1122
g1123
g1124
g1125
g1172
tp1593
sg1128
g177
sg1129
S'The combination of ringing bells and echoes from the organ is deafening.\nYou can barely collect your thoughts.\nThe cobwebs and dust give you the impression this place has been ill-travelled\nand long forgotten.'
p1594
sg1131
I1
sbaNaa(lp1595
Na(iGameClasses
Map
p1596
(dp1597
g12
S'BUS STOP:\nHealth Sciences Library to your left. JHE field in front of you.\nThe chapel is behind you. Art Museum to your right.'
p1598
sg1100
(lp1599
(iGameClasses
Enemy
p1600
(dp1601
g12
S"'Is that even your bus pass?'"
p1602
sg3
(I10
I10
I5
tp1603
sg5
S'Larry the bus driver'
p1604
sg1107
S'huge shirt'
p1605
sg42
I01
sg1109
Nsg1110
I00
sg19
I40
sg20
g278
sg1111
Nsg43
I00
sg1112
g1113
sg1114
S'That was definitely not your bus pass!'
p1606
sbasg5
S'The Bus Stop'
p1607
sg1117
(lp1608
g272
ag593
asg1119
(lp1609
sg1121
(tsg1128
g278
sg1129
S'Students gather around to catch the next bus.\nYou get pushed and shoved as they desperately clammer on-board.\nYou overhear an argument between a student and the Bus Driver when suddenly the altercation\nturns to blows and pours onto the sidewalk.'
p1610
sg1131
I1
sbaNaNaa(lp1611
Na(iGameClasses
Map
p1612
(dp1613
g12
S'JHE FIELD:\nBSB Field is to your right. McMaster map to your left.\nThe Bus Stop is at your rear. The entrance to JHE is in front of you.'
p1614
sg1100
(lp1615
(iGameClasses
Enemy
p1616
(dp1617
g12
S"'Man, you were a RIOT at the Phoenix last night!'"
p1618
sg3
(I5
I2
I10
tp1619
sg5
S'Brian the hipster'
p1620
sg1107
S'guitar'
p1621
sg42
I01
sg1109
Nsg1110
I00
sg19
I10
sg20
g583
sg1111
Nsg43
I00
sg1112
g1113
sg1114
S"That's not vegan."
p1622
sbasg5
S'JHE Field'
p1623
sg1117
(lp1624
g577
ag875
asg1119
(lp1625
sg1121
(tsg1128
g583
sg1129
S'The morning sun warms your face as you scoff at a hipster slack-lining.\nStudents lie in the grass around the field even though everybody knows\nnothing gets done studying outside.\nAfter narrowly dodging a frisbee you plan what to do.'
p1626
sg1131
I1
sbaNaNaa(lp1627
Na(iGameClasses
Map
p1628
(dp1629
g12
S'FRONT OF JHE:\nBSB is to your right. Hatch to your left.\nJHE field is to your rear. Enter JHE by going forward.'
p1630
sg1100
(lp1631
sg5
S'Starting Location'
p1632
sg1117
(lp1633
g201
a(iGameClasses
Interact
p1634
(dp1635
g12
S"It's a garbage can."
p1636
sg5
S'Garbage Can'
p1637
sg1107
S'vomit'
p1638
sg1110
I00
sg20
g207
sg1111
S'msp430'
p1639
sg1112
S'You throw the MSP430 in... Yes, you have chosen wisely.'
p1640
sba(iGameClasses
Interact
p1641
(dp1642
g12
S"Welcome to The Great ENG PHYS Text Adventure!\n\nHere are the rules of the realm:\nYour orientation never changes. When you enter you will be facing the\nentrance of JHE and you will always face that way.\n\nThe commands which allow you to interact with your environment are:\nforward = f, backward = b, left = l, right = r, up = u, down = d\ntalk (person name) -talk to someone near you\nattack (person name) -attacks someone\ninspect (item name) -let's you interact with interactables and gives stats of items, can't inspect people\nequip (item name) -you pick up an item, drops any item you have in that slot\ndrop (item name) -drops an item in your inventory\neat (item name) -eat an item\nstats -will show your stats\nsearch - will search the area for things to interact with.\ninventory -will show your current inventory.\n\nBe sure to type the ENTIRE name of what you want to interact with.\nThat's it! Good Luck!"
p1643
sg5
S'Rules Sign'
p1644
sg1107
g1113
sg1110
I00
sg20
g207
sg1111
g1113
sg1112
g1113
sbasg1119
(lp1645
sg1121
(tsg1128
g207
sg1129
S"You hear a booming voice that sounds oddly like a game developer. \ntype: 'inspect rules sign!'\nYou see the Iron Ring out front of JHE shining in the morning sun.\nThe campus is bustling with student life.\nThere are people heading in all directions with Kipling pranks\nstill scattered about JHE."
p1646
sg1131
I0
sbaNaNaa(lp1647
(iGameClasses
Map
p1648
(dp1649
g12
S'JHE BASEMENT:\nYou can only go back up to the main floor.'
p1650
sg1100
(lp1651
(iGameClasses
Enemy
p1652
(dp1653
g12
S"'I need a snack that smiles back!'"
p1654
sg3
(I17
I12
I15
tp1655
sg5
S'Zack the Snack'
p1656
sg1107
S'fanny pack'
p1657
sg42
I01
sg1109
Nsg1110
I00
sg19
I25
sg20
(I2
I4
I0
tp1658
sg1111
S'goldfish'
p1659
sg43
I00
sg1112
S'Whoa thats whack! Check out this fanny pack.'
p1660
sg1114
S'Why are you the way you are?'
p1661
sbasg5
S'JHE Basement'
p1662
sg1117
(lp1663
(iGameClasses
Interact
p1664
(dp1665
g12
S"It's a dusty box of old CDs..."
p1666
sg5
S'Box of old CDs'
p1667
sg1107
Nsg1110
I00
sg20
g1658
sg1111
S'lenovo laptop'
p1668
sg1112
S'You insert one of the CDs into the monolithic computing device...\nThe laptop instantly blue-screens and bursts into flames.'
p1669
sbasg1119
(lp1670
sg1121
(g1122
g1123
g1124
g1125
g1126
tp1671
sg1128
g1658
sg1129
S'You see the remnants of failed clubs and the shattered dreams of past engineers...\nThis place is a bit chilly.'
p1672
sg1131
I1
sba(iGameClasses
Map
p1673
(dp1674
g12
S'JHE LOBBY:\nTo your right you can exit towards BSB. To your left you can head into Hatch.\nForward is the Nuclear Research building. Behind you lies the exit.\nThere are also stairs going up and down.'
p1675
sg1100
(lp1676
sg5
S'Inside JHE'
p1677
sg1117
(lp1678
g326
ag334
asg1119
(lp1679
sg1121
(tsg1128
g332
sg1129
S'JHE lobby is alive.\nStudents rushing all around as the smell of burnt coffee and sorrow tickles your nose.\nYou scan the faces around you but see no one familiar.\nThere is a confused air about this place as Kipling was just last night.\nMany engineers happy. Many more still grinding.'
p1680
sg1131
I1
sba(iGameClasses
Map
p1681
(dp1682
g12
S'2ND FLOOR JHE:\nTo the left is 2nd Floor Hatch. You can go down the stairs to JHE Lobby.'
p1683
sg1100
(lp1684
sg5
S'2nd Floor JHE'
p1685
sg1117
(lp1686
g823
ag1024
asg1119
(lp1687
sg1121
(g1122
g1123
g1125
g1172
tp1688
sg1128
g829
sg1129
S'You spend 20 minutes staring at the 1970 graduating class wondering if you could ever pull off a moustache like that...\nAfter realizing the cool lecture halls were only given to first years.\nYou shake your fist and plan your next move.'
p1689
sg1131
I1
sbaNaa(lp1690
(iGameClasses
Map
p1691
(dp1692
g12
S'BASEMENT OF NRB:\nYou can only go back up to the main floor.'
p1693
sg1100
(lp1694
sg5
S'NRB Basement'
p1695
sg1117
(lp1696
g621
asg1119
(lp1697
sg1121
(g1122
g1123
g1124
g1125
g1126
tp1698
sg1128
g627
sg1129
S'You head down the stairs to the basement...\nThe forgotten dreams of PhD students linger in the air.\nThere is an endless amount of engineering wizardry in the rooms around you.'
p1699
sg1131
I1
sba(iGameClasses
Map
p1700
(dp1701
g12
S'NUCLEAR RESEARCH BUILDING:\nTo your left lies the JHE-Annex. The Reactor is in front of you.\nThe Police Station is to your right. JHE lobby is behind you.\nThere are stairs going down.'
p1702
sg1100
(lp1703
sg5
S'Nuclear Research Building'
p1704
sg1117
(lp1705
g666
asg1119
(lp1706
sg1121
(tsg1128
g672
sg1129
S"You have barely ever been in here other than to struggle through\n3 hours of waiting for a water level PID controller to reach steady state.\nYou wonder how anyone could get away with a floor plan this confusing.\nPerhaps that's why no terrorists have blown up the reactor because\nthey are all still lost in here..."
p1707
sg1131
I1
sbaNaNaa(lp1708
(iGameClasses
Map
p1709
(dp1710
g12
S'INSIDE THE REACTOR:\nGo up to head outside.'
p1711
sg1100
(lp1712
sg5
S'Inside the Reactor'
p1713
sg1117
(lp1714
sg1119
(lp1715
sg1121
(g1122
g1123
g1124
g1125
g1126
tp1716
sg1128
(I2
I6
I0
tp1717
sg1129
S'The hum of air conditioning drowns your thoughts.\nYou lose yourself staring into the faint blue glow of the pool as you slowly approach its edge.'
p1718
sg1131
I1
sba(iGameClasses
Map
p1719
(dp1720
g12
S'NUCLEAR REACTOR:\nRight is the GO station. Left is ABB.\n NRB is at your rear. The campus exit lies in front of you.\nGo down to enter.'
p1721
sg1100
(lp1722
sg5
S'Nuclear Reactor'
p1723
sg1117
(lp1724
g993
asg1119
(lp1725
sg1121
(tsg1128
g999
sg1129
S"As you approach you wonder if that steam is really radioactive?\nIt can't be.\nThe ominous structure draws you closer as you consider what it would be\nlike to swim in that sweet blue pool..."
p1726
sg1131
I1
sbaNaNaa(lp1727
Na(iGameClasses
Map
p1728
(dp1729
g12
S'CAMPUS EXIT:\nHead to Thode by going left. Head down Cootes trail if you go right.\nThe Reactor is behind you.'
p1730
sg1100
(lp1731
sg5
S'Campus Exit'
p1732
sg1117
(lp1733
g398
asg1119
(lp1734
sg1121
g1122
sg1128
g404
sg1129
S'A faint glow can be seen in the distance.\nWarning signs litter the trail as you squint to get a better look.\nA chill is sent down your spine as you see the flickering stretched shadows of\nfighting dance on the road ahead.\nYou cannot go straight... yet.'
p1735
sg1131
I1
sbaNaNaa(lp1736
NaNaNaNaa(lp1737
(lp1738
Na(iGameClasses
Map
p1739
(dp1740
g12
S'ART MUSEUM:\nThe exit lies in front of you.'
p1741
sg1100
(lp1742
sg5
S'Inside the Art Museum'
p1743
sg1117
(lp1744
g539
a(iGameClasses
Interact
p1745
(dp1746
g12
S'An old oil painting of the founding fathers of McMaster.\nDated:April 20th, 1887'
p1747
sg5
S'Old Painting'
p1748
sg1107
S"minnick's glasses"
p1749
sg1110
I00
sg20
g545
sg1111
S"minnick's glasses"
p1750
sg1112
S"Through Dr. Minnick's glasses a glowing green inscription is revealed!\n'In the hall where we eternally meet,\nThe second clue lies beneath your feet.'\nWhile reading the secret message Dr. Minnick's glasses get increasingly hotter and you quickly swat them off your face."
p1751
sbasg1119
(lp1752
sg1121
(g1125
g1124
g1123
tp1753
sg1128
g545
sg1129
S'Who knew McMaster had such a beautiful gallery.\nYou tilt your head endlessly until the art sort of makes sense.\nAfter telling yourself you could totally make every piece in the place had you been given\na chance you put your pinky out.\nThen contemplate your next move.'
p1754
sg1131
I1
sbaNaNaa(lp1755
Na(iGameClasses
Map
p1756
(dp1757
g12
S'OUTSIDE ART MUSEUM:\nYou can enter the museum to your rear. Bus Stop is to your left.\nWilly-dog stand to your right. BSB field lies in front of you.'
p1758
sg1100
(lp1759
sg5
S'Outside the Art Museum'
p1760
sg1117
(lp1761
g547
asg1119
(lp1762
sg1121
(tsg1128
g553
sg1129
S'Standing out front of the art museum you feel you are already being critiqued.\nAfter narrowly escaping a conversation with an arts student\nabout their installation piece of a dirty coffee table...\nYou plan your next move.'
p1763
sg1131
I1
sbaNaNaa(lp1764
Na(iGameClasses
Map
p1765
(dp1766
g12
S'BSB FIELD:\nThe turning circle is to your right. JHE field is to your left.\nEntrance to BSB is in front of you. The Art Museum is to your rear.'
p1767
sg1100
(lp1768
(iGameClasses
Enemy
p1769
(dp1770
g12
S"'I heard some jebroni took the 3W Textbook and hid in Bridges cafe.'\n'Full send, dude!'"
p1771
sg3
(I10
I15
I5
tp1772
sg5
S'Andreas the Nerd'
p1773
sg1107
S'visor glasses'
p1774
sg42
I01
sg1109
Nsg1110
I00
sg19
I50
sg20
g537
sg1111
Nsg43
I00
sg1112
g1113
sg1114
S'Dude, that was definitely a full send'
p1775
sbasg5
S'BSB Field'
p1776
sg1117
(lp1777
g531
a(iGameClasses
Interact
p1778
(dp1779
g12
S"You can't even tell time on an analog clock.\nHow are you supposed to use this?"
p1780
sg5
S'Sun Dial'
p1781
sg1107
S'rusty key'
p1782
sg1110
I00
sg20
g537
sg1111
S"minnick's glasses"
p1783
sg1112
S"Through Dr. Minnick's glasses, you see a green glowing handprint appears\non the face of the sundial!\nYou place your hand on it and a compartment opens."
p1784
sbasg1119
(lp1785
sg1121
(tsg1128
g537
sg1129
S'You look up to see the flags flapping happily in the morning breeze.\nThat sundial at their feet ticking to the tune of celestial magic.\nAfter swatting Neil Degrasse quotes from your thoughts...\nYou consider what to do next.'
p1786
sg1131
I1
sbaNaNaa(lp1787
(iGameClasses
Map
p1788
(dp1789
g12
S'QUANTUM TUNNEL:\nGo up to return to the main floor of BSB'
p1790
sg1100
(lp1791
(iGameClasses
Enemy
p1792
(dp1793
g12
S'I am NOT going to finish this assignment... if only I had one to copy.'
p1794
sg3
(I10
I10
I10
tp1795
sg5
S'Liam the Gamer'
p1796
sg1107
S'swordfish'
p1797
sg42
I01
sg1109
Nsg1110
I00
sg19
I15
sg20
g725
sg1111
S'horrible assignment'
p1798
sg43
I00
sg1112
S'Nice! Take this swordfish. I needed 45 cooking for that.'
p1799
sg1114
g1113
sbasg5
S'The Quantum Tunnel'
p1800
sg1117
(lp1801
g838
ag719
asg1119
(lp1802
sg1121
(g1122
g1123
g1124
g1125
g1126
tp1803
sg1128
g725
sg1129
S"What other faculty spends thousands of dollars on furniture for a\nliteral custodial closet in the BSB basement?\nYou guessed it...\nEng Phys. Gotta love em'"
p1804
sg1131
I1
sba(iGameClasses
Map
p1805
(dp1806
g12
S'BSB:\nBSB field is at your rear. Exit BSB to your right.\nThe entrance to JHE is to your left. The Quantum Tunnel is down the stairs.'
p1807
sg1100
(lp1808
sg5
S'BSB'
p1809
sg1117
(lp1810
g471
asg1119
(lp1811
sg1121
(tsg1128
g477
sg1129
S"You were told JHE would be your home but after picking Eng Phys\nyou didn't realize how wrong you were.\nAt least the cafe is better than JHE's.\nA shudder runs through your body as you draw nearer to the electronics labs.\nWiping a cold sweat from your brow you plan ahead."
p1812
sg1131
I0
sba(iGameClasses
Map
p1813
(dp1814
g12
S'2ND FLOOR BSB:\nYou can only go back down the stairs.'
p1815
sg1100
(lp1816
sg5
S'2nd Floor BSB'
p1817
sg1117
(lp1818
g643
asg1119
(lp1819
sg1121
(g1122
g1123
g1124
g1125
g1172
tp1820
sg1128
g649
sg1129
S'Despite the horrible numbering of floors the layout of the building is great.\nNot a complaint with this one.'
p1821
sg1131
I1
sbaNaa(lp1822
Na(iGameClasses
Map
p1823
(dp1824
g12
S'JHE/BSB JUNCTION:\nEnter JHE to your left. General Sciences building to your right.\nBSB is behind you. The Police station is in front of you.'
p1825
sg1100
(lp1826
(iGameClasses
Enemy
p1827
(dp1828
g12
S"'The oscilloscope is the window into the electronic world.'"
p1829
sg3
(I100
I100
I200
tp1830
sg5
S'Kenrick'
p1831
sg1107
S"kenrick's oscilloscope"
p1832
sg42
I01
sg1109
Nsg1110
I00
sg19
I75
sg20
(I3
I4
I1
tp1833
sg1111
Nsg43
I00
sg1112
g1113
sg1114
S"Oh no! My window! The Dark Lord will know I've failed him!"
p1834
sbasg5
S'Between JHE and BSB'
p1835
sg1117
(lp1836
(iGameClasses
Interact
p1837
(dp1838
g12
S'Under closer inspection you notice the book is a different kind of stone\nthan the rest...\nIf only you could get up there for a closer look...'
p1839
sg5
S'Coat of Arms'
p1840
sg1107
S'old scroll'
p1841
sg1110
I00
sg20
g1833
sg1111
S'old ladder'
p1842
sg1112
S'With some effort you climb the rickety ladder and remove the book from the wall.\nReaching into the hole you pull out an old scroll!'
p1843
sbasg1119
(lp1844
sg1121
(tsg1128
g1833
sg1129
S"You look up and see the McMaster coat of arms engraved into the side of BSB.\nThis little pathway has been well worn and you wonder why they don't connect JHE and BSB anyway.\nAn underground (quantum) tunnel would save some hardship on a rainy day..."
p1845
sg1131
I1
sbaNaNaa(lp1846
Na(iGameClasses
Map
p1847
(dp1848
g12
S'POLICE STATION:\nThe path between JHE & BSB behind you. The GO station lies ahead of you.\nThe Nuclear Research Building is to your left. The Tandem Accelerator is to your right.'
p1849
sg1100
(lp1850
(iGameClasses
Enemy
p1851
(dp1852
g12
S"'Give me your student card!'"
p1853
sg3
(I50
I25
I10
tp1854
sg5
S'Bill the MAC Cop'
p1855
sg1107
S'solar cell'
p1856
sg42
I01
sg1109
Nsg1110
I00
sg19
I50
sg20
g98
sg1111
Nsg43
I00
sg1112
g1113
sg1114
S"We aren't able to arrest you anyway!"
p1857
sbasg5
S'Police Station'
p1858
sg1117
(lp1859
g92
ag614
asg1119
(lp1860
sg1121
(tsg1128
g98
sg1129
S'Thoughts of getting kicked out of res parties fill your head.\nThose special constables are punks.\nYou mutter the lyrics of a certain N.W.A hit. After avoiding a campus P.D cruiser\nscreaming around the blind corner, you think of what to do next.'
p1861
sg1131
I1
sbaNaNaa(lp1862
Na(iGameClasses
Map
p1863
(dp1864
g12
S'GO STATION:\nThe Reactor is to your left. Keyes is to your right.\nCootes Trail is in front of you. The Police Station is behind you.'
p1865
sg1100
(lp1866
(iGameClasses
Enemy
p1867
(dp1868
g12
S"'Have you got the LON-CAPA Python code?'"
p1869
sg3
(I5
I1
I10
tp1870
sg5
S'Steven the first-year'
p1871
sg1107
S'engineering mug'
p1872
sg42
I01
sg1109
Nsg1110
I00
sg19
I15
sg20
g485
sg1111
Nsg43
I00
sg1112
g1113
sg1114
S"I'm a failure at home and at school!"
p1873
sbasg5
S'GO Station'
p1874
sg1117
(lp1875
g479
asg1119
(lp1876
sg1121
(tsg1128
g485
sg1129
S'The rush of people and buses around you is disorienting.\nYou nearly get hit by 3 buses and 2 MAC Cop cars as\nyou play a strange game of real-life frogger.\nReaching a bench you sit down, catch your breath, and plan what to do next.'
p1877
sg1131
I1
sbaNaNaa(lp1878
Na(iGameClasses
Map
p1879
(dp1880
g12
S'COOTES TRAIL:\nCampus exit is to your left. GO station to your rear.\nThe Bridge to Lot M is to your right.'
p1881
sg1100
(lp1882
sg5
S'Cootes Trail'
p1883
sg1117
(lp1884
g147
ag230
a(iGameClasses
Interact
p1885
(dp1886
g12
S'This patch of dirt looks out of place...'
p1887
sg5
S'Uneven Earth'
p1888
sg1107
S'declaration of independence'
p1889
sg1110
I00
sg20
g153
sg1111
S'shovel'
p1890
sg1112
S"You begin digging and find an old box!\nYou open it up and read a note...\n'In the eldest of halls. The attic holds all.'"
p1891
sbasg1119
(lp1892
sg1121
g1122
sg1128
g153
sg1129
S'The flickering light through the trees dances off of the trail ahead of you.\nYou smile as you see a squirrel gathering nuts,\nprobably for his little squirrel family.\nWith this new positive outlook on life you plan your next move.'
p1893
sg1131
I1
sbaNaNaa(lp1894
NaNaNaNaa(lp1895
(lp1896
(iGameClasses
Map
p1897
(dp1898
g12
S'MILLS BASEMENT:\nYou can only go back up to Mills.'
p1899
sg1100
(lp1900
sg5
S'Mills Basement'
p1901
sg1117
(lp1902
g501
a(iGameClasses
Interact
p1903
(dp1904
g12
S"It's an old mirror from a time long past."
p1905
sg5
S'Ancient Mirror'
p1906
sg1107
S'gamma glove'
p1907
sg1110
I00
sg20
g507
sg1111
S'ancient incantation'
p1908
sg1112
S"You mutter the incantation... Suddenly, you see the reflection of Richard Feynman himself standing behind you!\n'You have come a long way. The way of the physicist is strong with you.'\n'Here, take this it is one of the 3 Quantum Relics.\n'You will need all 3 to acquire your Iron Ring.'\n'Trust your instincts and when the time comes you will know what to do."
p1909
sbasg1119
(lp1910
sg1121
(g1122
g1123
g1124
g1125
g1126
tp1911
sg1128
g507
sg1129
S'Jeez has anyone ever been down here?\nThe rows of bookshelves seem to go on forever...\nIf only you could possess all of the knowledge they hold.'
p1912
sg1131
I1
sba(iGameClasses
Map
p1913
(dp1914
g12
S'MILLS LIBRARY:\nThe Willy Dog Stand is in front of you. MUSC is to your right.\nYou can go downstairs.'
p1915
sg1100
(lp1916
sg5
S'Mills Library'
p1917
sg1117
(lp1918
g288
a(iGameClasses
Interact
p1919
(dp1920
g12
S"It's a guide to the Bruce trail."
p1921
sg5
S'Blue Book'
p1922
sg1107
g1113
sg1110
I00
sg20
g294
sg1111
g1113
sg1112
g1113
sba(iGameClasses
Interact
p1923
(dp1924
g12
S"Flipping through you read:\n'The mitochondria is the powerhouse of the cell.'"
p1925
sg5
S'Red Book'
p1926
sg1107
g1113
sg1110
I00
sg20
g294
sg1111
g1113
sg1112
g1113
sbasg1119
(lp1927
sg1121
(g1124
g1123
tp1928
sg1128
g294
sg1129
S'This is definitely not Thode.\nYou wonder if anything gets done in this library.\nAll of the debauchery taking place on the 6th floor sends a shudder through your body.\nYou notice a stack of books...'
p1929
sg1131
I1
sbaNaNaa(lp1930
Na(iGameClasses
Map
p1931
(dp1932
g12
S'WILLY DOG STAND:\nThe turning circle lies in front of you. Mills library at your rear.\nThe Archway to your right. The Art Museum is to your left.'
p1933
sg1100
(lp1934
sg5
S'The Willy Dog stand'
p1935
sg1117
(lp1936
g155
ag1060
asg1119
(lp1937
sg1121
(tsg1128
g161
sg1129
S"Oh, that sweet sweet aroma.\nMany drunken nights flash through your head.\nThat Willy dog cart is more of a staple to McMaster students than the Archway next to it.\nWas it named Willy Dog after Sir William McMaster?\nYou'll never know..."
p1938
sg1131
I1
sbaNaNaa(lp1939
Na(iGameClasses
Map
p1940
(dp1941
g12
S'TURNING CIRCLE:\nWilly Dog stand is to your rear. BSB-field is to your left.\nThe Willy McMaster Statue is to your right. Head down the road if you go forward.'
p1942
sg1100
(lp1943
(iGameClasses
Enemy
p1944
(dp1945
g12
g1853
sg3
(I50
I25
I10
tp1946
sg5
S'Will the MAC Cop'
p1947
sg1107
S'fake gun'
p1948
sg42
I01
sg1109
Nsg1110
I00
sg19
I50
sg20
g169
sg1111
Nsg43
I00
sg1112
g1113
sg1114
g1857
sbasg5
S'Turning Circle'
p1949
sg1117
(lp1950
g163
ag237
asg1119
(lp1951
sg1121
(tsg1128
g169
sg1129
S'The circle thing with the three trees in it is looking pretty nice\nin the morning sun.\nStudents rush all around.\nThe aroma from the Willy Dog stand is making you pretty hungry...'
p1952
sg1131
I1
sbaNaNaa(lp1953
Na(iGameClasses
Map
p1954
(dp1955
g12
S'A ROAD:\nEnter BSB to your left. Hamilton Hall to your right.\nThe turning circle is behind you. General Sciences building in front of you.'
p1956
sg1100
(lp1957
sg5
S'Campus Road'
p1958
sg1117
(lp1959
g280
ag319
asg1119
(lp1960
sg1121
(tsg1128
g286
sg1129
S"A lost first year's parent drives by in a mini-van\nclearly ignoring the 'no access' sign.\nYou thank your astrology sign for making sure they looked up and saw you."
p1961
sg1131
I0
sbaNaNaa(lp1962
Na(iGameClasses
Map
p1963
(dp1964
g12
S'GENERAL SCIENCES BUILDING:\nThe Phoenix is to your right. The junction between JHE & BSB is to your left.\nThe Tandem Accelerator is in front of you. Exit to your rear.'
p1965
sg1100
(lp1966
sg5
S'General Sciences'
p1967
sg1117
(lp1968
g689
asg1119
(lp1969
sg1121
(tsg1128
g695
sg1129
S"Have you ever been in here?\nI haven't.\nYou see a group of people huddled around a pentagram-wearing goat heads.\nMaybe? I seriously don't know what goes on in here."
p1970
sg1131
I1
sbaNaNaa(lp1971
(iGameClasses
Map
p1972
(dp1973
g12
S'TANDEM BASEMENT:\nYou can only go back up the stairs.'
p1974
sg1100
(lp1975
sg5
S'Tandem Basement'
p1976
sg1117
(lp1977
(iGameClasses
Interact
p1978
(dp1979
g12
S"It's an old broken reactor."
p1980
sg5
S'Broken Reactor'
p1981
sg1107
S'pink donut'
p1982
sg1110
I00
sg20
(I4
I5
I0
tp1983
sg1111
S'flux capacitor'
p1984
sg1112
S"After some elbow grease and a bit of luck you manage to complete the reactor.\nThere is a low whirr as the device starts and begins to glow with a\npink hue.\nYou feel like ancient mechanisms beyond your comprehension are coming to life.\nWithin the pink glow you see an apparition of Dr. Novog!\n'What's up folks! This is the only channel safe for communication\n'Come meet me in the basement of the Nuclear Reactor ASAP and bring that Pink Donut!'\nAs the aparition fades a hooded figure emerges from behind a lab bench.\n'The Dark Lord demands that donut!'\nThe assassin lunges for you but is quickly met by your blow.\nAs they fall to the ground you notice an insignia on their robe that tickles your 'that's familiar' bone...\nYou pull back their hood to reveal the face of an Eng Phys PhD student!\nYou don't remember their name... But you know they are in the faculty..."
p1985
sbasg1119
(lp1986
sg1121
(g1122
g1123
g1124
g1125
g1126
tp1987
sg1128
g1983
sg1129
S"An old basement with all sorts of technological wizardry you don't recognize.\nIt seems like this place has been untouched for some time.\nLooking around you get the impression that not a lot of people come down here."
p1988
sg1131
I1
sba(iGameClasses
Map
p1989
(dp1990
g12
S'TANDEM ACCELERATOR:\nThe General Sciences Building is behind you. The Police station is to your left.\nA trail is to your right. Keyes is in front of you.'
p1991
sg1100
(lp1992
(iGameClasses
Enemy
p1993
(dp1994
g12
S"'The tools should be coming any day now.'"
p1995
sg3
(I50
I75
I50
tp1996
sg5
S'Chris'
p1997
sg1107
S'capstone tools'
p1998
sg42
I01
sg1109
Nsg1110
I00
sg19
I50
sg20
g122
sg1111
Nsg43
I00
sg1112
g1113
sg1114
S'I was going to quit anyway!'
p1999
sbasg5
S'Tandem Accelerator'
p2000
sg1117
(lp2001
g116
asg1119
(lp2002
sg1121
(tsg1128
g122
sg1129
S'Turns out the Tandem Accelerator is NOT a rad place to ride a 2-person bike...\nBummed out you remind yourself you graduated and consider what to do next.'
p2003
sg1131
I1
sbaNaNaa(lp2004
Na(iGameClasses
Map
p2005
(dp2006
g12
S'MARY KEYES:\nYou can head to the Bridge if you go forward. The GO station is to your left.\nThe Tandem Accelerator is at your rear. Bates is to your right.'
p2007
sg1100
(lp2008
sg5
S'Keyes'
p2009
sg1117
(lp2010
g807
ag882
asg1119
(lp2011
sg1121
(tsg1128
g813
sg1129
S"A snack station that's open 'til midnight.\nWhat a life saver indeed.\nYou quickly thank the engineering gods for Mary Keyes and fight yourself\nfrom ordering chicken fingers & fries super combo..."
p2012
sg1131
I1
sbaNaNaa(lp2013
Na(iGameClasses
Map
p2014
(dp2015
g12
S'THE BRIDGE:\nLot M is to your right. Keyes is at your rear.\nHead down Cootes trail if you go left.'
p2016
sg1100
(lp2017
sg5
S'The Bridge'
p2018
sg1117
(lp2019
g845
asg1119
(lp2020
sg1121
g1122
sg1128
g851
sg1129
S'You narrowly avoid a GO bus\npick yourself up and brush yourself off.\nThen plan your next move.'
p2021
sg1131
I1
sbaNaNaa(lp2022
NaNaNaNaa(lp2023
(lp2024
(iGameClasses
Map
p2025
(dp2026
g12
S'CUSTODIAL CLOSET:\nYou can only go up to go back to MUSC.'
p2027
sg1100
(lp2028
sg5
S'Custodial Closet'
p2029
sg1117
(lp2030
g436
ag296
ag179
ag63
asg1119
(lp2031
sg1121
(g1122
g1123
g1124
g1125
g1126
tp2032
sg1128
g69
sg1129
S'You enter the custodial closet and a formidable stench fills your nostrils...\nEw.'
p2033
sg1131
I1
sba(iGameClasses
Map
p2034
(dp2035
g12
S'MUSC:\nMills is to your left. The Archway is in front of you.\nA custodial closet is down the stairs.'
p2036
sg1100
(lp2037
sg5
S'McMaster Student Centre'
p2038
sg1117
(lp2039
g792
ag131
asg1119
(lp2040
sg1121
(g1125
g1123
tp2041
sg1128
g137
sg1129
S'The Student Centre is alive.\nAfter counting the number of jean jackets in the Starbucks line like the Count from Sesame Street\nyou snap back to reality.\n(Oops there goes gravity).\nYou notice a Starbucks employee arguing with his manager before throwing their apron to the ground.'
p2042
sg1131
I1
sbaNaNaa(lp2043
Na(iGameClasses
Map
p2044
(dp2045
g12
S'ARCHWAY:\nMUSC at your rear. Statue of Willy in front of you.\nEntrance to University Hall is to your right. The Willy Dog stand is to your left.'
p2046
sg1100
(lp2047
sg5
S'The McMaster Archway'
p2048
sg1117
(lp2049
g799
a(iGameClasses
Interact
p2050
(dp2051
g12
S'It appears the hole was caused by some sort of laser...'
p2052
sg5
S'Old Lamp'
p2053
sg1107
g1113
sg1110
I00
sg20
g805
sg1111
g1113
sg1112
g1113
sbasg1119
(lp2054
sg1121
(tsg1128
g805
sg1129
S"Probably the most beautiful structure at Mac.\nYou notice a hole that appears to have melted through the glass of the lamp underneath...\nYou snap a quick selfie in front of the Archway for the 'gram."
p2055
sg1131
I1
sbaNaNaa(lp2056
Na(iGameClasses
Map
p2057
(dp2058
g12
S'WILLIAM MCMASTER STATUE:\nHamilton Hall is in front of you. The Archway is behind you.\nTurning Circle is to your left.'
p2059
sg1100
(lp2060
sg5
S'Statue of Sir William McMaster'
p2061
sg1117
(lp2062
sg1119
(lp2063
sg1121
g1125
sg1128
(I5
I2
I1
tp2064
sg1129
S'Approaching the statue you notice massive burn marks on the lawn and chunks\nout of the tree...\nHmm...\nWhat if Sir Willy McMaster was actually in that statue Han Solo style?\nAfter a quick selfie with Willy you plan your next move.'
p2065
sg1131
I1
sbaNaNaa(lp2066
Na(iGameClasses
Map
p2067
(dp2068
g12
S'HAMILTON HALL:\nThe Phoenix is in front of you. A road is to your left.\nThe Willy McMaster Statue is to your rear.'
p2069
sg1100
(lp2070
sg5
S'Hamilton Hall'
p2071
sg1117
(lp2072
g1082
ag918
asg1119
(lp2073
sg1121
g1125
sg1128
g924
sg1129
S"You think about helping some first years in the Math help centre.\nThen you don't.\nThey should learn to fight through it if they're going to make it through the\nnext 4 years."
p2074
sg1131
I0
sbaNaNaa(lp2075
(iGameClasses
Map
p2076
(dp2077
g12
S'BRIDGES CAFE:\nYou can only go back up to the Phoenix.'
p2078
sg1100
(lp2079
(iGameClasses
Enemy
p2080
(dp2081
g12
S"'Did I mention I'm vegan?'"
p2082
sg3
(I15
I1
I5
tp2083
sg5
S'Jana the vegan'
p2084
sg1107
S'3w textbook'
p2085
sg42
I01
sg1109
Nsg1110
I00
sg19
I10
sg20
g114
sg1111
Nsg43
I00
sg1112
g1113
sg1114
S'I was going to bring it back I swear!'
p2086
sbasg5
S'Bridges'
p2087
sg1117
(lp2088
g108
asg1119
(lp2089
sg1121
(g1122
g1123
g1124
g1125
g1126
tp2090
sg1128
g114
sg1129
S'You feel guilty walking in here after you performed a\nbeat down on a double big mac combo in a drunken stupor only hours earlier.\nAfter pledging to be more vegan in the future, you plan what to do next.'
p2091
sg1131
I1
sba(iGameClasses
Map
p2092
(dp2093
g12
S'THE PHOENIX:\nGeneral Sciences Building is to your left. Hamilton Hall is to your rear.\nThe trail to Bates is in front of you. You can also go down the stairs to Bridges Cafe.'
p2094
sg1100
(lp2095
(iGameClasses
Enemy
p2096
(dp2097
g12
S"I've been looking for you. Especially after what you did last night.\nI recommend you seek out the profs if you are to find your ring...\nOnly they can right the wrongs you have done."
p2098
sg3
(I999
I999
I999
tp2099
sg5
S'Hooded Man'
p2100
sg1107
g1113
sg42
I01
sg1109
Nsg1110
I00
sg19
I999
sg20
(I5
I4
I1
tp2101
sg1111
Nsg43
I00
sg1112
g1113
sg1114
g1113
sba(iGameClasses
Enemy
p2102
(dp2103
g12
S"'Wait... I recognize you... you have a $420E69 tab!'"
p2104
sg3
(I15
I20
I10
tp2105
sg5
S'Megan the Bartender'
p2106
sg1107
S'meow mix'
p2107
sg42
I01
sg1109
Nsg1110
I00
sg19
I20
sg20
g2101
sg1111
Nsg43
I00
sg1112
g1113
sg1114
S'Nuuuuuuuuuuuu'
p2108
sbasg5
S'The Phoenix'
p2109
sg1117
(lp2110
sg1119
(lp2111
sg1121
g1125
sg1128
g2101
sg1129
S"Upon entering, a rush of memories from last night enter your mind.\nPeople's faces are a blur but you somewhat recall '16 tequila shots' as something you said.\nYou see a mysterious Hooded Man as he beckons you to come over."
p2112
sg1131
I0
sba(iGameClasses
Map
p2113
(dp2114
g12
S'PHOENIX LOFT:\nYou can only go back down the stairs.'
p2115
sg1100
(lp2116
sg5
S'The Pheonix Loft'
p2117
sg1117
(lp2118
g963
ag420
asg1119
(lp2119
sg1121
(g1122
g1123
g1124
g1125
g1172
tp2120
sg1128
g426
sg1129
S'The history up here is incredible. So many relics from a time long past.\nFrom old costumes from plays to furniture.\nAfter a quick Shakespearean sonnet you think of what to do next.'
p2121
sg1131
I1
sbaNaa(lp2122
Na(iGameClasses
Map
p2123
(dp2124
g12
S'TRAIL TO PHOENIX:\nBates lies in front of you. The Phoenix at your rear.\nThe Tandem Accelerator is to your left.'
p2125
sg1100
(lp2126
(iGameClasses
Enemy
p2127
(dp2128
g12
S"'MHhmgh, Soouh whatu we getta druuuunk'"
p2129
sg3
(I10
I5
I1
tp2130
sg5
S'Phil the drunk'
p2131
sg1107
S'vomit'
p2132
sg42
I01
sg1109
Nsg1110
I00
sg19
I15
sg20
g591
sg1111
S"phil's braces"
p2133
sg43
I00
sg1112
S"'UHhhh i thinka im gonna- im gon-'\nPhil vomits."
p2134
sg1114
S'mhmh spooky ghost urggh ectoplasm noooooo'
p2135
sbasg5
S'Trail'
p2136
sg1117
(lp2137
g585
asg1119
(lp2138
sg1121
g1125
sg1128
g591
sg1129
S"Longboarding down this trail going Mach 16 was a blast and a half.\nDodging deer and first years like it's some sort of cube runner.\nNice."
p2139
sg1131
I1
sbaNaNaa(lp2140
Na(iGameClasses
Map
p2141
(dp2142
g12
S'BATES:\nLOT M lies in front of you. Keyes is to your left.\nThe trail to the Phoenix is behind you.'
p2143
sg1100
(lp2144
sg5
S'Bates'
p2145
sg1117
(lp2146
g985
a(iGameClasses
Interact
p2147
(dp2148
g12
S'Old RCA TV with VHS slot...'
p2149
sg5
S'RCA TV'
p2150
sg1107
g1113
sg1110
I00
sg20
g991
sg1111
S'tarzan vhs'
p2151
sg1112
S"You put the VHS into the slot and press play...\nThe opening scenes to Tarzan begin but suddenly the screen goes black and a message\nis displayed!\n'DrOWN I Need EveryThing graBs'"
p2152
sbasg1119
(lp2153
sg1121
g1125
sg1128
g991
sg1129
S'Memories of ridiculous res parties fill your mind.\nYou also recall the landfill of a room that was more of a circus attraction\nthan a living space.\nOh how distant first year seems...'
p2154
sg1131
I1
sbaNaNaa(lp2155
Na(iGameClasses
Map
p2156
(dp2157
g12
S'LOT M:\nTo your left is the bridge. Bates is behind you.'
p2158
sg1100
(lp2159
(iGameClasses
Enemy
p2160
(dp2161
g12
S"'Righteous! Could you help me get into my car?\nI lost my keys and can't find my car.\nI REALLY need what is in there.'"
p2162
sg3
(I14
I20
I5
tp2163
sg5
S'Rod the climber'
p2164
sg1107
S'delicious meal'
p2165
sg42
I01
sg1109
Nsg1110
I00
sg19
I40
sg20
g53
sg1111
S'bowling ball'
p2166
sg43
I00
sg1112
S'Thanks!\nNow I can learn to bowl that perfect strike.\nTake this, I just cooked it up.'
p2167
sg1114
S'Ouch!'
p2168
sbasg5
S'Lot M'
p2169
sg1117
(lp2170
g749
ag682
ag46
asg1119
(lp2171
sg1121
(g1122
g1125
tp2172
sg1128
g53
sg1129
S'After 3 days of hiking you arrive at Lot M.\nAfter 2 more days of looking for your car you give up and contemplate what to do next.'
p2173
sg1131
I1
sbaNaNaa(lp2174
NaNaNaNaa(lp2175
(lp2176
NaNaNaNaa(lp2177
(iGameClasses
Map
p2178
(dp2179
g12
S'SECRET ROOM:\nYou can only climb up and out.'
p2180
sg1100
(lp2181
sg5
S'Secret Room'
p2182
sg1117
(lp2183
(iGameClasses
Interact
p2184
(dp2185
g12
S"You blow the dust off, open it, and read:\n'The ability to peer into history would be a most formidable power.'\n'I have potentially produced a piece of the puzzle but without a\n'device capable of maintaining the field density long enough I fear\n'it will never become a reality.'\n'Thus I have decided to hide my invention until the time comes where\nsomeone can realize my dream.'\n'If you are reading this, find the place where you can see\ncampus in its entirety.'\n'If you ARE the hero, the next steps shall be revealed.'\n-M. Faraday"
p2186
sg5
S'Old Journal'
p2187
sg1107
g1113
sg1110
I00
sg20
(I6
I1
I0
tp2188
sg1111
g1113
sg1112
g1113
sbasg1119
(lp2189
sg1121
(g1122
g1123
g1124
g1125
g1126
tp2190
sg1128
g2188
sg1129
S"You inspect the floorboards and find one is loose.\nUpon lifting it you reveal a secret room!\nYou climb down and find yourself surrounded by stacks of ancient books and\nforgotten items from McMaster's past."
p2191
sg1131
I1
sba(iGameClasses
Map
p2192
(dp2193
g12
S'UNIVERSITY HALL:\nThe exit is to your left.'
p2194
sg1100
(lp2195
sg5
S'Inside University Hall'
p2196
sg1117
(lp2197
g1001
asg1119
(lp2198
sg1121
(g1125
g1123
g1122
tp2199
sg1128
g1007
sg1129
S'The glares from portraits of old white founding fathers intimidate you.\nThe memories of failing midterms in their presence sends you into an almost trance-like state.\nYou notice that the portrait of Keyes totally looks like Stephen Fry.\nAfter talking yourself out of stealing a piece of Mac history you plan your next move.'
p2200
sg1131
I1
sba(iGameClasses
Map
p2201
(dp2202
g12
S'2ND FLOOR UH:\nYou can only go back down the stairs.'
p2203
sg1100
(lp2204
sg5
S'2nd Floor UH'
p2205
sg1117
(lp2206
(iGameClasses
Interact
p2207
(dp2208
g12
S'Looks like a set of glasses with multiple coloured lenses...'
p2209
sg5
S'Tri-Coloured Glasses'
p2210
sg1107
Nsg1110
I00
sg20
(I6
I1
I2
tp2211
sg1111
S'declaration of independence'
p2212
sg1112
S"Its a cipher...\nOn the back of the declaration you can see different coded messages using the coloured lenses...\nRED:'Lithium Carbon Boron Mangnesium(-g)'\nBLUE:'Jerry likes presents.'\nGREEN:'Guardians of De Galaxy character.'"
p2213
sbasg1119
(lp2214
sg1121
(g1122
g1123
g1124
g1125
g1172
tp2215
sg1128
g2211
sg1129
S'You make your way up the rickety staircase into a room from a time long past.\nYou notice a dust covered table with some old instruments and clutter thrown about.'
p2216
sg1131
I1
sbaNaa(lp2217
NaNaNaNaa(lp2218
NaNaNaNaa(lp2219
NaNaNaNaa(lp2220
NaNaNaNaa(lp2221
NaNaNaNaa(lp2222
NaNaNaNaa(lp2223
NaNaNaNaatp2224
a(dp2225
S'dr. soleymani'
p2226
g1161
sS'dr. knights'
p2227
(iGameClasses
Enemy
p2228
(dp2229
g12
S"'Whoever took the 3W Textbook from the QT shall feel my eternal wrath...'"
p2230
sg3
(I200
I100
I50
tp2231
sg5
S'Dr. Knights'
p2232
sg1107
S'cold beer'
p2233
sg42
I01
sg1109
Nsg1110
I00
sg19
I300
sg20
(NNNtp2234
sg1111
S'3w textbook'
p2235
sg43
I00
sg1112
S"'I've been looking all over for that, have a cold one on me!'\n'But before you go you should know that a difficult road lies ahead.'\n'It will not be easy to have your Iron Ring returned to you'\n'Dr. Haugen should be the one you seek next.'"
p2236
sg1114
S"'What are you doing?!'"
p2237
sbsS'bill the mac cop'
p2238
g1851
sS'dr. kleimann'
p2239
(iGameClasses
Enemy
p2240
(dp2241
g12
S"'We have been looking for you.'\n'The Department is not pleased...'\n'But first, the McMaster Police have confiscated my Solar Cell, go get it.'\n'Then, maybe you are truly worthy of continuing this quest.'"
p2242
sg3
(I300
I150
I100
tp2243
sg5
S'Dr. Kleimann'
p2244
sg1107
S'solar ray'
p2245
sg42
I01
sg1109
Nsg1110
I00
sg19
I300
sg20
g2234
sg1111
S'solar cell'
p2246
sg43
I00
sg1112
S"You sit down and listen to what Dr. Kleimann has to say...\n'You have awoken an ancient force that hasn't stirred in many years'.\n'You didn't think we would find out what you did but we know all.'\n'It had been prophecized that an adventurer would dictate the future of the faculty...'\n'Only The Quantum Order can assist you now, seek out Dr. Minnick. I wish you luck...'"
p2247
sg1114
S'You have betrayed The Order!'
p2248
sbsS'mario the mixologist'
p2249
g1412
sS'sir william mcmaster'
p2250
(iGameClasses
Enemy
p2251
(dp2252
g12
S"'You must rid the university of the evil Dr. Cassidy has planned!'"
p2253
sg3
(I175
I125
I100
tp2254
sg5
S'Sir William McMaster'
p2255
sg1107
S'iron ring'
p2256
sg42
I01
sg1109
Nsg1110
I00
sg19
I125
sg20
g2234
sg1111
g1113
sg43
I00
sg1112
g1113
sg1114
S"The spirit of Sir William McMaster bursts with a fiercely bright explosion.\nYou look down to see your Iron Ring as well as the deed to McMaster!\nDr. Cassidy quickly picks up the deed and turns to you.\n'Excellent!' he says coupled with maniacal laughter.\n'Too fulfill your true destiny, take the power you hold in your Iron Ring and destroy all of the professors'\n'Only after they are gone can Engineering Physics truly reign supreme!'"
p2257
sbsS'will the mac cop'
p2258
g1944
sS'eric the baller'
p2259
g1242
sS'dan fitzgreen'
p2260
(iGameClasses
Enemy
p2261
(dp2262
g12
S"Hello, although I've turned to the dark side to do Physics Labs\n I'm still a great guy. Did I mention I worked at CERN!?"
p2263
sg3
(I100
I75
I100
tp2264
sg5
S'Dan Fitzgreen'
p2265
sg1107
S'ambifacient lunar waneshaft'
p2266
sg42
I01
sg1109
Nsg1110
I00
sg19
I400
sg20
g2234
sg1111
g1113
sg43
I00
sg1112
S"'Been a lot stirring around the faculty since last night.'\n'I used to be an adventurous student like you before the High Council and I decided to part ways.'\n'I know what you seek and I am here to help.'\n'You need to fire up that old reactor in the basement of the Tandem Accelerator.'\n'It needs some sort of high power instrument to bring it to life...'\n'I think Dr. Nagasaki has been working on something like that, he is probably somewhere in ITB.'\n'He will likely need this...'"
p2267
sg1114
S"I'm moving to the physics department"
p2268
sbsS'dr. buijs'
p2269
(iGameClasses
Enemy
p2270
(dp2271
g12
S"'I've been looking for you.'\n'I have a lot to tell you, but first we must test your loyalty.'\n'There is a traitor amongst the Eng Phys faculty!'\n'His name is Chris and he was last seen in the Tandem Accelerator.'\n'Bring me what he has stolen!'"
p2272
sg3
(I250
I150
I100
tp2273
sg5
S'Dr. Buijs'
p2274
sg1107
S'voltage divider'
p2275
sg42
I01
sg1109
Nsg1110
I00
sg19
I300
sg20
g2234
sg1111
S'capstone tools'
p2276
sg43
I00
sg1112
S"'Ah you have returned.'\nYou sit down and listen to what Dr. Buijs has to say.\n'The Engineering Physics professors are part of an ancient council known as\nThe Quantum Order'\n'It is our duty to ensure the safety of this campus.'\n'It appears that your actions last night have stirred an evil\neven we don't understand.'\n'All that we do know is that some faculty members have been\ntempted by a Dark Lord with the promise of infinite knowledge.'\n'A prophecy from a time long past has foretold that an adventurer's decisions\nwould dictate the future of the faculty.'\n'Perhaps it is you they spoke of. Keep that in mind as you consider your actions.'\n'See Dan Fitzgreen in the basement.'\n'He has hatched a plan that may turn the balances in our favour.'"
p2277
sg1114
S'It is a voltage divider!'
p2278
sbsS'kenrick'
p2279
g1827
sS'dr. haugen'
p2280
(iGameClasses
Enemy
p2281
(dp2282
g12
S"'Hello, as you are likely aware, there has been a disturbance...'\n'You losing your Iron Ring was no accident, it was taken from you.'\n'The Quantum Order is an ancient fold whose goal is to protect the\nUniversity from certain doom and misuse of our knowledge.'\n'There has been an item of importance stolen from us and we need it returned immediately.'\n'Especially if you are to find your Iron Ring.'\n'The council has received intelligence that Dr. Soleymani has stolen Einstein's brain from the McMaster vault.'\n'You must retrieve it at once, she can be found somewhere in the hospital.'\n'Do not underestimate her! She has been tempted by a Dark Lord.'\n'The Quantum Order requires that you defeat her and return the brain at once!'"
p2283
sg3
(I250
I100
I999
tp2284
sg5
S'Dr. Haugen'
p2285
sg1107
S'femtosecond laser'
p2286
sg42
I01
sg1109
Nsg1110
I00
sg19
I200
sg20
g2234
sg1111
S"einstein's brain"
p2287
sg43
I00
sg1112
S"'Oh my! You've returned! I knew you could do it!'\n'Quickly, hand it over!'\nYou hand Dr. Haugen the brain and he opens the fridge placing it inside.\n'Now, we just need to mount my laser onto my bench-'\nSuddenly a rabid Grad Student bursts into the lab!\n'Hand over the brain, the Dark Lord demands it!' he says.\n'If you strike me down, I will become more powerful than\nyou could possibly imagine' Dr. Haugen replies.\nThe Grad Student lunges at Dr. Haugen who disappears entirely!\nJust before the perplexed Grad Student turns towards you he is met by your blow\nand falls to the floor."
p2288
sg1114
S'Oh my!'
p2289
sbsS'chris'
p2290
g1993
sS'dr. preston'
p2291
(iGameClasses
Enemy
p2292
(dp2293
g12
S"'I would like to improve my already impressive dad strength.'\n'Bring me a dumbbell.'"
p2294
sg3
(I250
I150
I100
tp2295
sg5
S'Dr. Preston'
p2296
sg1107
S'green lantern shirt'
p2297
sg42
I01
sg1109
Nsg1110
I00
sg19
I300
sg20
g2234
sg1111
S'dumbbell'
p2298
sg43
I00
sg1112
S"'Yes! Now I can get the pump I've been after!'\n'Go look for Dr. Buijs he has much more to tell than I.'"
p2299
sg1114
S'HOW DID YOU OVERCOME MY DAD STRENGTH?!'
p2300
sbsS'dr. nagasaki'
p2301
g1276
sS'connor the biologist'
p2302
g1537
sS'dr. novog'
p2303
(iGameClasses
Enemy
p2304
(dp2305
g12
S"What's up folks?"
p2306
sg3
(I420
I420
I420
tp2307
sg5
S'Dr. Novog'
p2308
sg1107
S'ancient incantation'
p2309
sg42
I01
sg1109
Nsg1110
I00
sg19
I100
sg20
g2234
sg1111
S'pink donut'
p2310
sg43
I00
sg1112
S"'Alright folks, here's the scoop.'\n'I could only talk to you via the fusion network because the integrity of faculty\ncommunication has been compromised.'\n'The Engineering Physics professors are actually members of an Ancient Council known as The Quantum Order.'\n'For years we have kept McMast-'\n'An assassin?'\n'Hmm... I see, things are worse than we thought.'\n'We have known of this uprising within the faculty for some time but\nwere unaware of just how strong they have grown.'\n'As you have heard, a prophecy foretold of an adventurer dictating the future of the faculty.'\n'This evil group wants nothing more than to take advantage of your power and influence for their own plans.'\n'The choices you make will be yours and yours alone, however, the Quantum Order\nurges that you consider the consequences of your actions.'\n'It is our duty to assist you in realizing your ability but what comes of your power is out of our hands.'\n'You must contact the oracles who foretold of your coming, they will give you the knowledge you require.'\n'Each member of the Quantum Order only knows of the location one Oracle.'\n'For that reason I can only help you so much.'\nDr. Novog pushes a button on a nearby control panel.\nA crane arm descends into the Reactor pool to retrieve a crate from its depths.\n'Take this incantation and find the ancient mirror in the basement of Mills Library... it is your time.'"
p2311
sg1114
g1113
sbsS'mitch the ta'
p2312
g1208
sS'rod the climber'
p2313
g2160
sS'jana the vegan'
p2314
g2080
sS'steven the first-year'
p2315
g1867
sS'dr. minnick'
p2316
(iGameClasses
Enemy
p2317
(dp2318
g12
S"'Hello and welcome to how we retrieve your iron ring.'\n'The Quantum Order does not know exactly what you have done.'\n'However, we have felt the consequences of your actions.'\n'I believe the only way to explain this is to show you.'\n'The Quantum Order has gathered intelligence that Kenrick has been using\nhis oscilloscope for evil.'\n'I need you to confront him and return his oscilloscope if we are to go further.'"
p2319
sg3
(I400
I400
I400
tp2320
sg5
S'Dr. Minnick'
p2321
sg1107
S"minnick's glasses"
p2322
sg42
I01
sg1109
Nsg1110
I00
sg19
I200
sg20
g2234
sg1111
S"kenrick's oscilloscope"
p2323
sg43
I00
sg1112
S"'Ah, you have returned.'\n'You see, Kenrick has retrofitted his oscilloscope and created some sort\nof 'window' into the electronics world.'\n'Using this window he has been attempting to access the minds of the greatest\nphysicists in history and use their power for evil!'\n'Our intelligence does not go any further and we do not know what he has done.'\n'All that we do know is that after last night you must be rooted in all of this just as the prophecy foretold.'\n'Take these, if you truly are the one, they will reveal what you need to see.'\n'I suggest you start in the museum.'\n'Also, my lab has since been compromised so I will work in secret in the basement of Thode.'\n'Once you have found the next relic, my workbench will be ready...'"
p2324
sg1114
S"'I'm jealous of stupid people, they have more opportunities to learn!'"
p2325
sbsS'brian the hipster'
p2326
g1616
sS'father frobenius'
p2327
g1574
sS'paul the janitor'
p2328
g1259
sS'dr. kitai'
p2329
(iGameClasses
Enemy
p2330
(dp2331
g12
S"'I've been trying to develop a new LED...'\n'But I need some silicon, find me a Silicon Substrate please!'"
p2332
sg3
(I150
I50
I50
tp2333
sg5
S'Dr. Kitai'
p2334
sg1107
S'led of power'
p2335
sg42
I01
sg1109
Nsg1110
I00
sg19
I150
sg20
g2234
sg1111
S'silicon substrate'
p2336
sg43
I00
sg1112
S"'I've been looking for one just like this, how did you get it?'\n'Maybe you are th-'\n'Nevermind... just be on the lookout for Dr. Kleiman.'"
p2337
sg1114
S"'It was only a midterm, don't off yourself.'"
p2338
sbsS'hooded man'
p2339
g2096
sS'liam the gamer'
p2340
g1792
sS'zack the snack'
p2341
g1652
sS'larry the bus driver'
p2342
g1600
sS'megan the bartender'
p2343
g2102
sS'dr. lapierre'
p2344
(iGameClasses
Enemy
p2345
(dp2346
g12
S"'Bring me a Coffee please, I am rather tired.'"
p2347
sg3
(I100
I100
I200
tp2348
sg5
S'Dr. LaPierre'
p2349
sg1107
S'eng phys pen'
p2350
sg42
I01
sg1109
Nsg1110
I00
sg19
I300
sg20
g2234
sg1111
S'coffee'
p2351
sg43
I00
sg1112
S'Here. I nice pen for your troubles.\nGo find Dr. Knights, he has more for you to do.'
p2352
sg1114
S"I can't believe you've done this."
p2353
sbsS'brendan fallon'
p2354
(iGameClasses
Enemy
p2355
(dp2356
g12
S"What's up dude? I'm here to bless up your shit.\nDo you have my lunch box?"
p2357
sg3
(I9999
I9999
I9999
tp2358
sg5
S'Brendan Fallon'
p2359
sg1107
S'green bang bong'
p2360
sg42
I01
sg1109
Nsg1110
I00
sg19
I999
sg20
g2234
sg1111
S"brendan fallon's lunchbox"
p2361
sg43
I00
sg1112
S'THANKS! TOKE UP MY DUDES!'
p2362
sg1114
g1113
sbsS'phil the drunk'
p2363
g2127
sS'undead grad student'
p2364
g1558
sS'erik the sk8r'
p2365
g1102
sS'andreas the nerd'
p2366
g1769
sS'dr. cassidy'
p2367
(iGameClasses
Enemy
p2368
(dp2369
g12
S"'Yes, I was the one who sent you on this quest.'\n'My associates were no match for you, they did not have the strength to acquire the Relics for me.'\n'I know the Quantum Order has told you that the prophecy spoke of you bringing peace.'\n'You have been lead to believe the Order fights for what is just and fair.'\n'But you have been mislead.'\n'They only wish to keep the power of the Quantum Relics to themselves so that they\nalone decide the fate of the University.'\n'I only ever wanted to reveal the true power of Engineering Physics to the students.'\n'They thought my methods were unsafe.'\n'They thought the power I intended to reveal would pollute the minds of the students\nand cloud their judgement.'\n'The Quantum Order only wishes to suppress the true power we hold!'\n'They don't trust the students, they think they are incapable of managing the power I intended to give them.'\n'We are the premier stream and we deserve to rule McMaster as such!'\n'Join me, together we can harness the powers given to you by the oracles.'\n'With the relics we may enter the Shadow Realm and retrieve the deed to the university\nfrom the spirit of Sir William McMaster.'\n'We can then overthrow the Quantum Order and shape the university to our liking and\nfinally Engineering Physics will reign supreme!'\n\nJust as Dr. Cassidy finishes speaking the ground begins to shake and you are blinded\nby a glow emanating from the statue of Sir William McMaster.\nYou recover from shielding your eyes and see the spirit of William McMaster\nemerging from a rift in fabric of spacetime!\n'Just wait, hero.'\n'I took your Iron Ring from you after you desecrated my statue last night for a reason'\n'I have known of Dr. Cassidy's intentions for some time and as you are the one\nthe prophecy has spoken of I knew he would jump at this opportunity to take my deed.'\n'I had to find a way to force him into playing his hand.'\n'Now the opportunity to rid Engineering Physics of this tyrannical Dark Lord has come!'\nDr. Cassidy quickly interjects.\n'You see, he only wants to restrict the power of our faculty!'\n'Destroy him and we shall finally rule the university!'"
p2370
sg3
(I175
I125
I200
tp2371
sg5
S'Dr. Cassidy'
p2372
sg1107
g1113
sg42
I01
sg1109
Nsg1110
I00
sg19
I125
sg20
g2234
sg1111
g1113
sg43
I00
sg1112
g1113
sg1114
S"Dr. Cassidy falls to the ground.\nThe spirit of Sir William McMaster approaches and puts his hand on your shoulder.\n'You have chosen wisely.'\n'Dr. Cassidy had been driven mad in his quest for ultimate power.'\n'You have ensured the safety of McMaster and remained true to your values.'\n'McMaster University is an institution meant to allow all facets of learning coexist in harmony.'\n'No faculty should rule over the rest.'\n'For your actions, I believe you are a worthy engineer.'\n'Here is your Iron Ring, continue to wear it with pride.'"
p2373
sbsa(dp2374
S'red book'
p2375
g1923
sS'workbench'
p2376
g1508
sS'rules sign'
p2377
g1641
sS'old car'
p2378
g1309
sS'red car'
p2379
g1297
sS'fridge'
p2380
g1458
sS'old painting'
p2381
g1745
sS'optical bench'
p2382
g1465
sS'garbage can'
p2383
g1634
sS'uneven earth'
p2384
g1885
sS'new car'
p2385
g1313
sS'mouse'
p2386
g1360
sS'coat of arms'
p2387
g1837
sS'rca tv'
p2388
g2147
sS'sharpxchange'
p2389
g1148
sS'tri-coloured glasses'
p2390
g2207
sS'mcmaster map'
p2391
g1388
sS'blue car'
p2392
g1302
sS'blue book'
p2393
g1919
sS'broken reactor'
p2394
g1978
sS'sun dial'
p2395
g1778
sS'box of old cds'
p2396
g1664
sS'old lamp'
p2397
g2050
sS'old journal'
p2398
g2184
sS'display case'
p2399
g1481
sS'ancient mirror'
p2400
g1903
sa(dp2401
S'knights get book'
p2402
I1
sS'minnick get oscilloscope'
p2403
I1
sS'secret spaces'
p2404
I1
sS'lapierre get coffee'
p2405
I1
sS'the dark lord'
p2406
I1
sS'get key to display case'
p2407
I0
sS'haugen kill soleymani'
p2408
I1
sS'kleimann get solar cell'
p2409
I1
sS'talk to mysterious man'
p2410
I1
sS'create chaos'
p2411
I1
sS'einstein fridge'
p2412
I1
sS'university man'
p2413
I1
sS'preston get dumbbell'
p2414
I1
sS'restored order'
p2415
I1
sS'end game start'
p2416
I1
sS'novog get donut'
p2417
I1
sS'dan fix reactor'
p2418
I1
sS'maxwell portal'
p2419
I1
sS'kitai get silicon substrate'
p2420
I1
sS'feynman mirror'
p2421
I1
sS'buijs kill chris'
p2422
I1
sa(dp2423
S'version'
p2424
F0.27
sS'log'
p2425
(lp2426
S'Alpha v0.27 - Dev Update'
p2427
ag6
aF1545968038.352
aS'--LOG START--'
p2428
ag1125
aS'equip iron ring'
p2429
aS'stats'
p2430
ag1125
ag1125
ag1122
aS'savegame'
p2431
asS'versionname'
p2432
g2427
sS'gamestart'
p2433
F1545968038.352
sS'playername'
p2434
g6
sS'stepcount'
p2435
I4
sS'runtime'
p2436
F13.061000108718872
sS'commandcount'
p2437
I6
sa.