(lp0
(iGameClasses
Character
p1
(dp2
S'stats'
p3
(I830
I775
I795
tp4
sS'name'
p5
S'Tyler Kashak'
p6
sS'inv'
p7
(dp8
S'body'
p9
(iGameClasses
Equipment
p10
(dp11
S'info'
p12
S'The Shirt of the Hero of Kyvach!'
p13
sg3
(I10
I5
I5
tp14
sg5
S'Big Hits Shirt'
p15
sS'image'
p16
S'BigHits.jpg'
p17
sS'worn'
p18
g9
sS'health'
p19
S''
p20
sS'location'
p21
(lp22
I5
aI2
aI1
asbsS'head'
p23
(iGameClasses
Equipment
p24
(dp25
g12
S'You can feel the electromagnetic energy emanating from it, one of the 3 quantum relics'
p26
sg3
(I100
I100
I100
tp27
sg5
S'Gauss Eye'
p28
sg16
S'GaussEye.jpg'
p29
sg18
g23
sg19
g20
sg21
g22
sbsS'off-hand'
p30
(iGameClasses
Equipment
p31
(dp32
g12
S"'Property of Harold Haugen, one of the 3 Quantum Relics' is inscribed on the first page."
p33
sg3
(I50
I150
I250
tp34
sg5
S'Pedrotti Cubed'
p35
sg16
S'Pedrotti.jpg'
p36
sg18
S'off-hand'
p37
sg19
g20
sg21
g22
sbsS'hand'
p38
(iGameClasses
Equipment
p39
(dp40
g12
S'Shorter than it really is due to length contraction, one of the 3 Quantum Relics'
p41
sg3
(I250
I100
I20
tp42
sg5
S'Gamma Glove'
p43
sg16
S'GammaGauntlet.jpg'
p44
sg18
g38
sg19
g20
sg21
g22
sbssS'emptyinv'
p45
(dp46
g9
(iGameClasses
Equipment
p47
(dp48
g12
S'Nothing is Equipped'
p49
sg3
(I0
I0
I0
tp50
sg5
S'EMPTY'
p51
sg16
S'EMPTY.png'
p52
sg18
g9
sg19
I-101
sg21
(lp53
I2
aI3
aI1
asbsg23
(iGameClasses
Equipment
p54
(dp55
g12
g49
sg3
(I0
I0
I0
tp56
sg5
g51
sg16
g52
sg18
g23
sg19
I-101
sg21
g53
sbsg30
(iGameClasses
Equipment
p57
(dp58
g12
g49
sg3
(I0
I0
I0
tp59
sg5
g51
sg16
g52
sg18
g30
sg19
I-101
sg21
g53
sbsg38
(iGameClasses
Equipment
p60
(dp61
g12
g49
sg3
(I0
I0
I0
tp62
sg5
g51
sg16
g52
sg18
g38
sg19
I-101
sg21
g53
sbssS'maxhealth'
p63
I999
sS'alive'
p64
I01
sS'basestats'
p65
(lp66
I420
aI420
aI420
asg19
I999
sg21
g22
sS'spoke'
p67
I00
sba(dp68
S'cheese'
p69
(iGameClasses
Equipment
p70
(dp71
g12
S'Not just cheddar, the smelly kind.'
p72
sg3
(I1
I1
I1
tp73
sg5
S'Cheese'
p74
sg16
S'Cheese.jpg'
p75
sg18
g37
sg19
I5
sg21
(I5
I7
I1
tp76
sbsS'delicious meal'
p77
(iGameClasses
Equipment
p78
(dp79
g12
S'A beautiful, home-cooked, meal.'
p80
sg3
(I1
I1
I1
tp81
sg5
S'Delicious Meal'
p82
sg16
S'Meal.jpg'
p83
sg18
g37
sg19
I25
sg21
(NNNtp84
sbsS'shovel'
p85
(iGameClasses
Equipment
p86
(dp87
g12
S'Call a spade a spade.'
p88
sg3
(I15
I0
I5
tp89
sg5
S'Shovel'
p90
sg16
S'Shovel.jpg'
p91
sg18
g38
sg19
g20
sg21
(I5
I0
I0
tp92
sbsS'bowling ball'
p93
(iGameClasses
Equipment
p94
(dp95
g12
S'Heavy.'
p96
sg3
(I20
I15
I-5
tp97
sg5
S'Bowling Ball'
p98
sg16
S'BowlingBall.jpg'
p99
sg18
g38
sg19
g20
sg21
g84
sbsS'led of power'
p100
(iGameClasses
Equipment
p101
(dp102
g12
S'An LED with the power output of a neutron star, ok maybe not.'
p103
sg3
(I21
I0
I20
tp104
sg5
S'LED of Power'
p105
sg16
S'LED.jpg'
p106
sg18
g38
sg19
g20
sg21
(I4
I4
I1
tp107
sbsS'green bang bong'
p108
(iGameClasses
Equipment
p109
(dp110
g12
S"The sacred glass flute providing righteous tokes since '69."
p111
sg3
(I420
I420
I420
tp112
sg5
S'Green Bang Bong'
p113
sg16
S'GBB.jpg'
p114
sg18
g37
sg19
g20
sg21
(I0
I3
I2
tp115
sbsS'gas mask'
p116
(iGameClasses
Equipment
p117
(dp118
g12
S'No one cared who I was till I put on the mask.'
p119
sg3
(I3
I6
I5
tp120
sg5
S'Gas Mask'
p121
sg16
S'GasMask.jpg'
p122
sg18
g23
sg19
g20
sg21
(I3
I5
I1
tp123
sbsS'surgical mask'
p124
(iGameClasses
Equipment
p125
(dp126
g12
S"Don't touch me I'm sterile!"
p127
sg3
(I0
I2
I3
tp128
sg5
S'Surgical Mask'
p129
sg16
S'SurgicalMask.jpg'
p130
sg18
g23
sg19
g20
sg21
(I0
I1
I1
tp131
sbsS'tofu'
p132
(iGameClasses
Equipment
p133
(dp134
g12
S"Vegan's delight."
p135
sg3
(I1
I0
I5
tp136
sg5
S'Tofu'
p137
sg16
S'Carrot.jpg'
p138
sg18
g38
sg19
I2
sg21
(I5
I4
I0
tp139
sbsS'jar of horse radish'
p140
(iGameClasses
Equipment
p141
(dp142
g12
S'Apparently not an instrument...'
p143
sg3
(I2
I0
I4
tp144
sg5
S'Jar of Horse Radish'
p145
sg16
S'HRaddish.jpg'
p146
sg18
g37
sg19
I3
sg21
(I4
I5
I1
tp147
sbsS'gilded blunderbuss'
p148
(iGameClasses
Equipment
p149
(dp150
g12
S'A beautiful firearm with infinite ammo.'
p151
sg3
(I200
I5
I50
tp152
sg5
S'Gilded Blunderbuss'
p153
sg16
S'Blunderbuss.jpg'
p154
sg18
g38
sg19
g20
sg21
g84
sbsS'squash racket'
p155
(iGameClasses
Equipment
p156
(dp157
g12
S"Dr. Buijs' Racket? Voltage Divider!"
p158
sg3
(I5
I0
I8
tp159
sg5
S'Squash Racket'
p160
sg16
S'Racket.jpg'
p161
sg18
g38
sg19
g20
sg21
(I5
I0
I1
tp162
sbsS'tarzan vhs'
p163
(iGameClasses
Equipment
p164
(dp165
g12
S'If only I had a VCR...'
p166
sg3
(I0
I2
I6
tp167
sg5
S'Tarzan VHS'
p168
sg16
S'Tarzan.jpg'
p169
sg18
g37
sg19
I3
sg21
(I0
I2
I1
tp170
sbsS'bike helmet'
p171
(iGameClasses
Equipment
p172
(dp173
g12
S'One of those fast Tour de France ones.'
p174
sg3
(I0
I8
I10
tp175
sg5
S'Bike Helmet'
p176
sg16
S'BikeHelmet.jpg'
p177
sg18
g23
sg19
g20
sg21
(I3
I7
I1
tp178
sbsS'empty bottle'
p179
(iGameClasses
Equipment
p180
(dp181
g12
S'Dasani, more like Dishonest! Amirite?!'
p182
sg3
(I1
I0
I1
tp183
sg5
S'Empty Bottle'
p184
sg16
S'EmptyBottle.jpg'
p185
sg18
g38
sg19
g20
sg21
(I4
I1
I1
tp186
sbsS'hard hat'
p187
(iGameClasses
Equipment
p188
(dp189
g12
S"You don't really want to look like a Civil kid. But at least it protects your head."
p190
sg3
(I1
I10
I5
tp191
sg5
S'Hard Hat'
p192
sg16
S'HardHat.jpg'
p193
sg18
g23
sg19
g20
sg21
(I4
I2
I1
tp194
sbsS'priest gown'
p195
(iGameClasses
Equipment
p196
(dp197
g12
S'Wearing this gives people the impression you are a holy person...'
p198
sg3
(I1
I5
I3
tp199
sg5
S'Priest Gown'
p200
sg16
S'Gown.jpg'
p201
sg18
g9
sg19
g20
sg21
(I2
I0
I2
tp202
sbsS'used plunger'
p203
(iGameClasses
Equipment
p204
(dp205
g12
S'Used. Lovely...'
p206
sg3
(I10
I0
I10
tp207
sg5
S'Used Plunger'
p208
sg16
S'Plunger.jpg'
p209
sg18
g38
sg19
g20
sg21
g92
sbsS'dumbbell'
p210
(iGameClasses
Equipment
p211
(dp212
g12
S'The pump is the greatest feeling in the world.'
p213
sg3
(I5
I0
I2
tp214
sg5
S'Dumbbell'
p215
sg16
S'Dumbbell.jpg'
p216
sg18
g37
sg19
g20
sg21
(NNNtp217
sbsS'febreze'
p218
(iGameClasses
Equipment
p219
(dp220
g12
S'Kills 99.9% of odour at the source!'
p221
sg3
(I6
I0
I10
tp222
sg5
S'Febreze'
p223
sg16
S'Ferbreze.jpg'
p224
sg18
g38
sg19
I-4
sg21
(I1
I0
I1
tp225
sbsS'msp430'
p226
(iGameClasses
Equipment
p227
(dp228
g12
S'A literal piece of garbage.'
p229
sg3
(I-5
I0
I-5
tp230
sg5
S'MSP430'
p231
sg16
S'MSP430.jpg'
p232
sg18
g38
sg19
I-5
sg21
(I2
I3
I1
tp233
sbsS'declaration of independence'
p234
(iGameClasses
Equipment
p235
(dp236
g12
S"I'm going to steal the Declaration of Independence..."
p237
sg3
(I1
I1
I1
tp238
sg5
S'Declaration of Independence'
p239
sg16
S'DOI.jpg'
p240
sg18
g37
sg19
g20
sg21
g84
sbsS'horrible assignment'
p241
(iGameClasses
Equipment
p242
(dp243
g12
S'A barely legible report on Fourier analysis.'
p244
sg3
(I3
I0
I0
tp245
sg5
S'Horrible Assignment'
p246
sg16
S'BadAss.jpg'
p247
sg18
g37
sg19
g20
sg21
g84
sbsS'pope hat'
p248
(iGameClasses
Equipment
p249
(dp250
g12
S'Does the Pope where a silly hat? Now you do.'
p251
sg3
(I0
I3
I2
tp252
sg5
S'Pope Hat'
p253
sg16
S'PopeHat.jpg'
p254
sg18
g23
sg19
g20
sg21
g202
sbsS'bottle opener'
p255
(iGameClasses
Equipment
p256
(dp257
g12
S'I wish I had a bottle of wine right about now...'
p258
sg3
(I0
I5
I15
tp259
sg5
S'Bottle Opener'
p260
sg16
S'BottleOpener.jpg'
p261
sg18
g37
sg19
g20
sg21
g178
sbsS'car keys'
p262
(iGameClasses
Equipment
p263
(dp264
g12
S"Volkswagen car keys with an 'R' on the keychain.\nHmm..."
p265
sg3
(I5
I0
I5
tp266
sg5
S'Car Keys'
p267
sg16
S'CarKeys.jpg'
p268
sg18
g37
sg19
g20
sg21
g194
sbsS"erik's frosted tips"
p269
(iGameClasses
Equipment
p270
(dp271
g12
S'Ever wanted to look rad as hell? Now you can!'
p272
sg3
(I0
I3
I20
tp273
sg5
S"Erik's Frosted Tips"
p274
sg16
S'FrostedTips.jpg'
p275
sg18
g23
sg19
g20
sg21
g84
sbsS'pedrotti cubed'
p276
g31
sS'puke'
p277
(iGameClasses
Equipment
p278
(dp279
g12
S'Ew, literally a pool of vomit'
p280
sg3
(I1
I0
I-10
tp281
sg5
S'Puke'
p282
sg16
S'Puke.jpg'
p283
sg18
g9
sg19
I-2
sg21
g84
sbsS'adderall'
p284
(iGameClasses
Equipment
p285
(dp286
g12
S'Speed up, my dude!'
p287
sg3
(I0
I0
I50
tp288
sg5
S'Adderall'
p289
sg16
S'Adderall.jpg'
p290
sg18
g37
sg19
I2
sg21
(I5
I3
I1
tp291
sbsS'visor glasses'
p292
(iGameClasses
Equipment
p293
(dp294
g12
S'Damn, you are now travelling waaaay to fast. Slow down dude!'
p295
sg3
(I1
I5
I35
tp296
sg5
S'Visor Glasses'
p297
sg16
S'FastGlasses.jpg'
p298
sg18
g23
sg19
g20
sg21
(I3
I3
I1
tp299
sbsS'plastic bag'
p300
(iGameClasses
Equipment
p301
(dp302
g12
S'The audacity of some people to leave their filth around.'
p303
sg3
(I0
I1
I-10
tp304
sg5
S'Plastic Bag'
p305
sg16
S'PBag.jpg'
p306
sg18
g23
sg19
g20
sg21
(I2
I1
I1
tp307
sbsS'broken wine bottle'
p308
(iGameClasses
Equipment
p309
(dp310
g12
S'A broken wine bottle from 1996, good year.'
p311
sg3
(I10
I0
I5
tp312
sg5
S'Broken Wine Bottle'
p313
sg16
S'WineBottle.jpg'
p314
sg18
g38
sg19
g20
sg21
(I4
I3
I1
tp315
sbsS'jar of peanut butter'
p316
(iGameClasses
Equipment
p317
(dp318
g12
S'Death paste to those who are allergic... Could prove effective...'
p319
sg3
(I0
I5
I5
tp320
sg5
S'Jar of Peanut Butter'
p321
sg16
S'Peanut.jpg'
p322
sg18
g37
sg19
I5
sg21
(I4
I0
I1
tp323
sbsS'toilet seat'
p324
(iGameClasses
Equipment
p325
(dp326
g12
S'How do you even wear this?'
p327
sg3
(I0
I3
I2
tp328
sg5
S'Toilet Seat'
p329
sg16
S'Toilet.jpg'
p330
sg18
g9
sg19
g20
sg21
g92
sbsS'vh sauce'
p331
(iGameClasses
Equipment
p332
(dp333
g12
S'Sweet and sour. Nice.'
p334
sg3
(I1
I2
I1
tp335
sg5
S'VH Sauce'
p336
sg16
S'VHSauce.jpg'
p337
sg18
g37
sg19
I1
sg21
(I1
I4
I1
tp338
sbsS'banana'
p339
(iGameClasses
Equipment
p340
(dp341
g12
S'High in potassium.'
p342
sg3
(I5
I0
I5
tp343
sg5
S'Banana'
p344
sg16
S'Banana.jpg'
p345
sg18
g38
sg19
I2
sg21
(I1
I7
I1
tp346
sbsS'ice-cold pint'
p347
(iGameClasses
Equipment
p348
(dp349
g12
S'Ale of the Gods.'
p350
sg3
(I3
I0
I-5
tp351
sg5
S'Ice-Cold Pint'
p352
sg16
S'Pint.jpg'
p353
sg18
g37
sg19
I2
sg21
g315
sbsS'pencil'
p354
(iGameClasses
Equipment
p355
(dp356
g12
S'HB2. Sharpened.'
p357
sg3
(I2
I0
I5
tp358
sg5
S'Pencil'
p359
sg16
S'Pencil.jpg'
p360
sg18
g38
sg19
g20
sg21
(I2
I4
I1
tp361
sbsS'coffee'
p362
(iGameClasses
Equipment
p363
(dp364
g12
S'The fuel of thinkers.'
p365
sg3
(I3
I0
I9
tp366
sg5
S'Coffee'
p367
sg16
S'Coffee.jpg'
p368
sg18
g37
sg19
I1
sg21
g217
sbsS'epipen'
p369
(iGameClasses
Equipment
p370
(dp371
g12
S"Epinephrine Autoinjector 0.3mg. Replace if discolored. Store at 68C.\nIncase of alergic reaction remove the top...wait, why are you reading \nthis label? Isn't there something else you should be doing? "
p372
sg3
(I7
I0
I5
tp373
sg5
S'EpiPen'
p374
sg16
S'EpiPen.jpg'
p375
sg18
g37
sg19
I-2
sg21
g76
sbsS'cold steel katana'
p376
(iGameClasses
Equipment
p377
(dp378
g12
S'This could probably kill a buffalo fish...'
p379
sg3
(I18
I5
I20
tp380
sg5
S'Cold Steel Katana'
p381
sg16
S'Katana.jpg'
p382
sg18
g38
sg19
g20
sg21
g84
sbsS'mop'
p383
(iGameClasses
Equipment
p384
(dp385
g12
S"I'm going to clean up this town."
p386
sg3
(I6
I0
I4
tp387
sg5
S'Mop'
p388
sg16
S'Mop.jpg'
p389
sg18
g38
sg19
g20
sg21
(I0
I0
I1
tp390
sbsS'swordfish'
p391
(iGameClasses
Equipment
p392
(dp393
g12
S"I'd better be careful eating this!"
p394
sg3
(I10
I5
I5
tp395
sg5
S'Swordfish'
p396
sg16
S'Swordfish.jpg'
p397
sg18
g37
sg19
I12
sg21
g84
sbsS'ancient incantation'
p398
(iGameClasses
Equipment
p399
(dp400
g12
S'An old tattered scroll with an incantation written in Latin.'
p401
sg3
(I1
I1
I1
tp402
sg5
S'Ancient Incantation'
p403
sg16
S'Incantation.jpg'
p404
sg18
g37
sg19
g20
sg21
(NNNtp405
sbsS'meow mix'
p406
(iGameClasses
Equipment
p407
(dp408
g12
S'I love chicken, I love liver...'
p409
sg3
(I5
I0
I5
tp410
sg5
S'Meow Mix'
p411
sg16
S'MeowMix.jpg'
p412
sg18
g37
sg19
I1
sg21
g84
sbsS'gauss eye'
p413
g24
sS'phone'
p414
(iGameClasses
Equipment
p415
(dp416
g12
S"This thing has been dropped Graham's number times."
p417
sg3
(I5
I6
I9
tp418
sg5
S'Phone'
p419
sg16
S'Phone.jpg'
p420
sg18
g37
sg19
g20
sg21
g84
sbsS'casio'
p421
(iGameClasses
Equipment
p422
(dp423
g12
S"This one can do integrals. That's illegal."
p424
sg3
(I1
I5
I10
tp425
sg5
S'Casio'
p426
sg16
S'Casio.jpg'
p427
sg18
g37
sg19
g20
sg21
(I2
I7
I1
tp428
sbsS'vomit'
p429
(iGameClasses
Equipment
p430
(dp431
g12
S'Literally spew.'
p432
sg3
(I0
I0
I1
tp433
sg5
S'Vomit'
p434
sg16
S'Vomit.jpg'
p435
sg18
g37
sg19
I-1
sg21
g84
sbsS'bleach squirt bottle'
p436
(iGameClasses
Equipment
p437
(dp438
g12
S"Probably wouldn't be nice to get sprayed with."
p439
sg3
(I15
I5
I20
tp440
sg5
S'Bleach Squirt Bottle'
p441
sg16
S'Bleach.jpg'
p442
sg18
g38
sg19
I-10
sg21
g84
sbsS'drumstick'
p443
(iGameClasses
Equipment
p444
(dp445
g12
S"'Property of E-Smooth'"
p446
sg3
(I0
I10
I15
tp447
sg5
S'Drumstick'
p448
sg16
S'Drumstick.jpg'
p449
sg18
g37
sg19
g20
sg21
(I5
I4
I2
tp450
sbsS"wendy's bag"
p451
(iGameClasses
Equipment
p452
(dp453
g12
S'Fully equipped with grease stains.'
p454
sg3
(I1
I0
I-5
tp455
sg5
S"Wendy's Bag"
p456
sg16
S'WendyBag.jpg'
p457
sg18
g23
sg19
g20
sg21
(I0
I6
I1
tp458
sbsS'empty bucket'
p459
(iGameClasses
Equipment
p460
(dp461
g12
S'The smell of cheap soap still lingers.'
p462
sg3
(I0
I10
I1
tp463
sg5
S'Empty Bucket'
p464
sg16
S'Bucket.jpg'
p465
sg18
g23
sg19
g20
sg21
g92
sbsS'old scroll'
p466
(iGameClasses
Equipment
p467
(dp468
g12
S"It reads:\n'A permanent title is too much to bear.'\n'My secret cache, is under there.'"
p469
sg3
(I0
I0
I0
tp470
sg5
S'Old Scroll'
p471
sg16
S'OldScroll.jpg'
p472
sg18
g37
sg19
g20
sg21
g84
sbsS'pid control system'
p473
(iGameClasses
Equipment
p474
(dp475
g12
S'A PID control system. Kp = 69, my dude.'
p476
sg3
(I45
I0
I10
tp477
sg5
S'PID control system'
p478
sg16
S'PID.jpg'
p479
sg18
g23
sg19
g20
sg21
g84
sbsS'voltage divider'
p480
(iGameClasses
Equipment
p481
(dp482
g12
S'It is a Voltage Divider!'
p483
sg3
(I20
I25
I20
tp484
sg5
S'Voltage Divider'
p485
sg16
S'VDivider.jpg'
p486
sg18
g37
sg19
g20
sg21
(I2
I5
I1
tp487
sbsS'santa hat'
p488
(iGameClasses
Equipment
p489
(dp490
g12
S'Happy Holidays!'
p491
sg3
(I0
I3
I2
tp492
sg5
S'Santa Hat'
p493
sg16
S'SantaHat.jpg'
p494
sg18
g23
sg19
g20
sg21
g390
sbsS'banana wires'
p495
(iGameClasses
Equipment
p496
(dp497
g12
S'Alligator clips added for extra whippage.'
p498
sg3
(I8
I0
I8
tp499
sg5
S'Banana Wires'
p500
sg16
S'BanWires.jpg'
p501
sg18
g38
sg19
I3
sg21
(NNNtp502
sbsS'party hat'
p503
(iGameClasses
Equipment
p504
(dp505
g12
S'A nice hat from a cracker.'
p506
sg3
(I0
I5
I3
tp507
sg5
S'Party Hat'
p508
sg16
S'PartyHat.jpg'
p509
sg18
g23
sg19
g20
sg21
(I3
I6
I1
tp510
sbsS'potato'
p511
(iGameClasses
Equipment
p512
(dp513
g12
S'A most versatile vegetable.\nGood for breakfast, lunch, and dinner.'
p514
sg3
(I1
I1
I1
tp515
sg5
S'Potato'
p516
sg16
S'Potato.jpg'
p517
sg18
g37
sg19
I5
sg21
g84
sbsS'shampoo'
p518
(iGameClasses
Equipment
p519
(dp520
g12
S'Yeah, I could use a shower...'
p521
sg3
(I4
I0
I3
tp522
sg5
S'Shampoo'
p523
sg16
S'Shampoo.jpg'
p524
sg18
g37
sg19
g20
sg21
g390
sbsS'candlestick'
p525
(iGameClasses
Equipment
p526
(dp527
g12
S'Lumiere is up to no good.'
p528
sg3
(I7
I0
I5
tp529
sg5
S'Candlestick'
p530
sg16
S'Candlestick.jpg'
p531
sg18
g38
sg19
g20
sg21
(I4
I0
I0
tp532
sbsS'gamma glove'
p533
g39
sS'clean needle'
p534
(iGameClasses
Equipment
p535
(dp536
g12
S"No more spreadin' disease!"
p537
sg3
(I9
I0
I9
tp538
sg5
S'Clean Needle'
p539
sg16
S'CleanNeedle.jpg'
p540
sg18
g38
sg19
g20
sg21
g84
sbsS'laser safety glasses'
p541
(iGameClasses
Equipment
p542
(dp543
g12
S'Protection from the UV, my dude.'
p544
sg3
(I0
I3
I5
tp545
sg5
S'Laser Safety Glasses'
p546
sg16
S'LSGlasses.jpg'
p547
sg18
g23
sg19
g20
sg21
(I1
I6
I0
tp548
sbsS'goggles'
p549
(iGameClasses
Equipment
p550
(dp551
g12
S'Got PPE?'
p552
sg3
(I2
I0
I2
tp553
sg5
S'Goggles'
p554
sg16
S'Goggles.jpg'
p555
sg18
g23
sg19
g20
sg21
(I3
I2
I1
tp556
sbsS'priceless painting'
p557
(iGameClasses
Equipment
p558
(dp559
g12
S'This painting is supposed to be worth millions...'
p560
sg3
(I1
I10
I5
tp561
sg5
S'Priceless Painting'
p562
sg16
S'Painting.jpg'
p563
sg18
g37
sg19
g20
sg21
(I3
I0
I1
tp564
sbsS'paint brush'
p565
(iGameClasses
Equipment
p566
(dp567
g12
S'You can feel the emotions of a failed arts student coursing through this thing.'
p568
sg3
(I5
I0
I5
tp569
sg5
S'Paint Brush'
p570
sg16
S'Brush.jpg'
p571
sg18
g37
sg19
g20
sg21
(I3
I1
I1
tp572
sbsS'old candle'
p573
(iGameClasses
Equipment
p574
(dp575
g12
S"Seems like it's had some use."
p576
sg3
(I0
I2
I2
tp577
sg5
S'Old Candle'
p578
sg16
S'OldCandle.jpg'
p579
sg18
g37
sg19
g20
sg21
(I2
I0
I0
tp580
sbsS"haugen's clothes"
p581
(iGameClasses
Equipment
p582
(dp583
g12
S'OH My. The clothes of the gentle dolphin now gone.\nFeels kinda wet.'
p584
sg3
(I5
I10
I10
tp585
sg5
S"Haugen's Clothes"
p586
sg16
S'HaugenShirt.jpg'
p587
sg18
g9
sg19
I10
sg21
g548
sbsS'3w textbook'
p588
(iGameClasses
Equipment
p589
(dp590
g12
S'Text book that probably has useful information if you could read it. Too bad it has never been in the QT'
p591
sg3
(I5
I5
I10
tp592
sg5
S'3W Textbook'
p593
sg16
S'3WText.jpg'
p594
sg18
g37
sg19
g20
sg21
g217
sbsS'fireball hat'
p595
(iGameClasses
Equipment
p596
(dp597
g12
S"Kind of like the hat you bought in first year and thought you'd wear forever..."
p598
sg3
(I0
I3
I1
tp599
sg5
S'Fireball Hat'
p600
sg16
S'EngHat.jpg'
p601
sg18
g23
sg19
g20
sg21
(I2
I2
I1
tp602
sbsS'raybans'
p603
(iGameClasses
Equipment
p604
(dp605
g12
S'GQ Teen says Raybans, Board Shorts, Vans, and a Muscle Tee.'
p606
sg3
(I0
I1
I3
tp607
sg5
S'Raybans'
p608
sg16
S'Raybans.jpg'
p609
sg18
g23
sg19
g20
sg21
(I5
I5
I1
tp610
sbsS'pee bottle'
p611
(iGameClasses
Equipment
p612
(dp613
g12
S'It is literally a bottle of urine.'
p614
sg3
(I4
I0
I0
tp615
sg5
S'Pee Bottle'
p616
sg16
S'PeeBottle.jpg'
p617
sg18
g38
sg19
g20
sg21
g307
sbsS'huge shirt'
p618
(iGameClasses
Equipment
p619
(dp620
g12
S'This shirt is WAY too big'
p621
sg3
(I0
I5
I5
tp622
sg5
S'Huge Shirt'
p623
sg16
S'HugeShirt.jpg'
p624
sg18
g9
sg19
g20
sg21
g84
sbsS'joint of destiny'
p625
(iGameClasses
Equipment
p626
(dp627
g12
S"A tighly rolled spliff filled with Devil's lettuce... for real."
p628
sg3
(I420
I420
I420
tp629
sg5
S'Joint of Destiny'
p630
sg16
S'Joint.jpg'
p631
sg18
g37
sg19
g20
sg21
g84
sbsS'tony hawk shirt'
p632
(iGameClasses
Equipment
p633
(dp634
g12
S'A shirt personally made by tony hawk!'
p635
sg3
(I5
I5
I5
tp636
sg5
S'Tony Hawk Shirt'
p637
sg16
S'TonyHAwkShirt.jpg'
p638
sg18
g9
sg19
g20
sg21
g123
sbsS"phil's braces"
p639
(iGameClasses
Equipment
p640
(dp641
g12
S'Bark AND the bite.'
p642
sg3
(I3
I2
I1
tp643
sg5
S"Phil's Braces"
p644
sg16
S'PhilBraces.jpg'
p645
sg18
g23
sg19
g20
sg21
(I2
I5
I0
tp646
sbsS"kenrick's oscilloscope"
p647
(iGameClasses
Equipment
p648
(dp649
g12
S'The window into the electronics world...'
p650
sg3
(I0
I150
I50
tp651
sg5
S"Kenrick's Oscilloscope"
p652
sg16
S'Oscilloscope.jpg'
p653
sg18
g37
sg19
g20
sg21
g217
sbsS'femtosecond laser'
p654
(iGameClasses
Equipment
p655
(dp656
g12
S"Haugen's personal femtosecond laser."
p657
sg3
(I125
I0
I999
tp658
sg5
S'Femtosecond Laser'
p659
sg16
S'Laser.jpg'
p660
sg18
g38
sg19
g20
sg21
g405
sbsS'cricket'
p661
(iGameClasses
Equipment
p662
(dp663
g12
S'Makes the sound commonly heard at 2W lectures.'
p664
sg3
(I1
I1
I1
tp665
sg5
S'Cricket'
p666
sg16
S'Cricket.jpg'
p667
sg18
g37
sg19
I3
sg21
(I3
I3
I2
tp668
sbsS'flux capacitor'
p669
(iGameClasses
Equipment
p670
(dp671
g12
S'If only I could go back to 1985...'
p672
sg3
(I1
I1
I1
tp673
sg5
S'Flux Capacitor'
p674
sg16
S'FluxCapacitor.jpg'
p675
sg18
g38
sg19
g20
sg21
g405
sbsS'okons chainmail'
p676
(iGameClasses
Equipment
p677
(dp678
g12
S'The sacred chainmail forged by the legend himself'
p679
sg3
(I25
I50
I25
tp680
sg5
S'Okons Chainmail'
p681
sg16
S'OkonMail.jpg'
p682
sg18
g9
sg19
g20
sg21
(I0
I2
I0
tp683
sbsS'hazmat suit'
p684
(iGameClasses
Equipment
p685
(dp686
g12
S'Protection from all sorts of McCrindle farts...'
p687
sg3
(I0
I10
I5
tp688
sg5
S'Hazmat Suit'
p689
sg16
S'Hazmat.jpg'
p690
sg18
g9
sg19
g20
sg21
g487
sbsS'pizza box'
p691
(iGameClasses
Equipment
p692
(dp693
g12
S'Fully equipped with crusted cheese.'
p694
sg3
(I1
I5
I1
tp695
sg5
S'Pizza Box'
p696
sg16
S'PizzaBox.jpg'
p697
sg18
g9
sg19
g20
sg21
(I0
I3
I1
tp698
sbsS'tire iron'
p699
(iGameClasses
Equipment
p700
(dp701
g12
S'Is this even a real tool? Or just a murder weapon...'
p702
sg3
(I11
I0
I3
tp703
sg5
S'Tire Iron'
p704
sg16
S'TireIron.jpg'
p705
sg18
g38
sg19
g20
sg21
g76
sbsS'ukelele'
p706
(iGameClasses
Equipment
p707
(dp708
g12
S'Wasting away again in Margaritaville...'
p709
sg3
(I6
I0
I5
tp710
sg5
S'Ukelele'
p711
sg16
S'Ukelele.jpg'
p712
sg18
g38
sg19
g20
sg21
g107
sbsS'fanny pack'
p713
(iGameClasses
Equipment
p714
(dp715
g12
S'Made for style. Not for carrying.'
p716
sg3
(I3
I8
I15
tp717
sg5
S'Fanny Pack'
p718
sg16
S'FannyPack.jpg'
p719
sg18
g9
sg19
g20
sg21
g84
sbsS"einstein's brain"
p720
(iGameClasses
Equipment
p721
(dp722
g12
S"Feel's kind of weird walking around with this..."
p723
sg3
(I1
I1
I1
tp724
sg5
S"Einstein's Brain"
p725
sg16
S'Brain.jpg'
p726
sg18
g37
sg19
I10
sg21
g217
sbsS"brendan fallon's lunchbox"
p727
(iGameClasses
Equipment
p728
(dp729
g12
S'The Lunch Box of an Ancient Hero. Full of samosas'
p730
sg3
(I5
I10
I5
tp731
sg5
S"Brendan Fallon's Lunchbox"
p732
sg16
S'Lunchbox.jpg'
p733
sg18
g37
sg19
g20
sg21
(I3
I3
I0
tp734
sbsS'eng phys usb pen'
p735
(iGameClasses
Equipment
p736
(dp737
g12
S'It would be amazing if this thing actually worked.\nIf I had a laptop I could plug it in and find all of 2P04.'
p738
sg3
(I5
I0
I5
tp739
sg5
S'Eng Phys USB Pen'
p740
sg16
S'PhysPen.jpg'
p741
sg18
g38
sg19
g20
sg21
(I1
I6
I2
tp742
sbsS'ambifacient lunar waneshaft'
p743
(iGameClasses
Equipment
p744
(dp745
g12
S'The design consists simply of six hydrocoptic marzlevanes,\nthey fit to the ambifacient lunar waneshaft so that side fumbling is effectively prevented'
p746
sg3
(I1
I1
I1
tp747
sg5
S'Ambifacient Lunar Waneshaft'
p748
sg16
S'Dumbness.jpg'
p749
sg18
g37
sg19
g20
sg21
g217
sbsS'space pop'
p750
(iGameClasses
Equipment
p751
(dp752
g12
S'Get ready to go to space pop city.'
p753
sg3
(I4
I0
I10
tp754
sg5
S'Space Pop'
p755
sg16
S'SpacePop.jgp'
p756
sg18
g38
sg19
I1
sg21
(I1
I7
I2
tp757
sbsS'hockey pads'
p758
(iGameClasses
Equipment
p759
(dp760
g12
S"IM NOT WEARIN' HOCKEY PADS!"
p761
sg3
(I3
I13
I5
tp762
sg5
S'Hockey Pads'
p763
sg16
S'HockeyPads.jpg'
p764
sg18
g9
sg19
g20
sg21
g76
sbsS'pink donut'
p765
(iGameClasses
Equipment
p766
(dp767
g12
S'This is what fusion is all about?'
p768
sg3
(I1
I1
I1
tp769
sg5
S'Pink Donut'
p770
sg16
S'PinkDonut.jpg'
p771
sg18
g37
sg19
I2
sg21
g217
sbsS'relativistic key'
p772
(iGameClasses
Equipment
p773
(dp774
g12
S'You can feel the power radiating from this thing.'
p775
sg3
(I1
I1
I1
tp776
sg5
S'Relativistic Key'
p777
sg16
S'Relativistickey.jpg'
p778
sg18
g38
sg19
g20
sg21
g405
sbsS'stylish watch'
p779
(iGameClasses
Equipment
p780
(dp781
g12
S'If only you learned how to tell time on an analog clock...'
p782
sg3
(I0
I15
I20
tp783
sg5
S'Stylish Watch'
p784
sg16
S'watch.jpg'
p785
sg18
g37
sg19
g20
sg21
g84
sbsS'solar ray'
p786
(iGameClasses
Equipment
p787
(dp788
g12
S'The literal power of the Sun!'
p789
sg3
(I100
I20
I50
tp790
sg5
S'Solar Ray'
p791
sg16
S'SolarRay.jpg'
p792
sg18
g38
sg19
g20
sg21
(I1
I5
I2
tp793
sbsS'starbucks apron'
p794
(iGameClasses
Equipment
p795
(dp796
g12
S'If you put this on do you immediately know how to make a frappe?'
p797
sg3
(I1
I5
I5
tp798
sg5
S'Starbucks Apron'
p799
sg16
S'Apron.jpg'
p800
sg18
g9
sg19
g20
sg21
g162
sbsS'maroon jumpsuit'
p801
(iGameClasses
Equipment
p802
(dp803
g12
S'Overalls of the Maroons'
p804
sg3
(I1
I8
I5
tp805
sg5
S'Maroon Jumpsuit'
p806
sg16
S'MaroonSuit.jpg'
p807
sg18
g9
sg19
g20
sg21
(I5
I1
I1
tp808
sbsS'needa pita'
p809
(iGameClasses
Equipment
p810
(dp811
g12
S'Better have gotten black olives on that'
p812
sg3
(I2
I0
I1
tp813
sg5
S'Needa Pita'
p814
sg16
S'Pita.jpg'
p815
sg18
g38
sg19
I5
sg21
(I4
I6
I1
tp816
sbsS'lamp'
p817
(iGameClasses
Equipment
p818
(dp819
g12
S'I love lamp.'
p820
sg3
(I8
I0
I4
tp821
sg5
S'Lamp'
p822
sg16
S'Lamp.jpg'
p823
sg18
g38
sg19
g20
sg21
(I0
I5
I1
tp824
sbsS'redsuit'
p825
(iGameClasses
Equipment
p826
(dp827
g12
S'Overalls of drunks... I mean engineers'
p828
sg3
(I5
I5
I5
tp829
sg5
S'Redsuit'
p830
sg16
S'Redsuit.jpg'
p831
sg18
g9
sg19
g20
sg21
(I2
I4
I2
tp832
sbsS'cold beer'
p833
(iGameClasses
Equipment
p834
(dp835
g12
S'A freshly brewed pint from Andy Knights himself.'
p836
sg3
(I15
I0
I20
tp837
sg5
S'Cold Beer'
p838
sg16
S'ColdBeer.jpg'
p839
sg18
g37
sg19
I2
sg21
(I5
I4
I1
tp840
sbsS'eng phys shirt'
p841
(iGameClasses
Equipment
p842
(dp843
g12
S'Rolling Rock baby! Premium Stream my ass... More like premium pain...'
p844
sg3
(I0
I7
I5
tp845
sg5
S'Eng Phys Shirt'
p846
sg16
S'EngPhysShirt.jpg'
p847
sg18
g9
sg19
g20
sg21
g734
sbsS'pvc pipe'
p848
(iGameClasses
Equipment
p849
(dp850
g12
S'Probably part of a PID project...'
p851
sg3
(I9
I2
I10
tp852
sg5
S'PVC Pipe'
p853
sg16
S'PVCPipe.jpg'
p854
sg18
g38
sg19
g20
sg21
(I4
I7
I1
tp855
sbsS'couch cushion'
p856
(iGameClasses
Equipment
p857
(dp858
g12
S'I hope I find I pillow fight.'
p859
sg3
(I4
I10
I1
tp860
sg5
S'Couch Cushion'
p861
sg16
S'CCushion.jpg'
p862
sg18
g37
sg19
g20
sg21
g346
sbsS'fake gun'
p863
(iGameClasses
Equipment
p864
(dp865
g12
S'Is this seriously what at the MAC cops carry...'
p866
sg3
(I5
I0
I5
tp867
sg5
S'Fake Gun'
p868
sg16
S'FakeGun.jpg'
p869
sg18
g38
sg19
g20
sg21
g84
sbsS'iron ring'
p870
(iGameClasses
Equipment
p871
(dp872
g12
S'The One Ring to Rule them ALL.'
p873
sg3
(I1000
I1000
I1000
tp874
sg5
S'Iron Ring'
p875
sg16
S'IronRing.jpg'
p876
sg18
g38
sg19
I-1000
sg21
g84
sbsS"minnick's glasses"
p877
(iGameClasses
Equipment
p878
(dp879
g12
S'The spectacles of a wizard from the High Order of the Ancient Council.'
p880
sg3
(I100
I100
I100
tp881
sg5
S"Minnick's Glasses"
p882
sg16
S'MinnickGlasses.jpg'
p883
sg18
g23
sg19
g20
sg21
g405
sbsS'frisbee'
p884
(iGameClasses
Equipment
p885
(dp886
g12
S'Look at the flick of the wrist!'
p887
sg3
(I3
I0
I5
tp888
sg5
S'Frisbee'
p889
sg16
S'Frisbee.jpg'
p890
sg18
g38
sg19
g20
sg21
g602
sbsS'butter knife'
p891
(iGameClasses
Equipment
p892
(dp893
g12
S'Meant for spreading, not stabbing...'
p894
sg3
(I4
I0
I5
tp895
sg5
S'Butter Knife'
p896
sg16
S'ButterKnife.jpg'
p897
sg18
g38
sg19
g20
sg21
g816
sbsS'guitar'
p898
(iGameClasses
Equipment
p899
(dp900
g12
S'Monster Mash.'
p901
sg3
(I10
I3
I5
tp902
sg5
S'Guitar'
p903
sg16
S'Guitar.jpg'
p904
sg18
g38
sg19
g20
sg21
g84
sbsS'old headphones'
p905
(iGameClasses
Equipment
p906
(dp907
g12
S'Old frayed apple headphones. Good for whipping.'
p908
sg3
(I5
I0
I5
tp909
sg5
S'Old Headphones'
p910
sg16
S'OldHeadphones.jpg'
p911
sg18
g38
sg19
g20
sg21
(I1
I5
I1
tp912
sbsS'old car keys'
p913
(iGameClasses
Equipment
p914
(dp915
g12
S'Fun for babies. Not for Batman.'
p916
sg3
(I7
I0
I15
tp917
sg5
S'Old Car Keys'
p918
sg16
g268
sg18
g38
sg19
g20
sg21
g458
sbsS'hulk hands'
p919
(iGameClasses
Equipment
p920
(dp921
g12
S'These pack a serious punch...'
p922
sg3
(I15
I5
I20
tp923
sg5
S'Hulk Hands'
p924
sg16
S'HulkHands.jpg'
p925
sg18
g38
sg19
g20
sg21
g548
sbsS'old ladder'
p926
(iGameClasses
Equipment
p927
(dp928
g12
S'Pretty rickety but would work for climbing.'
p929
sg3
(I14
I8
I-15
tp930
sg5
S'Old Ladder'
p931
sg16
S'OldLadder.jpg'
p932
sg18
g37
sg19
g20
sg21
(I0
I7
I1
tp933
sbsS'goldfish'
p934
(iGameClasses
Equipment
p935
(dp936
g12
S'Fun fact, not made of real gold.'
p937
sg3
(I1
I1
I1
tp938
sg5
S'Goldfish'
p939
sg16
S'Goldfish.jpg'
p940
sg18
g37
sg19
I4
sg21
g202
sbsS"frank's red hot"
p941
(iGameClasses
Equipment
p942
(dp943
g12
S'I put that...'
p944
sg3
(I3
I0
I2
tp945
sg5
S"Frank's Red Hot"
p946
sg16
S'FranksRed.jpg'
p947
sg18
g37
sg19
I1
sg21
(I0
I4
I1
tp948
sbsS'silicon substrate'
p949
(iGameClasses
Equipment
p950
(dp951
g12
S'A bulk silicon wafer.'
p952
sg3
(I1
I1
I1
tp953
sg5
S'Silicon Substrate'
p954
sg16
S'Substrate.jpg'
p955
sg18
g37
sg19
g20
sg21
g217
sbsS"faraday's cage"
p956
(iGameClasses
Equipment
p957
(dp958
g12
S'Faraday cage.'
p959
sg3
(I20
I75
I15
tp960
sg5
S"Faraday's Cage"
p961
sg16
S'Faraday.jpg'
p962
sg18
g23
sg19
g20
sg21
g217
sbsS'rusty key'
p963
(iGameClasses
Equipment
p964
(dp965
g12
S"You can just about read:\n'By the building where the smallest are seen.'\n'This key will provide for those who are keen'"
p966
sg3
(I1
I1
I1
tp967
sg5
S'Rusty Key'
p968
sg16
S'RustyKey.jpg'
p969
sg18
g37
sg19
g20
sg21
g405
sbsS'wood shield'
p970
(iGameClasses
Equipment
p971
(dp972
g12
S'An old wooden shield used in a play, you think...'
p973
sg3
(I5
I20
I-5
tp974
sg5
S'Wood Shield'
p975
sg16
S'Shield.jpg'
p976
sg18
g37
sg19
g20
sg21
g450
sbsS'paper towels'
p977
(iGameClasses
Equipment
p978
(dp979
g12
S"WHERE'S THE PAPER TOWELS?"
p980
sg3
(I2
I0
I1
tp981
sg5
S'Paper Towels'
p982
sg16
S'PaperTowels.jpg'
p983
sg18
g37
sg19
g20
sg21
(I0
I5
I2
tp984
sbsS'engineering mug'
p985
(iGameClasses
Equipment
p986
(dp987
g12
S'Do people even have these anymore?'
p988
sg3
(I1
I0
I2
tp989
sg5
S'Engineering Mug'
p990
sg16
S'EngMug.jpg'
p991
sg18
g38
sg19
g20
sg21
g84
sbsS'blazer'
p992
(iGameClasses
Equipment
p993
(dp994
g12
S'Styyyyyylishhhhhh'
p995
sg3
(I0
I4
I1
tp996
sg5
S'Blazer'
p997
sg16
S'Blazer.jpg'
p998
sg18
g9
sg19
g20
sg21
(I5
I6
I1
tp999
sbsS'high vis vest'
p1000
(iGameClasses
Equipment
p1001
(dp1002
g12
S'Safety first, folks.'
p1003
sg3
(I0
I5
I3
tp1004
sg5
S'High Vis Vest'
p1005
sg16
S'HighVis.jpg'
p1006
sg18
g9
sg19
g20
sg21
(I2
I6
I1
tp1007
sbsS'big hits shirt'
p1008
g10
sS'jar of mayo'
p1009
(iGameClasses
Equipment
p1010
(dp1011
g12
S'Is mayonaise an instrument?'
p1012
sg3
(I3
I0
I5
tp1013
sg5
S'Jar of Mayo'
p1014
sg16
S'Mayo.jpg'
p1015
sg18
g37
sg19
I1
sg21
g170
sbsS'holy bible'
p1016
(iGameClasses
Equipment
p1017
(dp1018
g12
S'King James version...'
p1019
sg3
(I3
I0
I3
tp1020
sg5
S'Holy Bible'
p1021
sg16
S'Bible.jpg'
p1022
sg18
g37
sg19
g20
sg21
(I2
I0
I1
tp1023
sbsS'griffiths electrodynamics'
p1024
(iGameClasses
Equipment
p1025
(dp1026
g12
S'The holy scriptures which govern the fabric of our being'
p1027
sg3
(I0
I10
I5
tp1028
sg5
S'Griffiths Electrodynamics'
p1029
sg16
S'Griffiths.jpg'
p1030
sg18
g37
sg19
g20
sg21
g832
sbsS'skateboard'
p1031
(iGameClasses
Equipment
p1032
(dp1033
g12
S'Cowabunga, dude.'
p1034
sg3
(I9
I0
I10
tp1035
sg5
S'Skateboard'
p1036
sg16
S'Skateboard.jpg'
p1037
sg18
g38
sg19
g20
sg21
(I0
I0
I0
tp1038
sbsS'diary of the fallen'
p1039
(iGameClasses
Equipment
p1040
(dp1041
g12
S'The personal notes of an ancient Hero.'
p1042
sg3
(I25
I20
I30
tp1043
sg5
S'Diary of the Fallen'
p1044
sg16
S'Diary.jpg'
p1045
sg18
g37
sg19
g20
sg21
g683
sbsS'green lantern shirt'
p1046
(iGameClasses
Equipment
p1047
(dp1048
g12
S'Darkest day... Darkest night...'
p1049
sg3
(I15
I15
I10
tp1050
sg5
S'Green Lantern Shirt'
p1051
sg16
S'GLShirt.jpg'
p1052
sg18
g9
sg19
g20
sg21
g832
sbsS'dirty needle'
p1053
(iGameClasses
Equipment
p1054
(dp1055
g12
S"This isn't clean. Someone find me a SharpXchange!"
p1056
sg3
(I7
I0
I5
tp1057
sg5
S'Dirty Needle'
p1058
sg16
S'Needle.jpg'
p1059
sg18
g38
sg19
g20
sg21
g948
sbsS'willy dog'
p1060
(iGameClasses
Equipment
p1061
(dp1062
g12
S'Definitely not vegan'
p1063
sg3
(I1
I0
I2
tp1064
sg5
S'Willy Dog'
p1065
sg16
S'Hotdog.jpg'
p1066
sg18
g38
sg19
I5
sg21
g186
sbsS'crucifix'
p1067
(iGameClasses
Equipment
p1068
(dp1069
g12
S'The Power of Chirst compels you!'
p1070
sg3
(I10
I0
I10
tp1071
sg5
S'Crucifix'
p1072
sg16
S'Crucifix.jpg'
p1073
sg18
g38
sg19
g20
sg21
g84
sbsS'wrench'
p1074
(iGameClasses
Equipment
p1075
(dp1076
g12
S"It's a wrench. 22mm."
p1077
sg3
(I9
I0
I2
tp1078
sg5
S'Wrench'
p1079
sg16
S'Wrench.jpg'
p1080
sg18
g38
sg19
g20
sg21
(I1
I3
I1
tp1081
sbsS'capstone tools'
p1082
(iGameClasses
Equipment
p1083
(dp1084
g12
S"Shouldn't the 4A06 students be using these?"
p1085
sg3
(I1
I1
I1
tp1086
sg5
S'Capstone Tools'
p1087
sg16
S'CapTools.jpg'
p1088
sg18
g37
sg19
g20
sg21
g217
sbsS'wool sweater'
p1089
(iGameClasses
Equipment
p1090
(dp1091
g12
S'Just like grandma makes.'
p1092
sg3
(I1
I4
I6
tp1093
sg5
S'Wool Sweater'
p1094
sg16
S'WoolSweater.jpg'
p1095
sg18
g9
sg19
g20
sg21
g291
sbsS'solar cell'
p1096
(iGameClasses
Equipment
p1097
(dp1098
g12
S"Harness the power of the Sun!\nI really hope I don't drop this..."
p1099
sg3
(I1
I1
I1
tp1100
sg5
S'Solar Cell'
p1101
sg16
S'SolarCell.jpg'
p1102
sg18
g37
sg19
g20
sg21
g217
sbsa((lp1103
(lp1104
(iGameClasses
Map
p1105
(dp1106
g12
S'PARKING GARAGE:\nYou can only go back up to the Hospital.'
p1107
sS'ENEMY'
p1108
(lp1109
(iGameClasses
Enemy
p1110
(dp1111
g12
S"'Check out this tre flip, pretty tight eh?'"
p1112
sg3
(I15
I15
I40
tp1113
sg5
S'Erik the Sk8r'
p1114
sS'drop'
p1115
S"erik's frosted tips"
p1116
sg64
I01
sS'item'
p1117
NsS'quest'
p1118
I00
sg19
I20
sg21
g1038
sS'need'
p1119
Nsg67
I00
sS'Sinfo'
p1120
g20
sS'Dinfo'
p1121
S"Man, that's dumb!"
p1122
sbasg5
S'Parking Garage'
p1123
sS'items'
p1124
(lp1125
g1032
asS'interact'
p1126
(lp1127
sS'walls'
p1128
(S'f'
p1129
S'b'
p1130
S'l'
p1131
S'r'
p1132
S'd'
p1133
tp1134
sS'coords'
p1135
g1038
sS'lore'
p1136
S'The smooth floor down here makes an excellent skate surface.\nRad.\nIf only you learned how to kickflip.'
p1137
sS'travelled'
p1138
I1
sba(iGameClasses
Map
p1139
(dp1140
g12
S'HOSPITAL EAST WING:\nIn front of you is the West Wing. MDCL is to your right.\nThe Parking Garage is below you.'
p1141
sg1108
(lp1142
sg5
S'East Hospital'
p1143
sg1124
(lp1144
g489
ag384
ag519
asg1126
(lp1145
sg1128
(g1131
g1130
tp1146
sg1135
g390
sg1136
S'You smile as you overhear a conversation between a doctor and a family.\nTurns out their child is going to make a full recovery.\nThanks science.'
p1147
sg1138
I1
sbaNaNaa(lp1148
Na(iGameClasses
Map
p1149
(dp1150
g12
S'HOSPITAL WEST WING:\nIn front of your is T-13. To your right is the Health Sci Library.\nThe East Wing of the Hospital is behind you.\nYou can go upstairs.'
p1151
sg1108
(lp1152
sg5
S'West Hospital'
p1153
sg1124
(lp1154
g125
a(iGameClasses
Interact
p1155
(dp1156
g12
S'Would you like to exchange a needle?'
p1157
sg5
S'SharpXChange'
p1158
sg1115
S'clean needle'
p1159
sg1118
I00
sg21
g131
sg1119
S'dirty needle'
p1160
sg1120
S'Needle Accepted!'
p1161
sbasg1126
(lp1162
sg1128
g1131
sg1135
g131
sg1136
S"Doctors and Nurses rush around you.\nYou remember why you didn't want to become a doctor as you\nnearly faint looking at a patient's paper cut in the waiting room.\nAfter a drink from the water fountain you plan what to do."
p1163
sg1138
I0
sba(iGameClasses
Map
p1164
(dp1165
g12
S'2ND FLOOR W WING:\nYou can only go back down the stairs.'
p1166
sg1108
(lp1167
(iGameClasses
Enemy
p1168
(dp1169
g12
S"'Are you interested in a research position?'"
p1170
sg3
(I100
I100
I100
tp1171
sg5
S'Dr. Soleymani'
p1172
sg1115
S"einstein's brain"
p1173
sg64
I00
sg1117
Nsg1118
I00
sg19
I0
sg21
(I0
I1
I2
tp1174
sg1119
Nsg67
I00
sg1120
g20
sg1121
S'NOOO! The Dark Lord will never forgive me!'
p1175
sbasg5
S'2nd Floor W Wing'
p1176
sg1124
(lp1177
sg1126
(lp1178
sg1128
(g1129
g1130
g1131
g1132
S'u'
p1179
tp1180
sg1135
g1174
sg1136
S"The endless number of rooms are mesmerizing.\nYou don't even know which way to go.\nAfter being lost for 2 hours you circle back to where you entered."
p1181
sg1138
I0
sbaNaa(lp1182
(iGameClasses
Map
p1183
(dp1184
g12
S'SECRET ROOM!:\nGo up to climb out.'
p1185
sg1108
(lp1186
sg5
S'Secret Trapdoor!'
p1187
sg1124
(lp1188
g677
ag1040
asg1126
(lp1189
sg1128
(g1129
g1130
g1131
g1132
g1133
tp1190
sg1135
g683
sg1136
S'You uncover a trapdoor after pulling up a loose floor tile.\nUpon descending you see stacks of failed midterms and assorted books all around you.\nA suit of armor and a chainmail flag with a skull on it are barely visible.\nWho made this place anyway?'
p1191
sg1138
I1
sba(iGameClasses
Map
p1192
(dp1193
g12
S'T-13:\nETB is in front of you. The McMaster Map is to your right.\nThe West Wing of the Hospital is behind you.'
p1194
sg1108
(lp1195
sg5
S'T-13'
p1196
sg1124
(lp1197
g1010
ag164
asg1126
(lp1198
sg1128
(lp1199
g1131
ag1133
asg1135
g170
sg1136
S"How many bad invigilators does it take to screw in a light bulb?\nI'm not sure but they took my damn Casio FX-911+C..."
p1200
sg1138
I0
sbaNaNaa(lp1201
(iGameClasses
Map
p1202
(dp1203
g12
S'ETB BASEMENT:\nYou can only go back up to the main floor.'
p1204
sg1108
(lp1205
sg5
S'ETB Basement'
p1206
sg1124
(lp1207
g920
asg1126
(lp1208
sg1128
(g1129
g1130
g1131
g1132
g1133
tp1209
sg1135
(I0
I3
I0
tp1210
sg1136
S'After getting lost in a maze of corridors and locked rooms you stumble\nacross a door that is slightly ajar.\nYou open the door to reveal a rather small dark room.\nYou flick on the light switch.'
p1211
sg1138
I1
sba(iGameClasses
Map
p1212
(dp1213
g12
S'ETB:\nTo your right is the Hatch Building. An alleyway is in front of you.\nT-13 is behind you. You can also go upstairs.'
p1214
sg1108
(lp1215
(iGameClasses
Enemy
p1216
(dp1217
g12
S"'Hey, I saw your picture on Instagram!'\n'They let you get away with doing that to the Willy McMaster statue?'"
p1218
sg3
(I10
I5
I10
tp1219
sg5
S'Mitch the TA'
p1220
sg1115
S'phone'
p1221
sg64
I01
sg1117
Nsg1118
I00
sg19
I25
sg21
g698
sg1119
Nsg67
I00
sg1120
g20
sg1121
S"There's my phone."
p1222
sbasg5
S'ETB'
p1223
sg1124
(lp1224
g692
asg1126
(lp1225
sg1128
g1131
sg1135
g698
sg1136
S'The memories of actually doing something in first year flood your mind.\nGear trains. Python. 3D printing.\nEngineering had such a different meaning in your first year...\nYou plan your next move.'
p1226
sg1138
I0
sba(iGameClasses
Map
p1227
(dp1228
g12
S'2ND FLOOR ETB:\nYou can only go back down the stairs.'
p1229
sg1108
(lp1230
sg5
S'2nd Floor ETB'
p1231
sg1124
(lp1232
g109
asg1126
(lp1233
sg1128
(g1129
g1130
g1131
g1132
g1179
tp1234
sg1135
g115
sg1136
S'You realize you really have never come up here.\nYou see 4th year Eng Phys students hurry out of a long-winded lecture.\nAfter picking a booger.\nYou plan your next move.'
p1235
sg1138
I0
sbaNaa(lp1236
Na(iGameClasses
Map
p1237
(dp1238
g12
S'ALLEY:\nITB is in front of you. ETB is behind you.\nYou can enter Hatch to your right.'
p1239
sg1108
(lp1240
sg5
S'Alley'
p1241
sg1124
(lp1242
g1054
ag942
asg1126
(lp1243
sg1128
g1131
sg1135
g948
sg1136
S'As you head down the narrow path between ITB and ETB you hear car horns blaring down Main Street.\nYou gather up some trash and put it in a garbage can like a good McMasterian.\nThen plan your next move.'
p1244
sg1138
I0
sbaNaNaa(lp1245
(iGameClasses
Map
p1246
(dp1247
g12
S'ITB BASEMENT:\nYou can only go back up to the main floor.'
p1248
sg1108
(lp1249
(iGameClasses
Enemy
p1250
(dp1251
g12
S"'Huge talking to people play.'"
p1252
sg3
(I20
I15
I20
tp1253
sg5
S'Eric the Baller'
p1254
sg1115
S'cold steel katana'
p1255
sg64
I01
sg1117
Nsg1118
I00
sg19
I50
sg21
(I0
I5
I0
tp1256
sg1119
Nsg67
I00
sg1120
g20
sg1121
S'This is sub-optimal.'
p1257
sbasg5
S'ITB Basement'
p1258
sg1124
(lp1259
sg1126
(lp1260
sg1128
(g1129
g1130
g1131
g1132
g1133
tp1261
sg1135
g1256
sg1136
S"As if the upstairs floor plan wasn't bad enough...\nAfter another 3 hours wandering around you are back where you started\nand don't feel like you learned anything..."
p1262
sg1138
I1
sba(iGameClasses
Map
p1263
(dp1264
g12
S'ITB:\nJHE-Annex is to your right. Lot I is in front of you.\nAn alley is behind you. You can go up OR down the stairs.'
p1265
sg1108
(lp1266
(iGameClasses
Enemy
p1267
(dp1268
g12
S"'Hey brother, I really could use some Febreze.'"
p1269
sg3
(I20
I20
I20
tp1270
sg5
S'Paul the Janitor'
p1271
sg1115
S'bleach squirt bottle'
p1272
sg64
I01
sg1117
Nsg1118
I00
sg19
I20
sg21
g824
sg1119
S'febreze'
p1273
sg67
I00
sg1120
S'Rock on brother! Thanks so much!'
p1274
sg1121
S"NOOO, Now I can't go see Black Sabbath!"
p1275
sbasg5
S'ITB'
p1276
sg1124
(lp1277
g818
asg1126
(lp1278
sg1128
g1131
sg1135
g824
sg1136
S'McMaster, back at it again with the horrible floor plan.\nAfter getting lost for 5 hours you finally reach the lobby\nand decide what to do.'
p1279
sg1138
I0
sba(iGameClasses
Map
p1280
(dp1281
g12
S'2ND FLOOR ITB:\nYou can only go back down the stairs.'
p1282
sg1108
(lp1283
(iGameClasses
Enemy
p1284
(dp1285
g12
S"'My grand invention is almost complete...'"
p1286
sg3
(I100
I100
I100
tp1287
sg5
S'Dr. Nagasaki'
p1288
sg1115
Nsg64
I01
sg1117
Nsg1118
I01
sg19
I75
sg21
g984
sg1119
S'ambifacient lunar waneshaft'
p1289
sg67
I01
sg1120
S"'Yes!'\n'I have been looking for one exactly like that!'\n'Quicky, go to the basement of the Tandem Accelerator!'\n'The High Council is counting on you.'"
p1290
sg1121
S'NOOOO! NOW I WILL NEVER PLEASE THE DARK LORD!'
p1291
sbasg5
S'2nd Floor ITB'
p1292
sg1124
(lp1293
g978
asg1126
(lp1294
sg1128
(g1129
g1130
g1131
g1132
g1179
tp1295
sg1135
g984
sg1136
S"Walking around up here you don't find much other than lab benches with strange instruments.\nThis place gives you the impression that there must be some high level engineering physics going on..."
p1296
sg1138
I0
sbaNaa(lp1297
Na(iGameClasses
Map
p1298
(dp1299
g12
S'LOT I:\nABB is to your right. Cootes Drive is in front of you.\nITB is to your rear.'
p1300
sg1108
(lp1301
sg5
S'Lot I'
p1302
sg1124
(lp1303
g452
ag914
a(iGameClasses
Interact
p1304
(dp1305
g12
S"A red Dodge Avenger...\nPeering into the window you can't really see much."
p1306
sg5
S'Red Car'
p1307
sg1115
Nsg1118
I00
sg21
g458
sg1119
Nsg1120
S'N/A'
p1308
sba(iGameClasses
Interact
p1309
(dp1310
g12
S"A blue Ford Mustang...\nPeering into the window you can't really see much."
p1311
sg5
S'Blue Car'
p1312
sg1115
S'potato'
p1313
sg1118
I00
sg21
g458
sg1119
S'tire iron'
p1314
sg1120
S'You smash open the window with the tire iron, breaking it in the process.\nYou unlock and open the door...\nTo reveal a potato.'
p1315
sba(iGameClasses
Interact
p1316
(dp1317
g12
S"An old Datsun...\nPeering into the window you can't really see much."
p1318
sg5
S'Old Car'
p1319
sg1115
Nsg1118
I00
sg21
g458
sg1119
Nsg1120
g1308
sba(iGameClasses
Interact
p1320
(dp1321
g12
S"A new Volkswagen...\nPeering into the window you can't really see much."
p1322
sg5
S'New Car'
p1323
sg1115
S'bowling ball'
p1324
sg1118
I00
sg21
g458
sg1119
S'car keys'
p1325
sg1120
S'You open the car and rummage around.\nUnderneath one of the seats you find a bowling ball!'
p1326
sbasg1126
(lp1327
sg1128
g1131
sg1135
g458
sg1136
S"Nope, your car isn't here.\nMaybe you parked in Lot M? Maybe not.\nAfter scoffing at all of the prof Mercedes that are way too nice...\nYou think of what to do."
p1328
sg1138
I1
sbaNaNaa(lp1329
Na(iGameClasses
Map
p1330
(dp1331
g12
S'COOTES DRIVE:\nThode is to your right. Lot I is behind you.'
p1332
sg1108
(lp1333
sg5
S'Cootes Dr.'
p1334
sg1124
(lp1335
g927
asg1126
(lp1336
sg1128
(g1129
g1131
tp1337
sg1135
g933
sg1136
S'You notice a series of pickup trucks for what must be a landscaping or construction company.\nThere is construction gear spread all over the place.\nThe sound of sirens grows louder as an ambulance suddenly rushes by.\nYou collect yourself and consider what to do next.'
p1338
sg1138
I1
sbaNaNaa(lp1339
NaNaNaNaa(lp1340
(lp1341
Na(iGameClasses
Map
p1342
(dp1343
g12
S'MDCL:\nThe East Wing of the Hospital is to your left. Health Sci library is forward.'
p1344
sg1108
(lp1345
sg5
S'MDCL'
p1346
sg1124
(lp1347
g219
asg1126
(lp1348
sg1128
(g1130
g1132
tp1349
sg1135
g225
sg1136
S'After a solid 5 minutes of meditation in the reflection area.\nYou make your next decision feeling refreshed.'
p1350
sg1138
I0
sba(iGameClasses
Map
p1351
(dp1352
g12
S'CLIMBING MDCL:\nYou can continue climbing or go back down...'
p1353
sg1108
(lp1354
sg5
S'Climbing MDCL'
p1355
sg1124
(lp1356
sg1126
(lp1357
sg1128
(g1129
g1130
g1131
g1132
tp1358
sg1135
(I1
I0
I2
tp1359
sg1136
S'You struggle and find yourself on the outer wall of MDCL.'
p1360
sg1138
I1
sba(iGameClasses
Map
p1361
(dp1362
g12
S'MDCL Roof:\nYou can only go back down.'
p1363
sg1108
(lp1364
sg5
S'Roof of MDCL'
p1365
sg1124
(lp1366
(iGameClasses
Interact
p1367
(dp1368
g12
S"It's a mouse scurrying around...\nDid it just stare at you?"
p1369
sg5
S'Mouse'
p1370
sg1115
S'gilded blunderbuss'
p1371
sg1118
I00
sg21
(I1
I0
I3
tp1372
sg1119
S'cheese'
p1373
sg1120
S"The mouse rushes over and takes the cheese.\nIt runs into a small opening it has made in the roof of the building.\nIt returns with something in it's mouth!"
p1374
sbasg1126
(lp1375
sg1128
(g1129
g1130
g1131
g1132
g1179
tp1376
sg1135
g1372
sg1136
S'With all of your might you pull yourself up and onto the roof.\nYou can see the majority of campus from up here!'
p1377
sg1138
I1
sbaa(lp1378
Na(iGameClasses
Map
p1379
(dp1380
g12
S'HEALTH SCIENCES LIBRARY:\nIn front of you is the McMaster Map. To your right is the bus stop.\nMDCL is behind you. The Hospital West Wing is to your left.'
p1381
sg1108
(lp1382
sg5
S'Health Sciences Library'
p1383
sg1124
(lp1384
sg1126
(lp1385
sg1128
(tsg1135
(I1
I1
I1
tp1386
sg1136
S"You are constantly asked to be quiet even though you have yet to make a sound.\nAfter scanning the tables and see no one you recognize you take a seat\nin an armchair and stare out towards the centre of campus.\nYou daydream of a life where these study rooms weren't constantly full."
p1387
sg1138
I0
sbaNaNaa(lp1388
Na(iGameClasses
Map
p1389
(dp1390
g12
S'MCMASTER MAP:\nIn front of you lies the entrance to Hatch. To your right, JHE Field.\nTo your rear lies the Health Sci Library. T-13 is to your left.'
p1391
sg1108
(lp1392
sg5
S'Map of McMaster'
p1393
sg1124
(lp1394
(iGameClasses
Interact
p1395
(dp1396
g12
S"It's the map of McMaster.'\n ________________________________________________\n|Map of McMaster                                 |\n|                                       BATES    |\n|                                                |\n| ETB        JHE         BSB                     |\n|                                                |\n|                                      STATUE    |\n|                                                |\n| HOSPITAL                                       |\n|          MDCL         CHAPEL              MUSC |\n|________________________________________________|"
p1397
sg5
S'McMaster Map'
p1398
sg1115
S"minnick's glasses"
p1399
sg1118
I00
sg21
(I1
I2
I1
tp1400
sg1119
S"minnick's glasses"
p1401
sg1120
S"Through Minnick's glasses the true map is revealled!\nYou read:\n'Harness the sun.'\n ________________________________________________\n|Map of McMaster                                 |\n|                                       BATES    |\n|                                                |\n| ETB        JHE         BSB                     |\n|                                                |\n|                        \\/            STATUE    |\n|                        /\\                      |\n| HOSPITAL                                       |\n|          MDCL         CHAPEL              MUSC |\n|________________________________________________|\nDr. Minnick's glasses glow hot as you quickly swat them off of your face."
p1402
sbasg1126
(lp1403
sg1128
(tsg1135
g1400
sg1136
S'Has anyone even used this thing?\nA lost freshman asks you for directions even though the map is clearly next to you.\nAfter sending them in the wrong direction you plan your next move.'
p1404
sg1138
I0
sbaNaNaa(lp1405
Na(iGameClasses
Map
p1406
(dp1407
g12
S'OUTSIDE HATCH:\nETB to your left. Enter Hatch by going forward.\nThe McMaster Map to your rear. JHE Entrance is to your right.'
p1408
sg1108
(lp1409
sg5
S'In Front of Hatch'
p1410
sg1124
(lp1411
g1075
asg1126
(lp1412
sg1128
(tsg1135
g1081
sg1136
S'You stare at the newly completed building.\nThe sun still shines and you are irritated by the constant drone of the Hamiltonian sirens\nwhich you have yet to grow accustomed to...'
p1413
sg1138
I0
sbaNaNaa(lp1414
Na(iGameClasses
Map
p1415
(dp1416
g12
S'INSIDE HATCH:\nIn front of you lies JHE-Annex. To your right is the JHE lobby.\nTo your rear you can exit.\nTo your left is an alley.'
p1417
sg1108
(lp1418
(iGameClasses
Enemy
p1419
(dp1420
g12
S"'Yo check out my meme page, you ever heard coco jay?'"
p1421
sg3
(I15
I10
I20
tp1422
sg5
S'Mario the Mixologist'
p1423
sg1115
S'stylish watch'
p1424
sg64
I01
sg1117
Nsg1118
I00
sg19
I50
sg21
g338
sg1119
Nsg67
I00
sg1120
g20
sg1121
S'si ya saben como consigo, por que me invitan?'
p1425
sbasg5
S'Inside Hatch'
p1426
sg1124
(lp1427
g332
asg1126
(lp1428
sg1128
(tsg1135
g338
sg1136
S"That 'fresh building' smell still lingers.\nYou see members of the various clubs rushing from room to room including a man carrying a rocket.\nThe Kipling clock ticks away... only 364 more...\nWho is this Gerald Hatch anyway?"
p1429
sg1138
I0
sba(iGameClasses
Map
p1430
(dp1431
g12
S'2ND FLOOR Hatch:\nIn front of you lies the Eng Phys Office. To your right is 2nd Floor JHE.\nHatch is downstairs.'
p1432
sg1108
(lp1433
sg5
S'2nd Floor Hatch'
p1434
sg1124
(lp1435
sg1126
(lp1436
sg1128
(g1130
g1131
g1179
tp1437
sg1135
(I1
I4
I2
tp1438
sg1136
S"You see various meeting rooms with 1st years occupying them.\nThe MES office is full but nothing seems to be getting done.\nThere's therapy dogs scattered everywhere for Paws and Play.\nYou can't get a session with a real therapist but at least there is this"
p1439
sg1138
I1
sbaNaa(lp1440
Na(iGameClasses
Map
p1441
(dp1442
g12
S'JHE ANNEX:\nHatch is to your rear. ABB in front of you.\nITB is to your left. NRB to your right.\nThe Eng Phys office is up the stairs.'
p1443
sg1108
(lp1444
sg5
S'JHE Annex'
p1445
sg1124
(lp1446
g906
asg1126
(lp1447
sg1128
(tsg1135
g912
sg1136
S'They made a big engineering building, got money, then added more.\nYou wonder why Eng Phys classes get pushed into the rooms in this side of JHE...\nHmm...'
p1448
sg1138
I0
sba(iGameClasses
Map
p1449
(dp1450
g12
S'ENG PHYS OFFICE:\n2nd Floor Abb is infront of you. 2nd Floor Hatch is behind you. You can go down the stairs to JHE Annex.'
p1451
sg1108
(lp1452
(iGameClasses
Enemy
p1453
(dp1454
g12
S"'We have been looking for you.'\n'The Department is not pleased...'\n'But first, the McMaster Police have confiscated my Solar Cell, go get it.'\n'Then, maybe you are truly worthy of continuing this quest.'"
p1455
sg3
(I300
I150
I100
tp1456
sg5
S'Dr. Kleimann'
p1457
sg1115
Nsg64
I01
sg1117
Nsg1118
I01
sg19
I300
sg21
g793
sg1119
S'solar cell'
p1458
sg67
I01
sg1120
S"You sit down and listen to what Dr. Kleimann has to say...\n'You have awoken an ancient force that hasn't stirred in many years'.\n'You didn't think we would find out what you did but we know all.'\n'It had been prophecized that an adventurer would dictate the future of the faculty...'\n'Only The Quantum Order can assist you now, seek out Dr. Minnick. I wish you luck...'"
p1459
sg1121
S'You have betrayed The Order!'
p1460
sbasg5
S'Eng Phys Office'
p1461
sg1124
(lp1462
(iGameClasses
Interact
p1463
(dp1464
g12
S'This heap of computing majesty could block bullets... I think...'
p1465
sg5
S'Lenovo Laptop'
p1466
sg1115
g20
sg1118
I00
sg21
g793
sg1119
S'eng phys usb pen'
p1467
sg1120
S'You plug in the Eng Phs USB Pen.\nYou find all of 2P04 files, who uses FlexPDE anymore? You also find a \nweird exe called the Eng Phys Text Adventure! That sounds like fun.\nYou hear a drumming in your ears, is that coming from the pen?'
p1468
sbag787
asg1126
(lp1469
sg1128
(g1131
g1132
g1179
tp1470
sg1135
g793
sg1136
S'The portrait of Dr. Novog makes you jealous as you realize you could\nnever pull off a hairstyle like that.\nYou scan the display case of past Eng Phys projects.\nThey display these as trophies...\nTrophies which only tell a story of endless grind you think to yourself...'
p1471
sg1138
I0
sbaNaa(lp1472
(iGameClasses
Map
p1473
(dp1474
g12
S'ABB BASEMENT:\nYou can only go back up to the main floor.'
p1475
sg1108
(lp1476
sg5
S'ABB Basement'
p1477
sg1124
(lp1478
g542
a(iGameClasses
Interact
p1479
(dp1480
g12
S'Seems like a regular fridge to me.'
p1481
sg5
S'Fridge'
p1482
sg1115
S'pedrotti cubed'
p1483
sg1118
I01
sg21
g548
sg1119
S'relativistic key'
p1484
sg1120
S"You inspect the inside of the fridge to reveal a small keyhole.\nUpon inserting and turning the key you hear a robotic voice bellow.\n'WORMHOLE ACTIVATED'\nThe compartment bursts open and out flies a book!"
p1485
sba(iGameClasses
Interact
p1486
(dp1487
g12
S"Dr. Haugen's personal optical bench..."
p1488
sg5
S'Optical Bench'
p1489
sg1115
S'relativistic key'
p1490
sg1118
I01
sg21
g548
sg1119
S'femtosecond laser'
p1491
sg1120
S"You place Dr. Haugen's femtosecond laser on the bench and aim it at the fridge.\nTurning the laser on (remembering your laser safety glasses, of course)\nfires the high-intensity beam at the fridge.\nThe room begins to shake and smoke begins to billow out of the cracks of the fridge.\nThe door swings open and a glowing apparition of Albert Einstein emerges!\n'You have come a long way, but your quest is not yet over.'\n'For there still remains a great evil on this campus'\n'Dr. Haugen was entrusted with protecting the contents of my fridge.'\n'I have known of your destiny since your first year here at McMaster.'\n'You will be the one who determines the fate of the faculty.'\n'It is, therefore, my responsibility to prepare you for what lies ahead.'\n'This key opens a compartment in my fridge which holds one of three Quantum Relics.'\n'These items give the holder the power to shape the fate of the entire university.'\n'I cannot tell you much more. Perhaps I have said too much.'\n'Take this. Good Luck.'"
p1492
sbag582
ag920
asg1126
(lp1493
sg1128
(g1129
g1130
g1131
g1132
g1133
tp1494
sg1135
g548
sg1136
S'The Laser lab is pretty darn cool.\nWalking around here you notice a number of PhD students looking rather shifty.\nHmmm...\nYou wonder why that is.'
p1495
sg1138
I0
sba(iGameClasses
Map
p1496
(dp1497
g12
S'ABB:\nThode is in front of you. JHE Annex is behind you.\nThe Nuclear Reactor is to your right. LOT I is to your left.\nYou can go up or down the stairs.'
p1498
sg1108
(lp1499
sg5
S'ABB'
p1500
sg1124
(lp1501
(iGameClasses
Interact
p1502
(dp1503
g12
S"It's a display case full of all sorts of old-time Engineering Physics wizardry."
p1504
sg5
S'Display Case'
p1505
sg1115
S"faraday's cage"
p1506
sg1118
I01
sg21
(I1
I6
I1
tp1507
sg1119
S'rusty key'
p1508
sg1120
S'The rusty key fits perfectly!\nAs you turn the key glowing square forms on the back\nof the display case and opens revealing an old relic...'
p1509
sbasg1126
(lp1510
sg1128
(tsg1135
g1507
sg1136
S'You stare at the electron microscope structure and wonder if it could even see your GPA...\nA tear rolls down your cheek. You collect yourself and plan what to do next.'
p1511
sg1138
I0
sba(iGameClasses
Map
p1512
(dp1513
g12
S'2ND FLOOR ABB:\nThe Eng Phys Office is behind you. You can down the stairs to ABB.'
p1514
sg1108
(lp1515
(iGameClasses
Enemy
p1516
(dp1517
g12
S"'Bring me a Coffee please, I am rather tired.'"
p1518
sg3
(I100
I100
I200
tp1519
sg5
S'Dr. LaPierre'
p1520
sg1115
Nsg64
I01
sg1117
Nsg1118
I01
sg19
I300
sg21
g742
sg1119
S'coffee'
p1521
sg67
I01
sg1120
S'Here. I nice pen for your troubles.\nGo find Dr. Knights, he has more for you to do.'
p1522
sg1121
S"I can't believe you've done this."
p1523
sbasg5
S'2nd Floor ABB'
p1524
sg1124
(lp1525
g736
asg1126
(lp1526
sg1128
(g1129
g1131
g1132
g1179
tp1527
sg1135
g742
sg1136
S'You were told JHE would be your home.\nNope.\nInstead you recall countless hours lectures on the 2nd floor\nas you drifted in and out of daydreams staring out the windows on a spring afternoon...'
p1528
sg1138
I0
sbaNaa(lp1529
(iGameClasses
Map
p1530
(dp1531
g12
S'THODE BASEMENT:\nGo up to head outside.'
p1532
sg1108
(lp1533
(iGameClasses
Enemy
p1534
(dp1535
g12
S"I need to complete Kenrick's design... use my glasses to find what we need!"
p1536
sg3
(I400
I400
I400
tp1537
sg5
S'Dr. Minnick'
p1538
sg1115
Nsg64
I01
sg1117
Nsg1118
I01
sg19
I200
sg21
(I1
I7
I0
tp1539
sg1119
S"faraday's cage"
p1540
sg67
I01
sg1120
S"'Great! Now we can open the window to the electronics world!'\nYou step back and watch as Dr. Minnick adds Faraday's Cage to the oscilloscope.\n'I do not know what this oracle will have to say.'\n'It is just my responsibiliy to give you access to their knowledge.'\nYour vision begins to go blurry as you hear a low whirr grow louder and Kenrick's oscilloscope glows with\nconsiderable intensity!\nYou are shocked as you open your eyes. It seems as if you were dropped into the set of 'Tron'.\nA figure approaches as your vision slowly returns.\nThe figure is revealled to be James Clerk Maxwell!\n'We have waited many years for your coming.'\n'You will be the one to determine the fate of this faculty.'\n'My quantum relic along with the two others will give you the power to have your ring returned to you.'\n'Once you have all three you will be able to access your ring from the statue of McMaster.'\n'Good luck.'"
p1541
sg1121
S"'I'm jealous of stupid people, they have more opportunities to learn!'"
p1542
sbasg5
S'Thode Basement'
p1543
sg1124
(lp1544
(iGameClasses
Interact
p1545
(dp1546
g12
S'Looks like an old dusty workbench.'
p1547
sg5
S'Workbench'
p1548
sg1115
g20
sg1118
I00
sg21
g1539
sg1119
Nsg1120
g20
sbasg1126
(lp1549
sg1128
(g1129
g1130
g1131
g1132
g1133
tp1550
sg1135
g1539
sg1136
S"You feel the laser glares burning into the back of your neck as\nyou hastily walk amongst the rows of desks.\nIs it possible to book a study room down here without finding a phallic object drawn on the whiteboard?\nYou'll never know."
p1551
sg1138
I0
sba(iGameClasses
Map
p1552
(dp1553
g12
S'THODE:\nABB is at your rear. The campus exit is to your right.\nCootes Drive is to your left. You can go up or down the stairs.'
p1554
sg1108
(lp1555
sg5
S'Thode'
p1556
sg1124
(lp1557
g340
ag857
asg1126
(lp1558
sg1128
g1129
sg1135
g346
sg1136
S'Oh the Reactor Cafe.\nYou think of the good old days when you could actually see the reactor from the Cafe...\nAfter overhearing someone ask whether keV is bigger than MeV you first contemplate your existence,\nthen contemplate your next move...'
p1559
sg1138
I0
sba(iGameClasses
Map
p1560
(dp1561
g12
S'2ND FLOOR THODE:\nYou can go up or down the stairs.'
p1562
sg1108
(lp1563
sg5
S'2nd Floor Thode'
p1564
sg1124
(lp1565
g751
asg1126
(lp1566
sg1128
(g1129
g1130
g1131
g1132
tp1567
sg1135
g757
sg1136
S"As you enter Club Thode the smell of feet enters your nostrils.\nWho goes barefoot in a library? C'mon.\nThe memory of countless hours spent slamming together a report made of nonsense, caffeine,\nand hope makes you light headed...\nComing to your senses... You plan your next move."
p1568
sg1138
I1
sba(iGameClasses
Map
p1569
(dp1570
g12
S'3RD FLOOR THODE:\nYou can only go back down the stairs.'
p1571
sg1108
(lp1572
(iGameClasses
Enemy
p1573
(dp1574
g12
S'I would really like a cricket to continue my research...'
p1575
sg3
(I10
I10
I10
tp1576
sg5
S'Connor the Biologist'
p1577
sg1115
Nsg64
I01
sg1117
Nsg1118
I00
sg19
I15
sg21
(I1
I7
I3
tp1578
sg1119
S'cricket'
p1579
sg67
I00
sg1120
S'Thanks!'
p1580
sg1121
S"'I can't believe you've done this."
p1581
sbasg5
S'3rd Floor Thode'
p1582
sg1124
(lp1583
sg1126
(lp1584
sg1128
(g1129
g1130
g1131
g1132
g1179
tp1585
sg1135
g1578
sg1136
S"After hauling up another set of stairs you realize you probably shouldn't\nhave given up on your Pulse membership...\nThe sounds of sobbing can be heard from all around you.\nAfter you dispense all of your tissues to passing I-Sci's you plan your next move."
p1586
sg1138
I1
sbaa(lp1587
NaNaNaNaa(lp1588
(lp1589
(iGameClasses
Map
p1590
(dp1591
g12
S'CHAPEL UNDERCROFT:\nYou can only go back up to the main floor.'
p1592
sg1108
(lp1593
(iGameClasses
Enemy
p1594
(dp1595
g12
S"'Mussst eeaaat funnnndingg... Er, I mean braaains.'"
p1596
sg3
(I20
I10
I1
tp1597
sg5
S'Undead Grad Student'
p1598
sg1115
S'horrible assignment'
p1599
sg64
I01
sg1117
Nsg1118
I00
sg19
I20
sg21
g580
sg1119
Nsg67
I00
sg1120
g20
sg1121
S'My 12 year post-grad was for nothiiiiiingggggg!'
p1600
sbasg5
S'Chapel Undercroft'
p1601
sg1124
(lp1602
g574
asg1126
(lp1603
sg1128
(g1129
g1130
g1131
g1132
g1133
tp1604
sg1135
g580
sg1136
S'You struggle down the dimly lit stairway into the undercroft.\nThe distinct smell of mould enters your nose as you travel further into the musty basement.\nThe faint glow of candles cause the shadows of ancient statues to flicker on the walls of the room...\nYou plan your next move.'
p1605
sg1138
I1
sba(iGameClasses
Map
p1606
(dp1607
g12
S'MCMASTER CHAPEL:\nThe Bus Stop is in front of you back out the door. There is a set of stairs going up.\nAs well as an old stairway leading downward.'
p1608
sg1108
(lp1609
(iGameClasses
Enemy
p1610
(dp1611
g12
S"'You need prayer. Recharge at the altar.'"
p1612
sg3
(I10
I10
I10
tp1613
sg5
S'Father Frobenius'
p1614
sg1115
S'crucifix'
p1615
sg64
I01
sg1117
Nsg1118
I00
sg19
I25
sg21
g1023
sg1119
Nsg67
I00
sg1120
g20
sg1121
S'I am slain!'
p1616
sbasg5
S'The Chapel'
p1617
sg1124
(lp1618
g1017
asg1126
(lp1619
sg1128
(g1132
g1131
g1130
tp1620
sg1135
g1023
sg1136
S"The low drone of the organ draws you in.\nThe pews are relatively empty and the lighting quite dim.\nYou think it would be in your best interest\nto pray especially with exam season just around the corner...\nIt can't hurt, right? It'd probably work better than those healing stones\non your desk."
p1621
sg1138
I0
sba(iGameClasses
Map
p1622
(dp1623
g12
S'2ND FLOOR CHAPEL:\nYou can only go back down the stairs.'
p1624
sg1108
(lp1625
sg5
S'Upstairs Chapel'
p1626
sg1124
(lp1627
g249
ag196
ag935
asg1126
(lp1628
sg1128
(g1129
g1130
g1131
g1132
g1179
tp1629
sg1135
g202
sg1136
S'The combination of ringing bells and echoes from the organ is deafening.\nYou can barely collect your thoughts.\nThe cobwebs and dust give you the impression this place has been ill-travelled\nand long forgotten.'
p1630
sg1138
I1
sbaNaa(lp1631
Na(iGameClasses
Map
p1632
(dp1633
g12
S'BUS STOP:\nHealth Sciences Library to your left. JHE field in front of you.\nThe chapel is behind you. Art Museum to your right.'
p1634
sg1108
(lp1635
(iGameClasses
Enemy
p1636
(dp1637
g12
S"'Is that even your bus pass?'"
p1638
sg3
(I10
I10
I5
tp1639
sg5
S'Larry the bus driver'
p1640
sg1115
S'huge shirt'
p1641
sg64
I01
sg1117
Nsg1118
I00
sg19
I40
sg21
g307
sg1119
Nsg67
I00
sg1120
g20
sg1121
S'That was definitely not your bus pass!'
p1642
sbasg5
S'The Bus Stop'
p1643
sg1124
(lp1644
g301
ag612
asg1126
(lp1645
sg1128
(tsg1135
g307
sg1136
S'Students gather around to catch the next bus.\nYou get pushed and shoved as they desperately clammer on-board.\nYou overhear an argument between a student and the Bus Driver when suddenly the altercation\nturns to blows and pours onto the sidewalk.'
p1646
sg1138
I0
sbaNaNaa(lp1647
Na(iGameClasses
Map
p1648
(dp1649
g12
S'JHE FIELD:\nBSB Field is to your right. McMaster map to your left.\nThe Bus Stop is at your rear. The entrance to JHE is in front of you.'
p1650
sg1108
(lp1651
(iGameClasses
Enemy
p1652
(dp1653
g12
S"'Man, you were a RIOT at the Phoenix last night!'"
p1654
sg3
(I5
I2
I10
tp1655
sg5
S'Brian the hipster'
p1656
sg1115
S'guitar'
p1657
sg64
I01
sg1117
Nsg1118
I00
sg19
I10
sg21
g602
sg1119
Nsg67
I00
sg1120
g20
sg1121
S"That's not vegan."
p1658
sbasg5
S'JHE Field'
p1659
sg1124
(lp1660
g596
ag885
asg1126
(lp1661
sg1128
(tsg1135
g602
sg1136
S'The morning sun warms your face as you scoff at a hipster slack-lining.\nStudents lie in the grass around the field even though everybody knows\nnothing gets done studying outside.\nAfter narrowly dodging a frisbee you plan what to do.'
p1662
sg1138
I1
sbaNaNaa(lp1663
Na(iGameClasses
Map
p1664
(dp1665
g12
S'FRONT OF JHE:\nBSB is to your right. Hatch to your left.\nJHE field is to your rear. Enter JHE by going forward.'
p1666
sg1108
(lp1667
sg5
S'Starting Location'
p1668
sg1124
(lp1669
g227
a(iGameClasses
Interact
p1670
(dp1671
g12
S"It's a garbage can."
p1672
sg5
S'Garbage Can'
p1673
sg1115
S'vomit'
p1674
sg1118
I00
sg21
g233
sg1119
S'msp430'
p1675
sg1120
S'You throw the MSP430 in... Yes, you have chosen wisely.'
p1676
sba(iGameClasses
Interact
p1677
(dp1678
g12
S"Welcome to The Great ENG PHYS Text Adventure!\n\nHere are the rules of the realm:\nYour orientation never changes. When you enter you will be facing the\nentrance of JHE and you will always face that way.\n\nThe commands which allow you to interact with your environment are:\nforward = f, backward = b, left = l, right = r, up = u, down = d\ntalk (person name) -talk to someone near you\nattack (person name) -attacks someone\ninspect (item name) -let's you interact with interactables and gives stats of items, can't inspect people\nequip (item name) -you pick up an item, drops any item you have in that slot\ndrop (item name) -drops an item in your inventory\neat (item name) -eat an item\nstats -will show your stats\nsearch - will search the area for things to interact with.\ninventory -will show your current inventory.\n\nBe sure to type the ENTIRE name of what you want to interact with.\nThat's it! Good Luck!"
p1679
sg5
S'Rules Sign'
p1680
sg1115
g20
sg1118
I00
sg21
g233
sg1119
g20
sg1120
g20
sbasg1126
(lp1681
sg1128
(tsg1135
g233
sg1136
S"You hear a booming voice that sounds oddly like a game developer. \ntype: 'inspect rules sign!'\nYou see the Iron Ring out front of JHE shining in the morning sun.\nThe campus is bustling with student life.\nThere are people heading in all directions with Kipling pranks\nstill scattered about JHE."
p1682
sg1138
I0
sbaNaNaa(lp1683
(iGameClasses
Map
p1684
(dp1685
g12
S'JHE BASEMENT:\nYou can only go back up to the main floor.'
p1686
sg1108
(lp1687
(iGameClasses
Enemy
p1688
(dp1689
g12
S"'I need a snack that smiles back!'"
p1690
sg3
(I17
I12
I15
tp1691
sg5
S'Zack the Snack'
p1692
sg1115
S'fanny pack'
p1693
sg64
I01
sg1117
Nsg1118
I00
sg19
I25
sg21
(I2
I4
I0
tp1694
sg1119
S'goldfish'
p1695
sg67
I00
sg1120
S'Whoa thats whack! Check out this fanny pack.'
p1696
sg1121
S'Why are you the way you are?'
p1697
sbasg5
S'JHE Basement'
p1698
sg1124
(lp1699
sg1126
(lp1700
sg1128
(g1129
g1130
g1131
g1132
g1133
tp1701
sg1135
g1694
sg1136
S'You see the remnants of failed clubs and the shattered dreams of past engineers...\nThis place is a bit chilly.'
p1702
sg1138
I1
sba(iGameClasses
Map
p1703
(dp1704
g12
S'JHE LOBBY:\nTo your right you can exit towards BSB. To your left you can head into Hatch.\nForward is the Nuclear Research building. Behind you lies the exit.\nThere are also stairs going up and down.'
p1705
sg1108
(lp1706
sg5
S'Inside JHE'
p1707
sg1124
(lp1708
g355
asg1126
(lp1709
sg1128
(tsg1135
g361
sg1136
S'JHE lobby is alive.\nStudents rushing all around as the smell of burnt coffee and sorrow tickles your nose.\nYou scan the faces around you but see no one familiar.\nThere is a confused air about this place as Kipling was just last night.\nMany engineers happy. Many more still grinding.'
p1710
sg1138
I0
sba(iGameClasses
Map
p1711
(dp1712
g12
S'2ND FLOOR JHE:\nTo the left is 2nd Floor Hatch. You can go down the stairs to JHE Lobby.'
p1713
sg1108
(lp1714
(iGameClasses
Enemy
p1715
(dp1716
g12
S"'I would like to improve my already impressive dad strength.'\n'Bring me a dumbbell.'"
p1717
sg3
(I250
I150
I100
tp1718
sg5
S'Dr. Preston'
p1719
sg1115
Nsg64
I01
sg1117
Nsg1118
I01
sg19
I300
sg21
g832
sg1119
S'dumbbell'
p1720
sg67
I01
sg1120
S"'Yes! Now I can get the pump I've been after!'\n'Go look for Dr. Buijs he has much more to tell than I.'"
p1721
sg1121
S'HOW DID YOU OVERCOME MY DAD STRENGTH?!'
p1722
sbasg5
S'2nd Floor JHE'
p1723
sg1124
(lp1724
g826
ag1025
ag1047
asg1126
(lp1725
sg1128
(g1129
g1130
g1132
g1179
tp1726
sg1135
g832
sg1136
S'You spend 20 minutes staring at the 1970 graduating class wondering if you could ever pull off a moustache like that...\nAfter realizing the cool lecture halls were only given to first years.\nYou shake your fist and plan your next move.'
p1727
sg1138
I0
sbaNaa(lp1728
(iGameClasses
Map
p1729
(dp1730
g12
S'BASEMENT OF NRB:\nYou can only go back up to the main floor.'
p1731
sg1108
(lp1732
(iGameClasses
Enemy
p1733
(dp1734
g12
S"Hello, although I've turned to the dark side to do Physics Labs\n I'm still a great guy. Did I mention I worked at CERN!?"
p1735
sg3
(I100
I75
I100
tp1736
sg5
S'Dan Fitzgreen'
p1737
sg1115
Nsg64
I01
sg1117
Nsg1118
I01
sg19
I400
sg21
g646
sg1119
g20
sg67
I01
sg1120
S"'Been a lot stirring around the faculty since last night.'\n'I used to be an adventurous student like you before the High Council and I decided to part ways.'\n'I know what you seek and I am here to help.'\n'You need to fire up that old reactor in the basement of the Tandem Accelerator.'\n'It needs some sort of high power instrument to bring it to life...'\n'I think Dr. Nagasaki has been working on something like that, he is probably somewhere in ITB.'\n'He will likely need this...'"
p1738
sg1121
S"I'm moving to the physics department"
p1739
sbasg5
S'NRB Basement'
p1740
sg1124
(lp1741
g640
asg1126
(lp1742
sg1128
(g1129
g1130
g1131
g1132
g1133
tp1743
sg1135
g646
sg1136
S'You head down the stairs to the basement...\nThe forgotten dreams of PhD students linger in the air.\nThere is an endless amount of engineering wizardry in the rooms around you.'
p1744
sg1138
I0
sba(iGameClasses
Map
p1745
(dp1746
g12
S'NUCLEAR RESEARCH BUILDING:\nTo your left lies the JHE-Annex. The Reactor is in front of you.\nThe Police Station is to your right. JHE lobby is behind you.\nThere are stairs going down.'
p1747
sg1108
(lp1748
(iGameClasses
Enemy
p1749
(dp1750
g12
S"'I've been looking for you.'\n'I have a lot to tell you, but first we must test your loyalty.'\n'There is a traitor amongst the Eng Phys faculty!'\n'His name is Chris and he was last seen in the Tandem Accelerator.'\n'Bring me what he has stolen!'"
p1751
sg3
(I250
I150
I100
tp1752
sg5
S'Dr. Buijs'
p1753
sg1115
Nsg64
I01
sg1117
Nsg1118
I01
sg19
I300
sg21
g487
sg1119
S'capstone tools'
p1754
sg67
I01
sg1120
S"'Ah you have returned.'\nYou sit down and listen to what Dr. Buijs has to say.\n'The Engineering Physics professors are part of an ancient council known as\nThe Quantum Order'\n'It is our duty to ensure the safety of this campus.'\n'It appears that your actions last night have stirred an evil\neven we don't understand.'\n'All that we do know is that some faculty members have been\ntempted by a Dark Lord with the promise of infinite knowledge.'\n'A prophecy from a time long past has foretold that an adventurer's decisions\nwould dictate the future of the faculty.'\n'Perhaps it is you they spoke of. Keep that in mind as you consider your actions.'\n'See Dan Fitzgreen in the basement.'\n'He has hatched a plan that may turn the balances in our favour.'"
p1755
sg1121
S'It is a voltage divider!'
p1756
sbasg5
S'Nuclear Research Building'
p1757
sg1124
(lp1758
g685
ag481
asg1126
(lp1759
sg1128
(tsg1135
g487
sg1136
S"You have barely ever been in here other than to struggle through\n3 hours of waiting for a water level PID controller to reach steady state.\nYou wonder how anyone could get away with a floor plan this confusing.\nPerhaps that's why no terrorists have blown up the reactor because\nthey are all still lost in here..."
p1760
sg1138
I0
sbaNaNaa(lp1761
(iGameClasses
Map
p1762
(dp1763
g12
S'INSIDE THE REACTOR:\nGo up to head outside.'
p1764
sg1108
(lp1765
(iGameClasses
Enemy
p1766
(dp1767
g12
S"What's up folks?"
p1768
sg3
(I420
I420
I420
tp1769
sg5
S'Dr. Novog'
p1770
sg1115
Nsg64
I01
sg1117
Nsg1118
I01
sg19
I100
sg21
(I2
I6
I0
tp1771
sg1119
S'pink donut'
p1772
sg67
I01
sg1120
S"'Alright folks, here's the scoop.'\n'I could only talk to you via the fusion network because the integrity of faculty\ncommunication has been compromised.'\n'The Engineering Physics professors are actually members of an Ancient Council known as The Quantum Order.'\n'For years we have kept McMast-'\n'An assassin?'\n'Hmm... I see, things are worse than we thought.'\n'We have known of this uprising within the faculty for some time but\nwere unaware of just how strong they have grown.'\n'As you have heard, a prophecy foretold of an adventurer dictating the future of the faculty.'\n'This evil group wants nothing more than to take advantage of your power and influence for their own plans.'\n'The choices you make will be yours and yours alone, however, the Quantum Order\nurges that you consider the consequences of your actions.'\n'It is our duty to assist you in realizing your ability but what comes of your power is out of our hands.'\n'You must contact the oracles who foretold of your coming, they will give you the knowledge you require.'\n'Each member of the Quantum Order only knows of the location one Oracle.'\n'For that reason I can only help you so much.'\nDr. Novog pushes a button on a nearby control panel.\nA crane arm descends into the Reactor pool to retrieve a crate from its depths.\n'Take this incantation and find the ancient mirror in the basement of Mills Library... it is your time.'"
p1773
sg1121
g20
sbasg5
S'Inside the Reactor'
p1774
sg1124
(lp1775
sg1126
(lp1776
sg1128
(g1129
g1130
g1131
g1132
g1133
tp1777
sg1135
g1771
sg1136
S'The hum of air conditioning drowns your thoughts.\nYou lose yourself staring into the faint blue glow of the pool as you slowly approach its edge.'
p1778
sg1138
I0
sba(iGameClasses
Map
p1779
(dp1780
g12
S'NUCLEAR REACTOR:\nRight is the GO station. Left is ABB.\n NRB is at your rear. The campus exit lies in front of you.\nGo down to enter.'
p1781
sg1108
(lp1782
sg5
S'Nuclear Reactor'
p1783
sg1124
(lp1784
g1001
asg1126
(lp1785
sg1128
(tsg1135
g1007
sg1136
S"As you approach you wonder if that steam is really radioactive?\nIt can't be.\nThe ominous structure draws you closer as you consider what it would be\nlike to swim in that sweet blue pool..."
p1786
sg1138
I0
sbaNaNaa(lp1787
Na(iGameClasses
Map
p1788
(dp1789
g12
S'CAMPUS EXIT:\nHead to Thode by going left. Head down Cootes trail if you go right.\nThe Reactor is behind you.'
p1790
sg1108
(lp1791
sg5
S'Campus Exit'
p1792
sg1124
(lp1793
g422
asg1126
(lp1794
sg1128
g1129
sg1135
g428
sg1136
S'A faint glow can be seen in the distance.\nWarning signs litter the trail as you squint to get a better look.\nA chill is sent down your spine as you see the flickering stretched shadows of\nfighting dance on the road ahead.\nYou cannot go straight... yet.'
p1795
sg1138
I1
sbaNaNaa(lp1796
NaNaNaNaa(lp1797
(lp1798
Na(iGameClasses
Map
p1799
(dp1800
g12
S'ART MUSEUM:\nThe exit lies in front of you.'
p1801
sg1108
(lp1802
sg5
S'Inside the Art Museum'
p1803
sg1124
(lp1804
g558
a(iGameClasses
Interact
p1805
(dp1806
g12
S'An old oil painting of the founding fathers of McMaster.\nDated:April 20th, 1887'
p1807
sg5
S'Old Painting'
p1808
sg1115
S"minnick's glasses"
p1809
sg1118
I00
sg21
g564
sg1119
S"minnick's glasses"
p1810
sg1120
S"Through Dr. Minnick's glasses a glowing green inscription is revealed!\n'In the hall where we eternally meet,\nThe second clue lies beneath your feet.'\nWhile reading the secret message Dr. Minnick's glasses get increasingly hotter and you quickly swat them off your face."
p1811
sbasg1126
(lp1812
sg1128
(g1132
g1131
g1130
tp1813
sg1135
g564
sg1136
S'Who knew McMaster had such a beautiful gallery.\nYou tilt your head endlessly until the art sort of makes sense.\nAfter telling yourself you could totally make every piece in the place had you been given\na chance you put your pinky out.\nThen contemplate your next move.'
p1814
sg1138
I0
sbaNaNaa(lp1815
Na(iGameClasses
Map
p1816
(dp1817
g12
S'OUTSIDE ART MUSEUM:\nYou can enter the museum to your rear. Bus Stop is to your left.\nWilly-dog stand to your right. BSB field lies in front of you.'
p1818
sg1108
(lp1819
sg5
S'Outside the Art Museum'
p1820
sg1124
(lp1821
g566
asg1126
(lp1822
sg1128
(tsg1135
g572
sg1136
S'Standing out front of the art museum you feel you are already being critiqued.\nAfter narrowly escaping a conversation with an arts student\nabout their installation piece of a dirty coffee table...\nYou plan your next move.'
p1823
sg1138
I0
sbaNaNaa(lp1824
Na(iGameClasses
Map
p1825
(dp1826
g12
S'BSB FIELD:\nThe turning circle is to your right. JHE field is to your left.\nEntrance to BSB is in front of you. The Art Museum is to your rear.'
p1827
sg1108
(lp1828
(iGameClasses
Enemy
p1829
(dp1830
g12
S"'I heard some jebroni took the 3W Textbook and hid in Bridges cafe.'\n'Full send, dude!'"
p1831
sg3
(I10
I15
I5
tp1832
sg5
S'Andreas the Nerd'
p1833
sg1115
S'visor glasses'
p1834
sg64
I01
sg1117
Nsg1118
I00
sg19
I50
sg21
g556
sg1119
Nsg67
I00
sg1120
g20
sg1121
S'Dude, that was definitely a full send'
p1835
sbasg5
S'BSB Field'
p1836
sg1124
(lp1837
g550
a(iGameClasses
Interact
p1838
(dp1839
g12
S"You can't even tell time on an analog clock.\nHow are you supposed to use this?"
p1840
sg5
S'Sun Dial'
p1841
sg1115
S'rusty key'
p1842
sg1118
I01
sg21
g556
sg1119
S"minnick's glasses"
p1843
sg1120
S"Through Dr. Minnick's glasses, you see a green glowing handprint appears\non the face of the sundial!\nYou place your hand on it and a compartment opens."
p1844
sbasg1126
(lp1845
sg1128
(tsg1135
g556
sg1136
S'You look up to see the flags flapping happily in the morning breeze.\nThat sundial at their feet ticking to the tune of celestial magic.\nAfter swatting Neil Degrasse quotes from your thoughts...\nYou consider what to do next.'
p1846
sg1138
I0
sbaNaNaa(lp1847
(iGameClasses
Map
p1848
(dp1849
g12
S'QUANTUM TUNNEL:\nGo up to return to the main floor of BSB'
p1850
sg1108
(lp1851
(iGameClasses
Enemy
p1852
(dp1853
g12
S'I am NOT going to finish this assignment... if only I had one to copy.'
p1854
sg3
(I10
I10
I10
tp1855
sg5
S'Liam the Gamer'
p1856
sg1115
S'swordfish'
p1857
sg64
I01
sg1117
Nsg1118
I00
sg19
I15
sg21
g734
sg1119
S'horrible assignment'
p1858
sg67
I00
sg1120
S'Nice! Take this swordfish. I needed 45 cooking for that.'
p1859
sg1121
g20
sbasg5
S'The Quantum Tunnel'
p1860
sg1124
(lp1861
g842
ag728
asg1126
(lp1862
sg1128
(g1129
g1130
g1131
g1132
g1133
tp1863
sg1135
g734
sg1136
S"What other faculty spends thousands of dollars on furniture for a\nliteral custodial closet in the BSB basement?\nYou guessed it...\nEng Phys. Gotta love em'"
p1864
sg1138
I1
sba(iGameClasses
Map
p1865
(dp1866
g12
S'BSB:\nBSB field is at your rear. Exit BSB to your right.\nThe entrance to JHE is to your left. The Quantum Tunnel is down the stairs.'
p1867
sg1108
(lp1868
sg5
S'BSB'
p1869
sg1124
(lp1870
g293
asg1126
(lp1871
sg1128
(tsg1135
g299
sg1136
S"You were told JHE would be your home but after picking Eng Phys\nyou didn't realize how wrong you were.\nAt least the cafe is better than JHE's.\nA shudder runs through your body as you draw nearer to the electronics labs.\nWiping a cold sweat from your brow you plan ahead."
p1872
sg1138
I0
sba(iGameClasses
Map
p1873
(dp1874
g12
S'2ND FLOOR BSB:\nYou can only go back down the stairs.'
p1875
sg1108
(lp1876
sg5
S'2nd Floor BSB'
p1877
sg1124
(lp1878
g662
asg1126
(lp1879
sg1128
(g1129
g1130
g1131
g1132
g1179
tp1880
sg1135
g668
sg1136
S'Despite the horrible numbering of floors the layout of the building is great.\nNot a complaint with this one.'
p1881
sg1138
I0
sbaNaa(lp1882
Na(iGameClasses
Map
p1883
(dp1884
g12
S'JHE/BSB JUNCTION:\nEnter JHE to your left. General Sciences building to your right.\nBSB is behind you. The Police station is in front of you.'
p1885
sg1108
(lp1886
(iGameClasses
Enemy
p1887
(dp1888
g12
S"'The oscilloscope is the window into the electronic world.'"
p1889
sg3
(I100
I100
I200
tp1890
sg5
S'Kenrick'
p1891
sg1115
S"kenrick's oscilloscope"
p1892
sg64
I00
sg1117
Nsg1118
I00
sg19
I0
sg21
(I3
I4
I1
tp1893
sg1119
Nsg67
I00
sg1120
g20
sg1121
S"Oh no! My window! The Dark Lord will know I've failed him!"
p1894
sbasg5
S'Between JHE and BSB'
p1895
sg1124
(lp1896
(iGameClasses
Interact
p1897
(dp1898
g12
S'Under closer inspection you notice the book is a different kind of stone\nthan the rest...\nIf only you could get up there for a closer look...'
p1899
sg5
S'Coat of Arms'
p1900
sg1115
S'old scroll'
p1901
sg1118
I00
sg21
g1893
sg1119
S'old ladder'
p1902
sg1120
S'With some effort you climb the rickety ladder and remove the book from the wall.\nReaching into the hole you pull out an old scroll!'
p1903
sbasg1126
(lp1904
sg1128
(tsg1135
g1893
sg1136
S"You look up and see the McMaster coat of arms engraved into the side of BSB.\nThis little pathway has been well worn and you wonder why they don't connect JHE and BSB anyway.\nAn underground (quantum) tunnel would save some hardship on a rainy day..."
p1905
sg1138
I0
sbaNaNaa(lp1906
Na(iGameClasses
Map
p1907
(dp1908
g12
S'POLICE STATION:\nThe path between JHE & BSB behind you. The GO station lies ahead of you.\nThe Nuclear Research Building is to your left. The Tandem Accelerator is to your right.'
p1909
sg1108
(lp1910
(iGameClasses
Enemy
p1911
(dp1912
g12
S"'Give me your student card!'"
p1913
sg3
(I50
I25
I10
tp1914
sg5
S'Bill the MAC Cop'
p1915
sg1115
S'solar cell'
p1916
sg64
I00
sg1117
Nsg1118
I00
sg19
I0
sg21
g123
sg1119
Nsg67
I00
sg1120
g20
sg1121
S"We aren't able to arrest you anyway!"
p1917
sbasg5
S'Police Station'
p1918
sg1124
(lp1919
g117
ag633
asg1126
(lp1920
sg1128
(tsg1135
g123
sg1136
S'Thoughts of getting kicked out of res parties fill your head.\nThose special constables are punks.\nYou mutter the lyrics of a certain N.W.A hit. After avoiding a campus P.D cruiser\nscreaming around the blind corner, you think of what to do next.'
p1921
sg1138
I0
sbaNaNaa(lp1922
Na(iGameClasses
Map
p1923
(dp1924
g12
S'GO STATION:\nThe Reactor is to your left. Keyes is to your right.\nCootes Trail is in front of you. The Police Station is behind you.'
p1925
sg1108
(lp1926
(iGameClasses
Enemy
p1927
(dp1928
g12
S"'Have you got the LON-CAPA Python code?'"
p1929
sg3
(I5
I1
I10
tp1930
sg5
S'Steven the first-year'
p1931
sg1115
S'engineering mug'
p1932
sg64
I01
sg1117
Nsg1118
I00
sg19
I15
sg21
g510
sg1119
Nsg67
I00
sg1120
g20
sg1121
S"I'm a failure at home and at school!"
p1933
sbasg5
S'GO Station'
p1934
sg1124
(lp1935
g504
asg1126
(lp1936
sg1128
(tsg1135
g510
sg1136
S'The rush of people and buses around you is disorienting.\nYou nearly get hit by 3 buses and 2 MAC Cop cars as\nyou play a strange game of real-life frogger.\nReaching a bench you sit down, catch your breath, and plan what to do next.'
p1937
sg1138
I0
sbaNaNaa(lp1938
Na(iGameClasses
Map
p1939
(dp1940
g12
S'COOTES TRAIL:\nCampus exit is to your left. GO station to your rear.\nThe Bridge to Lot M is to your right.'
p1941
sg1108
(lp1942
sg5
S'Cootes Trail'
p1943
sg1124
(lp1944
g172
ag256
a(iGameClasses
Interact
p1945
(dp1946
g12
S'This patch of dirt looks out of place...'
p1947
sg5
S'Uneven Earth'
p1948
sg1115
S'declaration of independence'
p1949
sg1118
I00
sg21
g178
sg1119
S'shovel'
p1950
sg1120
S"You begin digging and find an old box!\nYou open it up and read a note...\n'In the eldest of halls. The attic holds all.'"
p1951
sbasg1126
(lp1952
sg1128
g1129
sg1135
g178
sg1136
S'The flickering light through the trees dances off of the trail ahead of you.\nYou smile as you see a squirrel gathering nuts,\nprobably for his little squirrel family.\nWith this new positive outlook on life you plan your next move.'
p1953
sg1138
I0
sbaNaNaa(lp1954
NaNaNaNaa(lp1955
(lp1956
(iGameClasses
Map
p1957
(dp1958
g12
S'MILLS BASEMENT:\nYou can only go back up to Mills.'
p1959
sg1108
(lp1960
sg5
S'Mills Basement'
p1961
sg1124
(lp1962
g526
a(iGameClasses
Interact
p1963
(dp1964
g12
S"It's an old mirror from a time long past."
p1965
sg5
S'Ancient Mirror'
p1966
sg1115
S'gamma glove'
p1967
sg1118
I01
sg21
g532
sg1119
S'ancient incantation'
p1968
sg1120
S"You mutter the incantation... Suddenly, you see the reflection of Richard Feynman himself standing behind you!\n'You have come a long way. The way of the physicist is strong with you.'\n'Here, take this it is one of the 3 Quantum Relics.\n'You will need all 3 to acquire your Iron Ring.'\n'Trust your instincts and when the time comes you will know what to do."
p1969
sbasg1126
(lp1970
sg1128
(g1129
g1130
g1131
g1132
g1133
tp1971
sg1135
g532
sg1136
S'Jeez has anyone ever been down here?\nThe rows of bookshelves seem to go on forever...\nIf only you could possess all of the knowledge they hold.'
p1972
sg1138
I0
sba(iGameClasses
Map
p1973
(dp1974
g12
S'MILLS LIBRARY:\nThe Willy Dog Stand is in front of you. MUSC is to your right.\nYou can go downstairs.'
p1975
sg1108
(lp1976
sg5
S'Mills Library'
p1977
sg1124
(lp1978
g317
a(iGameClasses
Interact
p1979
(dp1980
g12
S"It's a guide to the Bruce trail."
p1981
sg5
S'Blue Book'
p1982
sg1115
g20
sg1118
I00
sg21
g323
sg1119
g20
sg1120
g20
sba(iGameClasses
Interact
p1983
(dp1984
g12
S"Flipping through you read:\n'The mitochondria is the powerhouse of the cell.'"
p1985
sg5
S'Red Book'
p1986
sg1115
g20
sg1118
I00
sg21
g323
sg1119
g20
sg1120
g20
sbasg1126
(lp1987
sg1128
(g1131
g1130
tp1988
sg1135
g323
sg1136
S'This is definitely not Thode.\nYou wonder if anything gets done in this library.\nAll of the debauchery taking place on the 6th floor sends a shudder through your body.\nYou notice a stack of books...'
p1989
sg1138
I0
sbaNaNaa(lp1990
Na(iGameClasses
Map
p1991
(dp1992
g12
S'WILLY DOG STAND:\nThe turning circle lies in front of you. Mills library at your rear.\nThe Archway to your right. The Art Museum is to your left.'
p1993
sg1108
(lp1994
sg5
S'The Willy Dog stand'
p1995
sg1124
(lp1996
g180
ag1061
asg1126
(lp1997
sg1128
(tsg1135
g186
sg1136
S"Oh, that sweet sweet aroma.\nMany drunken nights flash through your head.\nThat Willy dog cart is more of a staple to McMaster students than the Archway next to it.\nWas it named Willy Dog after Sir William McMaster?\nYou'll never know..."
p1998
sg1138
I0
sbaNaNaa(lp1999
Na(iGameClasses
Map
p2000
(dp2001
g12
S'TURNING CIRCLE:\nWilly Dog stand is to your rear. BSB-field is to your left.\nThe Willy McMaster Statue is to your right. Head down the road if you go forward.'
p2002
sg1108
(lp2003
(iGameClasses
Enemy
p2004
(dp2005
g12
g1913
sg3
(I50
I25
I10
tp2006
sg5
S'Will the MAC Cop'
p2007
sg1115
S'fake gun'
p2008
sg64
I01
sg1117
Nsg1118
I00
sg19
I50
sg21
g194
sg1119
Nsg67
I00
sg1120
g20
sg1121
g1917
sbasg5
S'Turning Circle'
p2009
sg1124
(lp2010
g188
ag263
asg1126
(lp2011
sg1128
(tsg1135
g194
sg1136
S'The circle thing with the three trees in it is looking pretty nice\nin the morning sun.\nStudents rush all around.\nThe aroma from the Willy Dog stand is making you pretty hungry...'
p2012
sg1138
I0
sbaNaNaa(lp2013
Na(iGameClasses
Map
p2014
(dp2015
g12
S'A ROAD:\nEnter BSB to your left. Hamilton Hall to your right.\nThe turning circle is behind you. General Sciences building in front of you.'
p2016
sg1108
(lp2017
sg5
S'Campus Road'
p2018
sg1124
(lp2019
g309
ag348
asg1126
(lp2020
sg1128
(tsg1135
g315
sg1136
S"A lost first year's parent drives by in a mini-van\nclearly ignoring the 'no access' sign.\nYou thank your astrology sign for making sure they looked up and saw you."
p2021
sg1138
I0
sbaNaNaa(lp2022
Na(iGameClasses
Map
p2023
(dp2024
g12
S'GENERAL SCIENCES BUILDING:\nThe Phoenix is to your right. The junction between JHE & BSB is to your left.\nThe Tandem Accelerator is in front of you. Exit to your rear.'
p2025
sg1108
(lp2026
(iGameClasses
Enemy
p2027
(dp2028
g12
S"'I've been trying to develop a new LED...'\n'But I need some silicon, find me a Silicon Substrate please!'"
p2029
sg3
(I150
I50
I50
tp2030
sg5
S'Dr. Kitai'
p2031
sg1115
Nsg64
I01
sg1117
Nsg1118
I01
sg19
I150
sg21
g107
sg1119
S'silicon substrate'
p2032
sg67
I01
sg1120
S"'I've been looking for one just like this, how did you get it?'\n'Maybe you are th-'\n'Nevermind... just be on the lookout for Dr. Kleiman.'"
p2033
sg1121
S"'It was only a midterm, don't off yourself.'"
p2034
sbasg5
S'General Sciences'
p2035
sg1124
(lp2036
g707
ag101
asg1126
(lp2037
sg1128
(tsg1135
g107
sg1136
S"Have you ever been in here?\nI haven't.\nYou see a group of people huddled around a pentagram-wearing goat heads.\nMaybe? I seriously don't know what goes on in here."
p2038
sg1138
I0
sbaNaNaa(lp2039
(iGameClasses
Map
p2040
(dp2041
g12
S'TANDEM BASEMENT:\nYou can only go back up the stairs.'
p2042
sg1108
(lp2043
sg5
S'Tandem Basement'
p2044
sg1124
(lp2045
(iGameClasses
Interact
p2046
(dp2047
g12
S"It's an old broken reactor."
p2048
sg5
S'Broken Reactor'
p2049
sg1115
S'pink donut'
p2050
sg1118
I01
sg21
(I4
I5
I0
tp2051
sg1119
S'flux capacitor'
p2052
sg1120
S"After some elbow grease and a bit of luck you manage to complete the reactor.\nThere is a low whirr as the device starts and begins to glow with a\npink hue.\nYou feel like ancient mechanisms beyond your comprehension are coming to life.\nWithin the pink glow you see an apparition of Dr. Novog!\n'What's up folks! This is the only channel safe for communication\n'Come meet me in the basement of the Nuclear Reactor ASAP and bring that Pink Donut!'\nAs the aparition fades a hooded figure emerges from behind a lab bench.\n'The Dark Lord demands that donut!'\nThe assassin lunges for you but is quickly met by your blow.\nAs they fall to the ground you notice an insignia on their robe that tickles your 'that's familiar' bone...\nYou pull back their hood to reveal the face of an Eng Phys PhD student!\nYou don't remember their name... But you know they are in the faculty..."
p2053
sbasg1126
(lp2054
sg1128
(g1129
g1130
g1131
g1132
g1133
tp2055
sg1135
g2051
sg1136
S"An old basement with all sorts of technological wizardry you don't recognize.\nIt seems like this place has been untouched for some time.\nLooking around you get the impression that not a lot of people come down here."
p2056
sg1138
I0
sba(iGameClasses
Map
p2057
(dp2058
g12
S'TANDEM ACCELERATOR:\nThe General Sciences Building is behind you. The Police station is to your left.\nA trail is to your right. Keyes is in front of you.'
p2059
sg1108
(lp2060
(iGameClasses
Enemy
p2061
(dp2062
g12
S"'The tools should be coming any day now.'"
p2063
sg3
(I50
I75
I50
tp2064
sg5
S'Chris'
p2065
sg1115
S'capstone tools'
p2066
sg64
I00
sg1117
Nsg1118
I00
sg19
I0
sg21
g147
sg1119
Nsg67
I00
sg1120
g20
sg1121
S'I was going to quit anyway!'
p2067
sbasg5
S'Tandem Accelerator'
p2068
sg1124
(lp2069
g141
asg1126
(lp2070
sg1128
(tsg1135
g147
sg1136
S'Turns out the Tandem Accelerator is NOT a rad place to ride a 2-person bike...\nBummed out you remind yourself you graduated and consider what to do next.'
p2071
sg1138
I0
sbaNaNaa(lp2072
Na(iGameClasses
Map
p2073
(dp2074
g12
S'MARY KEYES:\nYou can head to the Bridge if you go forward. The GO station is to your left.\nThe Tandem Accelerator is at your rear. Bates is to your right.'
p2075
sg1108
(lp2076
sg5
S'Keyes'
p2077
sg1124
(lp2078
g810
ag892
asg1126
(lp2079
sg1128
(tsg1135
g816
sg1136
S"A snack station that's open 'til midnight.\nWhat a life saver indeed.\nYou quickly thank the engineering gods for Mary Keyes and fight yourself\nfrom ordering chicken fingers & fries super combo..."
p2080
sg1138
I0
sbaNaNaa(lp2081
Na(iGameClasses
Map
p2082
(dp2083
g12
S'THE BRIDGE:\nLot M is to your right. Keyes is at your rear.\nHead down Cootes trail if you go left.'
p2084
sg1108
(lp2085
sg5
S'The Bridge'
p2086
sg1124
(lp2087
g849
asg1126
(lp2088
sg1128
g1129
sg1135
g855
sg1136
S'You narrowly avoid a GO bus\npick yourself up and brush yourself off.\nThen plan your next move.'
p2089
sg1138
I0
sbaNaNaa(lp2090
NaNaNaNaa(lp2091
(lp2092
(iGameClasses
Map
p2093
(dp2094
g12
S'CUSTODIAL CLOSET:\nYou can only go up to go back to MUSC.'
p2095
sg1108
(lp2096
sg5
S'Custodial Closet'
p2097
sg1124
(lp2098
g460
ag325
ag204
ag86
asg1126
(lp2099
sg1128
(g1129
g1130
g1131
g1132
g1133
tp2100
sg1135
g92
sg1136
S'You enter the custodial closet and a formidable stench fills your nostrils...\nEw.'
p2101
sg1138
I1
sba(iGameClasses
Map
p2102
(dp2103
g12
S'MUSC:\nMills is to your left. The Archway is in front of you.\nA custodial closet is down the stairs.'
p2104
sg1108
(lp2105
sg5
S'McMaster Student Centre'
p2106
sg1124
(lp2107
g795
ag156
asg1126
(lp2108
sg1128
(g1132
g1130
tp2109
sg1135
g162
sg1136
S'The Student Centre is alive.\nAfter counting the number of jean jackets in the Starbucks line like the Count from Sesame Street\nyou snap back to reality.\n(Oops there goes gravity).\nYou notice a Starbucks employee arguing with his manager before throwing their apron to the ground.'
p2110
sg1138
I1
sbaNaNaa(lp2111
Na(iGameClasses
Map
p2112
(dp2113
g12
S'ARCHWAY:\nMUSC at your rear. Statue of Willy in front of you.\nEntrance to University Hall is to your right. The Willy Dog stand is to your left.'
p2114
sg1108
(lp2115
sg5
S'The McMaster Archway'
p2116
sg1124
(lp2117
g802
a(iGameClasses
Interact
p2118
(dp2119
g12
S'It appears the hole was caused by some sort of laser...'
p2120
sg5
S'Old Lamp'
p2121
sg1115
g20
sg1118
I00
sg21
g808
sg1119
g20
sg1120
g20
sbasg1126
(lp2122
sg1128
(tsg1135
g808
sg1136
S"Probably the most beautiful structure at Mac.\nYou notice a hole that appears to have melted through the glass of the lamp underneath...\nYou snap a quick selfie in front of the Archway for the 'gram."
p2123
sg1138
I1
sbaNaNaa(lp2124
Na(iGameClasses
Map
p2125
(dp2126
g12
S'WILLIAM MCMASTER STATUE:\nHamilton Hall is in front of you. The Archway is behind you.\nTurning Circle is to your left.'
p2127
sg1108
(lp2128
(iGameClasses
Enemy
p2129
(dp2130
g12
S"'I knew you could do it.'\n'I knew you were the one the prophecy spoke of.'\n'For too long the Quantum Order has kept me in isolation...'\n'They thought I was poisoning the minds of students and did not agree\nwith my methods.'\n'But now you have brought the Quantum Relics which will give me the power\nto shape the faculty as I see fit!'\nThe Hooded Man pulls back his hood to reveal the familiar face you only recall from legend!\nIt is Dr. Cassidy himself!"
p2131
sg3
(I999
I999
I999
tp2132
sg5
S'Hooded Man'
p2133
sg1115
g20
sg64
I01
sg1117
Nsg1118
I00
sg19
I999
sg21
(I5
I2
I1
tp2134
sg1119
Nsg67
I00
sg1120
g20
sg1121
g20
sbasg5
S'Statue of Sir William McMaster'
p2135
sg1124
(lp2136
sg1126
(lp2137
sg1128
g1132
sg1135
g2134
sg1136
S'You approach the statue and notice the mysterious Hooded Man beneath the tree.\nHe notices you approach and stops the incantation he was reciting.\nHe motions for you to come closer.'
p2138
sg1138
I0
sbaNaNaa(lp2139
Na(iGameClasses
Map
p2140
(dp2141
g12
S'HAMILTON HALL:\nThe Phoenix is in front of you. A road is to your left.\nThe Willy McMaster Statue is to your rear.'
p2142
sg1108
(lp2143
sg5
S'Hamilton Hall'
p2144
sg1124
(lp2145
g1090
ag285
asg1126
(lp2146
sg1128
g1132
sg1135
g291
sg1136
S"You think about helping some first years in the Math help centre.\nThen you don't.\nThey should learn to fight through it if they're going to make it through the\nnext 4 years."
p2147
sg1138
I1
sbaNaNaa(lp2148
(iGameClasses
Map
p2149
(dp2150
g12
S'BRIDGES CAFE:\nYou can only go back up to the Phoenix.'
p2151
sg1108
(lp2152
(iGameClasses
Enemy
p2153
(dp2154
g12
S"'Did I mention I'm vegan?'"
p2155
sg3
(I15
I1
I5
tp2156
sg5
S'Jana the vegan'
p2157
sg1115
S'3w textbook'
p2158
sg64
I00
sg1117
Nsg1118
I00
sg19
I0
sg21
g139
sg1119
Nsg67
I00
sg1120
g20
sg1121
S'I was going to bring it back I swear!'
p2159
sbasg5
S'Bridges'
p2160
sg1124
(lp2161
g133
asg1126
(lp2162
sg1128
(g1129
g1130
g1131
g1132
g1133
tp2163
sg1135
g139
sg1136
S'You feel guilty walking in here after you performed a\nbeat down on a double big mac combo in a drunken stupor only hours earlier.\nAfter pledging to be more vegan in the future, you plan what to do next.'
p2164
sg1138
I0
sba(iGameClasses
Map
p2165
(dp2166
g12
S'THE PHOENIX:\nGeneral Sciences Building is to your left. Hamilton Hall is to your rear.\nThe trail to Bates is in front of you. You can also go down the stairs to Bridges Cafe.'
p2167
sg1108
(lp2168
(iGameClasses
Enemy
p2169
(dp2170
g12
S"'Wait... I recognize you... you have a $420E69 tab!'"
p2171
sg3
(I15
I20
I10
tp2172
sg5
S'Megan the Bartender'
p2173
sg1115
S'meow mix'
p2174
sg64
I01
sg1117
Nsg1118
I00
sg19
I20
sg21
g840
sg1119
Nsg67
I00
sg1120
g20
sg1121
S'Nuuuuuuuuuuuu'
p2175
sba(iGameClasses
Enemy
p2176
(dp2177
g12
S"'Whoever took the 3W Textbook from the QT shall feel my eternal wrath...'"
p2178
sg3
(I200
I100
I50
tp2179
sg5
S'Dr. Knights'
p2180
sg1115
Nsg64
I01
sg1117
Nsg1118
I01
sg19
I300
sg21
g840
sg1119
S'3w textbook'
p2181
sg67
I01
sg1120
S"'I've been looking all over for that, have a cold one on me!'\n'But before you go you should know that a difficult road lies ahead.'\n'It will not be easy to have your Iron Ring returned to you'\n'Dr. Haugen should be the one you seek next.'"
p2182
sg1121
S"'What are you doing?!'"
p2183
sbasg5
S'The Phoenix'
p2184
sg1124
(lp2185
g834
asg1126
(lp2186
sg1128
g1132
sg1135
g840
sg1136
S"Upon entering, a rush of memories from last night enter your mind.\nPeople's faces are a blur but you somewhat recall '16 tequila shots' as something you said.\nYou see a mysterious Hooded Man as he beckons you to come over."
p2187
sg1138
I0
sba(iGameClasses
Map
p2188
(dp2189
g12
S'PHOENIX LOFT:\nYou can only go back down the stairs.'
p2190
sg1108
(lp2191
sg5
S'The Pheonix Loft'
p2192
sg1124
(lp2193
g971
ag444
asg1126
(lp2194
sg1128
(g1129
g1130
g1131
g1132
g1179
tp2195
sg1135
g450
sg1136
S'The history up here is incredible. So many relics from a time long past.\nFrom old costumes from plays to furniture.\nAfter a quick Shakespearean sonnet you think of what to do next.'
p2196
sg1138
I1
sbaNaa(lp2197
Na(iGameClasses
Map
p2198
(dp2199
g12
S'TRAIL TO PHOENIX:\nBates lies in front of you. The Phoenix at your rear.\nThe Tandem Accelerator is to your left.'
p2200
sg1108
(lp2201
(iGameClasses
Enemy
p2202
(dp2203
g12
S"'MHhmgh, Soouh whatu we getta druuuunk'"
p2204
sg3
(I10
I5
I1
tp2205
sg5
S'Phil the drunk'
p2206
sg1115
S'vomit'
p2207
sg64
I01
sg1117
Nsg1118
I00
sg19
I15
sg21
g610
sg1119
S"phil's braces"
p2208
sg67
I00
sg1120
S"'UHhhh i thinka im gonna- im gon-'\nPhil vomits."
p2209
sg1121
S'mhmh spooky ghost urggh ectoplasm noooooo'
p2210
sbasg5
S'Trail'
p2211
sg1124
(lp2212
g604
asg1126
(lp2213
sg1128
g1132
sg1135
g610
sg1136
S"Longboarding down this trail going Mach 16 was a blast and a half.\nDodging deer and first years like it's some sort of cube runner.\nNice."
p2214
sg1138
I0
sbaNaNaa(lp2215
Na(iGameClasses
Map
p2216
(dp2217
g12
S'BATES:\nLOT M lies in front of you. Keyes is to your left.\nThe trail to the Phoenix is behind you.'
p2218
sg1108
(lp2219
sg5
S'Bates'
p2220
sg1124
(lp2221
g993
a(iGameClasses
Interact
p2222
(dp2223
g12
S'Old RCA TV with VHS slot...'
p2224
sg5
S'RCA TV'
p2225
sg1115
g20
sg1118
I00
sg21
g999
sg1119
S'tarzan vhs'
p2226
sg1120
S"You put the VHS into the slot and press play...\nThe opening scenes to Tarzan begin but suddenly the screen goes black and a message\nis displayed!\n'DrOWN I Need EveryThing graBs'"
p2227
sbasg1126
(lp2228
sg1128
g1132
sg1135
g999
sg1136
S'Memories of ridiculous res parties fill your mind.\nYou also recall the landfill of a room that was more of a circus attraction\nthan a living space.\nOh how distant first year seems...'
p2229
sg1138
I0
sbaNaNaa(lp2230
Na(iGameClasses
Map
p2231
(dp2232
g12
S'LOT M:\nTo your left is the bridge. Bates is behind you.'
p2233
sg1108
(lp2234
(iGameClasses
Enemy
p2235
(dp2236
g12
S"'Righteous! Could you help me get into my car?\nI lost my keys and can't find my car.\nI REALLY need what is in there.'"
p2237
sg3
(I14
I20
I5
tp2238
sg5
S'Rod the climber'
p2239
sg1115
S'delicious meal'
p2240
sg64
I01
sg1117
Nsg1118
I00
sg19
I40
sg21
g76
sg1119
S'bowling ball'
p2241
sg67
I00
sg1120
S'Thanks!\nNow I can learn to bowl that perfect strike.\nTake this, I just cooked it up.'
p2242
sg1121
S'Ouch!'
p2243
sbasg5
S'Lot M'
p2244
sg1124
(lp2245
g759
ag700
ag70
ag370
asg1126
(lp2246
sg1128
(g1129
g1132
tp2247
sg1135
g76
sg1136
S'After 3 days of hiking you arrive at Lot M.\nAfter 2 more days of looking for your car you give up and contemplate what to do next.'
p2248
sg1138
I1
sbaNaNaa(lp2249
NaNaNaNaa(lp2250
(lp2251
NaNaNaNaa(lp2252
(iGameClasses
Map
p2253
(dp2254
g12
S'SECRET ROOM:\nYou can only climb up and out.'
p2255
sg1108
(lp2256
sg5
S'Secret Room'
p2257
sg1124
(lp2258
(iGameClasses
Interact
p2259
(dp2260
g12
S"You blow the dust off, open it, and read:\n'The ability to peer into history would be a most formidable power.'\n'I have potentially produced a piece of the puzzle but without a\n'device capable of maintaining the field density long enough I fear\n'it will never become a reality.'\n'Thus I have decided to hide my invention until the time comes where\nsomeone can realize my dream.'\n'If you are reading this, find the place where you can see\ncampus in its entirety.'\n'If you ARE the hero, the next steps shall be revealed.'\n-M. Faraday"
p2261
sg5
S'Old Journal'
p2262
sg1115
g20
sg1118
I00
sg21
(I6
I1
I0
tp2263
sg1119
g20
sg1120
g20
sbasg1126
(lp2264
sg1128
(g1129
g1130
g1131
g1132
g1133
tp2265
sg1135
g2263
sg1136
S"You inspect the floorboards and find one is loose.\nUpon lifting it you reveal a secret room!\nYou climb down and find yourself surrounded by stacks of ancient books and\nforgotten items from McMaster's past."
p2266
sg1138
I1
sba(iGameClasses
Map
p2267
(dp2268
g12
S'UNIVERSITY HALL:\nThe exit is to your left.'
p2269
sg1108
(lp2270
sg5
S'Inside University Hall'
p2271
sg1124
(lp2272
g10
asg1126
(lp2273
sg1128
(g1132
g1130
g1129
tp2274
sg1135
(I6
I1
I1
tp2275
sg1136
S'The glares from portraits of old white founding fathers intimidate you.\nThe memories of failing midterms in their presence sends you into an almost trance-like state.\nYou notice that the portrait of Keyes totally looks like Stephen Fry.\nAfter talking yourself out of stealing a piece of Mac history you plan your next move.'
p2276
sg1138
I1
sba(iGameClasses
Map
p2277
(dp2278
g12
S'2ND FLOOR UH:\nYou can only go back down the stairs.'
p2279
sg1108
(lp2280
sg5
S'2nd Floor UH'
p2281
sg1124
(lp2282
(iGameClasses
Interact
p2283
(dp2284
g12
S'Looks like a set of glasses with multiple coloured lenses...'
p2285
sg5
S'Tri-Coloured Glasses'
p2286
sg1115
Nsg1118
I00
sg21
(I6
I1
I2
tp2287
sg1119
S'declaration of independence'
p2288
sg1120
S"Its a cipher...\nOn the back of the declaration you can see different coded messages using the coloured lenses...\nRED:'Lithium Carbon Boron Mangnesium(-g)'\nBLUE:'Jerry likes presents.'\nGREEN:'Guardians of De Galaxy character.'"
p2289
sbasg1126
(lp2290
sg1128
(g1129
g1130
g1131
g1132
g1179
tp2291
sg1135
g2287
sg1136
S'You make your way up the rickety staircase into a room from a time long past.\nYou notice a dust covered table with some old instruments and clutter thrown about.'
p2292
sg1138
I1
sbaNaa(lp2293
NaNaNaNaa(lp2294
NaNaNaNaa(lp2295
NaNaNaNaa(lp2296
NaNaNaNaa(lp2297
NaNaNaNaa(lp2298
NaNaNaNaa(lp2299
NaNaNaNaatp2300
a(dp2301
S'dr. soleymani'
p2302
g1168
sS'dr. knights'
p2303
g2176
sS'bill the mac cop'
p2304
g1911
sS'dr. kleimann'
p2305
g1453
sS'mario the mixologist'
p2306
g1419
sS'sir william mcmaster'
p2307
(iGameClasses
Enemy
p2308
(dp2309
g12
S"'You must rid the university of the evil Dr. Cassidy has planned!'"
p2310
sg3
(I175
I125
I100
tp2311
sg5
S'Sir William McMaster'
p2312
sg1115
S'iron ring'
p2313
sg64
I01
sg1117
Nsg1118
I00
sg19
I125
sg21
(NNNtp2314
sg1119
g20
sg67
I00
sg1120
g20
sg1121
S"The spirit of Sir William McMaster bursts with a fiercely bright explosion.\nYou look down to see your Iron Ring as well as the deed to McMaster!\nDr. Cassidy quickly picks up the deed and turns to you.\n'Excellent!' he says coupled with maniacal laughter.\n'Too fulfill your true destiny, take the power you hold in your Iron Ring and destroy all of the professors'\n'Only after they are gone can Engineering Physics truly reign supreme!'"
p2315
sbsS'will the mac cop'
p2316
g2004
sS'eric the baller'
p2317
g1250
sS'dan fitzgreen'
p2318
g1733
sS'dr. buijs'
p2319
g1749
sS'kenrick'
p2320
g1887
sS'dr. haugen'
p2321
(iGameClasses
Enemy
p2322
(dp2323
g12
S"'Hello, as you are likely aware, there has been a disturbance...'\n'You losing your Iron Ring was no accident, it was taken from you.'\n'The Quantum Order is an ancient fold whose goal is to protect the\nUniversity from certain doom and misuse of our knowledge.'\n'There has been an item of importance stolen from us and we need it returned immediately.'\n'Especially if you are to find your Iron Ring.'\n'The council has received intelligence that Dr. Soleymani has stolen Einstein's brain from the McMaster vault.'\n'You must retrieve it at once, she can be found somewhere in the hospital.'\n'Do not underestimate her! She has been tempted by a Dark Lord.'\n'The Quantum Order requires that you defeat her and return the brain at once!'"
p2324
sg3
(I250
I100
I999
tp2325
sg5
S'Dr. Haugen'
p2326
sg1115
Nsg64
I00
sg1117
Nsg1118
I01
sg19
I200
sg21
g548
sg1119
S"einstein's brain"
p2327
sg67
I01
sg1120
S"'Oh my! You've returned! I knew you could do it!'\n'Quickly, hand it over!'\nYou hand Dr. Haugen the brain and he opens the fridge placing it inside.\n'Now, we just need to mount my laser onto my bench-'\nSuddenly a rabid Grad Student bursts into the lab!\n'Hand over the brain, the Dark Lord demands it!' he says.\n'If you strike me down, I will become more powerful than\nyou could possibly imagine' Dr. Haugen replies.\nThe Grad Student lunges at Dr. Haugen who disappears entirely!\nJust before the perplexed Grad Student turns towards you he is met by your blow\nand falls to the floor."
p2328
sg1121
S'Oh my!'
p2329
sbsS'chris'
p2330
g2061
sS'dr. preston'
p2331
g1715
sS'dr. nagasaki'
p2332
g1284
sS'connor the biologist'
p2333
g1573
sS'dr. novog'
p2334
g1766
sS'mitch the ta'
p2335
g1216
sS'rod the climber'
p2336
g2235
sS'jana the vegan'
p2337
g2153
sS'steven the first-year'
p2338
g1927
sS'dr. minnick'
p2339
g1534
sS'brian the hipster'
p2340
g1652
sS'father frobenius'
p2341
g1610
sS'paul the janitor'
p2342
g1267
sS'dr. kitai'
p2343
g2027
sS'hooded man'
p2344
g2129
sS'liam the gamer'
p2345
g1852
sS'zack the snack'
p2346
g1688
sS'larry the bus driver'
p2347
g1636
sS'megan the bartender'
p2348
g2169
sS'dr. lapierre'
p2349
g1516
sS'brendan fallon'
p2350
(iGameClasses
Enemy
p2351
(dp2352
g12
S"What's up dude? I'm here to bless up your shit.\nDo you have my lunch box?"
p2353
sg3
(I9999
I9999
I9999
tp2354
sg5
S'Brendan Fallon'
p2355
sg1115
S'green bang bong'
p2356
sg64
I01
sg1117
Nsg1118
I00
sg19
I999
sg21
g2314
sg1119
S"brendan fallon's lunchbox"
p2357
sg67
I00
sg1120
S'THANKS! TOKE UP MY DUDES!'
p2358
sg1121
g20
sbsS'phil the drunk'
p2359
g2202
sS'undead grad student'
p2360
g1594
sS'erik the sk8r'
p2361
g1110
sS'andreas the nerd'
p2362
g1829
sS'dr. cassidy'
p2363
(iGameClasses
Enemy
p2364
(dp2365
g12
S"'Yes, I was the one who sent you on this quest.'\n'My associates were no match for you, they did not have the strength to acquire the Relics for me.'\n'I know the Quantum Order has told you that the prophecy spoke of you bringing peace.'\n'You have been lead to believe the Order fights for what is just and fair.'\n'But you have been mislead.'\n'They only wish to keep the power of the Quantum Relics to themselves so that they\nalone decide the fate of the University.'\n'I only ever wanted to reveal the true power of Engineering Physics to the students.'\n'They thought my methods were unsafe.'\n'They thought the power I intended to reveal would pollute the minds of the students\nand cloud their judgement.'\n'The Quantum Order only wishes to suppress the true power we hold!'\n'They don't trust the students, they think they are incapable of managing the power I intended to give them.'\n'We are the premier stream and we deserve to rule McMaster as such!'\n'Join me, together we can harness the powers given to you by the oracles.'\n'With the relics we may enter the Shadow Realm and retrieve the deed to the university\nfrom the spirit of Sir William McMaster.'\n'We can then overthrow the Quantum Order and shape the university to our liking and\nfinally Engineering Physics will reign supreme!'\n\nJust as Dr. Cassidy finishes speaking the ground begins to shake and you are blinded\nby a glow emanating from the statue of Sir William McMaster.\nYou recover from shielding your eyes and see the spirit of William McMaster\nemerging from a rift in fabric of spacetime!\n'Just wait, hero.'\n'I took your Iron Ring from you after you desecrated my statue last night for a reason'\n'I have known of Dr. Cassidy's intentions for some time and as you are the one\nthe prophecy has spoken of I knew he would jump at this opportunity to take my deed.'\n'I had to find a way to force him into playing his hand.'\n'Now the opportunity to rid Engineering Physics of this tyrannical Dark Lord has come!'\nDr. Cassidy quickly interjects.\n'You see, he only wants to restrict the power of our faculty!'\n'Destroy him and we shall finally rule the university!'"
p2366
sg3
(I175
I125
I200
tp2367
sg5
S'Dr. Cassidy'
p2368
sg1115
g20
sg64
I01
sg1117
Nsg1118
I00
sg19
I125
sg21
g2314
sg1119
g20
sg67
I00
sg1120
g20
sg1121
S"Dr. Cassidy falls to the ground.\nThe spirit of Sir William McMaster approaches and puts his hand on your shoulder.\n'You have chosen wisely.'\n'Dr. Cassidy had been driven mad in his quest for ultimate power.'\n'You have ensured the safety of McMaster and remained true to your values.'\n'McMaster University is an institution meant to allow all facets of learning coexist in harmony.'\n'No faculty should rule over the rest.'\n'For your actions, I believe you are a worthy engineer.'\n'Here is your Iron Ring, continue to wear it with pride.'"
p2369
sbsa(dp2370
S'red book'
p2371
g1983
sS'workbench'
p2372
g1545
sS'rules sign'
p2373
g1677
sS'old car'
p2374
g1316
sS'red car'
p2375
g1304
sS'fridge'
p2376
g1479
sS'old painting'
p2377
g1805
sS'optical bench'
p2378
g1486
sS'garbage can'
p2379
g1670
sS'uneven earth'
p2380
g1945
sS'lenovo laptop'
p2381
g1463
sS'new car'
p2382
g1320
sS'mouse'
p2383
g1367
sS'coat of arms'
p2384
g1897
sS'rca tv'
p2385
g2222
sS'sharpxchange'
p2386
g1155
sS'tri-coloured glasses'
p2387
g2283
sS'mcmaster map'
p2388
g1395
sS'blue car'
p2389
g1309
sS'blue book'
p2390
g1979
sS'broken reactor'
p2391
g2046
sS'sun dial'
p2392
g1838
sS'old lamp'
p2393
g2118
sS'old journal'
p2394
g2259
sS'display case'
p2395
g1502
sS'ancient mirror'
p2396
g1963
sa(dp2397
S'secret spaces'
p2398
I1
sS'the dark lord'
p2399
I1
sS'create chaos'
p2400
I1
sS'preston get dumbbell'
p2401
I0
sS'kitai get silicon substrate'
p2402
I0
sS'knights get book'
p2403
I0
sS'lapierre get coffee'
p2404
I0
sS'talk to mysterious man'
p2405
I0
sS'minnick get oscilloscope'
p2406
I0
sS'maxwell portal'
p2407
I0
sS'feynman mirror'
p2408
I0
sS'EPTA all the way down'
p2409
I1
sS'kleimann get solar cell'
p2410
I0
sS'einstein fridge'
p2411
I0
sS'university man'
p2412
I1
sS'dan fix reactor'
p2413
I0
sS'get key to display case'
p2414
I0
sS'buijs kill chris'
p2415
I0
sS'haugen kill soleymani'
p2416
I0
sS'restored order'
p2417
I1
sS'novog get donut'
p2418
I0
sS'end game start'
p2419
I0
sa(dp2420
S'playername'
p2421
S'Tyler Kashak'
p2422
sS'layersdeep'
p2423
I0
sS'timestart'
p2424
F1546379975.614
sS'savepath'
p2425
S'D:\\Files\\bflaw\\Documents\\GitHub\\EngPhysAdventure\\cache\\'
p2426
sS'gamestart'
p2427
F1546379436.892
sS'commandcount'
p2428
I230
sS'log'
p2429
(lp2430
S'Alpha v0.27 - Dev Update'
p2431
ag2422
aS'Tue Jan 01 16:50:36 2019'
p2432
aS'--LOG START--'
p2433
ag1132
ag1132
ag1129
ag1132
aS'talk hooded man'
p2434
ag1131
ag1131
ag1131
ag1131
ag1131
ag1131
ag1130
ag1179
aS'equip silicon subrate'
p2435
ag1133
ag1132
ag1132
ag1132
ag1132
ag1129
aS'talk dr. kitai'
p2436
ag1131
ag1129
aS'attack bill the mac cop'
p2437
aS'equip solar cell'
p2438
ag1131
ag1131
ag1179
aS'talk dr. kleimann'
p2439
ag1133
ag1132
ag1130
ag1132
aS'attack kenrick'
p2440
aS"equip kenrick's oscilliscope"
p2441
ag1132
ag1130
ag1131
aS'talk dr. minnick'
p2442
aS"equip minnick's glasses"
p2443
ag1130
aS'inspect sun dial'
p2444
aS'equip rusty key'
p2445
ag1129
ag1131
ag1131
ag1129
ag1129
ag1129
aS'inspect display case'
p2446
aS"equip faraday's cage"
p2447
ag1129
ag1133
aS'talk dr. minnick'
p2448
aS'equip gauss eye'
p2449
ag1179
ag1130
ag1130
ag1132
ag1130
aS'equip coffee'
p2450
ag1131
ag1129
ag1129
ag1179
aS'talk dr. lapierre'
p2451
ag1133
ag1132
ag1132
ag1132
ag1132
ag1130
ag1130
ag1133
aS'attack jana the vegan'
p2452
aS'equp 3w textbook'
p2453
ag1179
aS'talk dr. knights'
p2454
ag1131
ag1131
ag1131
ag1131
ag1131
ag1129
ag1132
ag1129
ag1133
ag1179
ag1130
ag1130
ag1130
ag1131
ag1131
ag1130
ag1130
ag1179
aS'attack dr. soleymani'
p2455
aS"equp einstein's brain"
p2456
ag1133
ag1129
ag1129
ag1129
ag1132
ag1129
ag1129
ag1132
ag1132
ag1129
ag1132
ag1130
ag1130
ag1131
ag1131
ag1130
ag1131
ag1130
ag1131
ag1130
ag1129
ag1132
ag1130
ag1129
ag1129
ag1129
ag1129
ag1133
aS'talk dr. haugen'
p2457
aS'equip femtosecond laser'
p2458
aS'inspect optical bench'
p2459
aS'equip raltivistic key'
p2460
aS'inspect fridge'
p2461
aS'equip pedrotti cubed'
p2462
ag1179
ag1132
ag1130
ag1132
ag1132
ag1130
ag1131
ag1130
aS'eat banna wires'
p2463
aS'drop pedrotti cubed'
p2464
ag1130
ag1130
ag1131
ag1130
ag1130
ag1129
ag1131
ag1130
aS'equip dumbbel'
p2465
ag1129
ag1129
ag1131
ag1129
ag1132
ag1132
ag1129
ag1179
aS'talk dr. preston'
p2466
ag1133
ag1129
ag1132
ag1132
aS'attack chris'
p2467
ag1131
ag1131
aS'talk dr. buijs'
p2468
ag1133
ag1179
aS'talk dr. buijs'
p2469
ag1132
ag1132
aS'equpi capstone tools'
p2470
ag1131
ag1131
aS'talk dr. buijs'
p2471
ag1133
aS'talk dan fitzgreen'
p2472
aS'equip ambifancient lunar waneshaft'
p2473
ag1179
ag1131
ag1131
ag1179
aS'talk dr. nagaski'
p2474
aS'equip flux capacitor'
p2475
ag1133
ag1132
ag1132
ag1132
ag1132
ag1133
aS'inspect broken reactor'
p2476
aS'equip pink donut'
p2477
ag1179
ag1131
ag1131
ag1129
ag1133
aS'talk dr. novog'
p2478
aS'equip ancient incantation'
p2479
ag1179
ag1130
ag1132
ag1132
ag1130
ag1130
ag1130
ag1131
ag1130
ag1130
ag1132
ag1129
ag1132
ag1130
ag1133
aS'inspect ancient mirror'
p2480
aS'equip gamma glove'
p2481
ag1179
ag1129
ag1129
ag1131
ag1129
aS'equip pedrottie cubed'
p2482
aS'inventory'
p2483
ag1179
ag1133
ag1130
ag1132
ag1132
aS'savegame'
p2484
asS'stepcount'
p2485
I180
sS'version'
p2486
F0.27
sS'versionname'
p2487
g2431
sS'runtime'
p2488
F538.7220001220703
sa.