(lp0
(iGameClasses
Character
p1
(dp2
S'stats'
p3
(I0
I0
I0
tp4
sS'name'
p5
S'Doug'
p6
sS'inv'
p7
(dp8
S'body'
p9
(iGameClasses
Equipment
p10
(dp11
S'info'
p12
S'Nothing is Equipped'
p13
sg3
(I0
I0
I0
tp14
sg5
S'EMPTY'
p15
sS'image'
p16
S'EMPTY.png'
p17
sS'worn'
p18
g9
sS'health'
p19
I-101
sS'location'
p20
(lp21
I2
aI3
aI1
asbsS'head'
p22
(iGameClasses
Equipment
p23
(dp24
g12
g13
sg3
(I0
I0
I0
tp25
sg5
g15
sg16
g17
sg18
g22
sg19
I-101
sg20
g21
sbsS'off-hand'
p26
(iGameClasses
Equipment
p27
(dp28
g12
g13
sg3
(I0
I0
I0
tp29
sg5
g15
sg16
g17
sg18
g26
sg19
I-101
sg20
g21
sbsS'hand'
p30
(iGameClasses
Equipment
p31
(dp32
g12
g13
sg3
(I0
I0
I0
tp33
sg5
g15
sg16
g17
sg18
g30
sg19
I-101
sg20
g21
sbssS'emptyinv'
p34
(dp35
g9
g10
sg22
g23
sg26
g27
sg30
g31
ssS'maxhealth'
p36
I100
sS'alive'
p37
I01
sS'basestats'
p38
(lp39
I0
aI0
aI0
asg19
I100
sg20
g21
sS'spoke'
p40
I00
sba(dp41
S'cheese'
p42
(iGameClasses
Equipment
p43
(dp44
g12
S'Not just cheddar, the smelly kind.'
p45
sg3
(I1
I1
I1
tp46
sg5
S'Cheese'
p47
sg16
S'Cheese.jpg'
p48
sg18
S'off-hand'
p49
sg19
I5
sg20
(I5
I7
I1
tp50
sbsS'delicious meal'
p51
(iGameClasses
Equipment
p52
(dp53
g12
S'A beautiful, home-cooked, meal.'
p54
sg3
(I1
I1
I1
tp55
sg5
S'Delicious Meal'
p56
sg16
S'Meal.jpg'
p57
sg18
g49
sg19
I25
sg20
(NNNtp58
sbsS'shovel'
p59
(iGameClasses
Equipment
p60
(dp61
g12
S'Call a spade a spade.'
p62
sg3
(I15
I0
I5
tp63
sg5
S'Shovel'
p64
sg16
S'Shovel.jpg'
p65
sg18
g30
sg19
S''
p66
sg20
(I5
I0
I0
tp67
sbsS'bowling ball'
p68
(iGameClasses
Equipment
p69
(dp70
g12
S'Heavy.'
p71
sg3
(I20
I15
I-5
tp72
sg5
S'Bowling Ball'
p73
sg16
S'BowlingBall.jpg'
p74
sg18
g30
sg19
g66
sg20
g58
sbsS'led of power'
p75
(iGameClasses
Equipment
p76
(dp77
g12
S'An LED with the power output of a neutron star, ok maybe not.'
p78
sg3
(I21
I0
I20
tp79
sg5
S'LED of Power'
p80
sg16
S'LED.jpg'
p81
sg18
g30
sg19
g66
sg20
g58
sbsS'green bang bong'
p82
(iGameClasses
Equipment
p83
(dp84
g12
S"The sacred glass flute providing righteous tokes since '69."
p85
sg3
(I420
I420
I420
tp86
sg5
S'Green Bang Bong'
p87
sg16
S'GBB.jpg'
p88
sg18
g49
sg19
g66
sg20
(lp89
I2
aI3
aI1
asbsS'gas mask'
p90
(iGameClasses
Equipment
p91
(dp92
g12
S'No one cared who I was till I put on the mask.'
p93
sg3
(I3
I6
I5
tp94
sg5
S'Gas Mask'
p95
sg16
S'GasMask.jpg'
p96
sg18
g22
sg19
g66
sg20
(I3
I5
I1
tp97
sbsS'surgical mask'
p98
(iGameClasses
Equipment
p99
(dp100
g12
S"Don't touch me I'm sterile!"
p101
sg3
(I0
I2
I3
tp102
sg5
S'Surgical Mask'
p103
sg16
S'SurgicalMask.jpg'
p104
sg18
g22
sg19
g66
sg20
(I0
I1
I1
tp105
sbsS'tofu'
p106
(iGameClasses
Equipment
p107
(dp108
g12
S"Vegan's delight."
p109
sg3
(I1
I0
I5
tp110
sg5
S'Tofu'
p111
sg16
S'Carrot.jpg'
p112
sg18
g30
sg19
I2
sg20
(I5
I4
I0
tp113
sbsS'jar of horse radish'
p114
(iGameClasses
Equipment
p115
(dp116
g12
S'Apparently not an instrument...'
p117
sg3
(I2
I0
I4
tp118
sg5
S'Jar of Horse Radish'
p119
sg16
S'HRaddish.jpg'
p120
sg18
g49
sg19
I3
sg20
(I4
I5
I1
tp121
sbsS'gilded blunderbuss'
p122
(iGameClasses
Equipment
p123
(dp124
g12
S'A beautiful firearm with infinite ammo.'
p125
sg3
(I200
I5
I50
tp126
sg5
S'Gilded Blunderbuss'
p127
sg16
S'Blunderbuss.jpg'
p128
sg18
g30
sg19
g66
sg20
g58
sbsS'squash racket'
p129
(iGameClasses
Equipment
p130
(dp131
g12
S"Dr. Buijs' Racket? Voltage Divider!"
p132
sg3
(I5
I0
I8
tp133
sg5
S'Squash Racket'
p134
sg16
S'Racket.jpg'
p135
sg18
g30
sg19
g66
sg20
(I5
I0
I1
tp136
sbsS'tarzan vhs'
p137
(iGameClasses
Equipment
p138
(dp139
g12
S'If only I had a VCR...'
p140
sg3
(I0
I2
I6
tp141
sg5
S'Tarzan VHS'
p142
sg16
S'Tarzan.jpg'
p143
sg18
g49
sg19
I3
sg20
(I0
I2
I1
tp144
sbsS'bike helmet'
p145
(iGameClasses
Equipment
p146
(dp147
g12
S'One of those fast Tour de France ones.'
p148
sg3
(I0
I8
I10
tp149
sg5
S'Bike Helmet'
p150
sg16
S'BikeHelmet.jpg'
p151
sg18
g22
sg19
g66
sg20
(I3
I7
I1
tp152
sbsS'empty bottle'
p153
(iGameClasses
Equipment
p154
(dp155
g12
S'Dasani, more like Dishonest! Amirite?!'
p156
sg3
(I1
I0
I1
tp157
sg5
S'Empty Bottle'
p158
sg16
S'EmptyBottle.jpg'
p159
sg18
g30
sg19
g66
sg20
(I4
I1
I1
tp160
sbsS'hard hat'
p161
(iGameClasses
Equipment
p162
(dp163
g12
S"You don't really want to look like a Civil kid. But at least it protects your head."
p164
sg3
(I1
I10
I5
tp165
sg5
S'Hard Hat'
p166
sg16
S'HardHat.jpg'
p167
sg18
g22
sg19
g66
sg20
(I4
I2
I1
tp168
sbsS'priest gown'
p169
(iGameClasses
Equipment
p170
(dp171
g12
S'Wearing this gives people the impression you are a holy person...'
p172
sg3
(I1
I5
I3
tp173
sg5
S'Priest Gown'
p174
sg16
S'Gown.jpg'
p175
sg18
g9
sg19
g66
sg20
(I2
I0
I2
tp176
sbsS'used plunger'
p177
(iGameClasses
Equipment
p178
(dp179
g12
S'Used. Lovely...'
p180
sg3
(I10
I0
I10
tp181
sg5
S'Used Plunger'
p182
sg16
S'Plunger.jpg'
p183
sg18
g30
sg19
g66
sg20
g67
sbsS'dumbbell'
p184
(iGameClasses
Equipment
p185
(dp186
g12
S'The pump is the greatest feeling in the world.'
p187
sg3
(I5
I0
I2
tp188
sg5
S'Dumbbell'
p189
sg16
S'Dumbbell.jpg'
p190
sg18
g49
sg19
g66
sg20
(I1
I0
I1
tp191
sbsS'febreze'
p192
(iGameClasses
Equipment
p193
(dp194
g12
S'Kills 99.9% of odour at the source!'
p195
sg3
(I6
I0
I10
tp196
sg5
S'Febreze'
p197
sg16
S'Ferbreze.jpg'
p198
sg18
g30
sg19
I-4
sg20
g191
sbsS'msp430'
p199
(iGameClasses
Equipment
p200
(dp201
g12
S'A literal piece of garbage.'
p202
sg3
(I-5
I0
I-5
tp203
sg5
S'MSP430'
p204
sg16
S'MSP430.jpg'
p205
sg18
g30
sg19
I-5
sg20
(I2
I3
I1
tp206
sbsS'declaration of independence'
p207
(iGameClasses
Equipment
p208
(dp209
g12
S"I'm going to steal the Declaration of Independence..."
p210
sg3
(I1
I1
I1
tp211
sg5
S'Declaration of Independence'
p212
sg16
S'DOI.jpg'
p213
sg18
g49
sg19
g66
sg20
g58
sbsS'horrible assignment'
p214
(iGameClasses
Equipment
p215
(dp216
g12
S'A barely legible report on Fourier analysis.'
p217
sg3
(I3
I0
I0
tp218
sg5
S'Horrible Assignment'
p219
sg16
S'BadAss.jpg'
p220
sg18
g49
sg19
g66
sg20
g58
sbsS'pope hat'
p221
(iGameClasses
Equipment
p222
(dp223
g12
S'Does the Pope where a silly hat? Now you do.'
p224
sg3
(I0
I3
I2
tp225
sg5
S'Pope Hat'
p226
sg16
S'PopeHat.jpg'
p227
sg18
g22
sg19
g66
sg20
g176
sbsS'bottle opener'
p228
(iGameClasses
Equipment
p229
(dp230
g12
S'I wish I had a bottle of wine right about now...'
p231
sg3
(I0
I5
I15
tp232
sg5
S'Bottle Opener'
p233
sg16
S'BottleOpener.jpg'
p234
sg18
g49
sg19
g66
sg20
g152
sbsS'car keys'
p235
(iGameClasses
Equipment
p236
(dp237
g12
S"Volkswagen car keys with an 'R' on the keychain.\nHmm..."
p238
sg3
(I5
I0
I5
tp239
sg5
S'Car Keys'
p240
sg16
S'CarKeys.jpg'
p241
sg18
g49
sg19
g66
sg20
g168
sbsS"erik's frosted tips"
p242
(iGameClasses
Equipment
p243
(dp244
g12
S'Ever wanted to look rad as hell? Now you can!'
p245
sg3
(I0
I3
I20
tp246
sg5
S"Erik's Frosted Tips"
p247
sg16
S'FrostedTips.jpg'
p248
sg18
g22
sg19
g66
sg20
g58
sbsS'pedrotti cubed'
p249
(iGameClasses
Equipment
p250
(dp251
g12
S"'Property of Harold Haugen, one of the 3 Quantum Relics' is inscribed on the first page."
p252
sg3
(I50
I150
I250
tp253
sg5
S'Pedrotti Cubed'
p254
sg16
S'Pedrotti.jpg'
p255
sg18
g49
sg19
g66
sg20
g58
sbsS'puke'
p256
(iGameClasses
Equipment
p257
(dp258
g12
S'Ew, literally a pool of vomit'
p259
sg3
(I1
I0
I-10
tp260
sg5
S'Puke'
p261
sg16
S'Puke.jpg'
p262
sg18
g9
sg19
I-2
sg20
g58
sbsS'adderall'
p263
(iGameClasses
Equipment
p264
(dp265
g12
S'Speed up, my dude!'
p266
sg3
(I0
I0
I50
tp267
sg5
S'Adderall'
p268
sg16
S'Adderall.jpg'
p269
sg18
g49
sg19
I2
sg20
(I5
I3
I1
tp270
sbsS'visor glasses'
p271
(iGameClasses
Equipment
p272
(dp273
g12
S'Damn, you are now travelling waaaay to fast. Slow down dude!'
p274
sg3
(I1
I5
I35
tp275
sg5
S'Visor Glasses'
p276
sg16
S'FastGlasses.jpg'
p277
sg18
g22
sg19
g66
sg20
g89
sbsS'plastic bag'
p278
(iGameClasses
Equipment
p279
(dp280
g12
S'The audacity of some people to leave their filth around.'
p281
sg3
(I0
I1
I-10
tp282
sg5
S'Plastic Bag'
p283
sg16
S'PBag.jpg'
p284
sg18
g22
sg19
g66
sg20
(I2
I1
I1
tp285
sbsS'broken wine bottle'
p286
(iGameClasses
Equipment
p287
(dp288
g12
S'A broken wine bottle from 1996, good year.'
p289
sg3
(I10
I0
I5
tp290
sg5
S'Broken Wine Bottle'
p291
sg16
S'WineBottle.jpg'
p292
sg18
g30
sg19
g66
sg20
(I4
I3
I1
tp293
sbsS'jar of peanut butter'
p294
(iGameClasses
Equipment
p295
(dp296
g12
S'Death paste to those who are allergic... Could prove effective...'
p297
sg3
(I0
I5
I5
tp298
sg5
S'Jar of Peanut Butter'
p299
sg16
S'Peanut.jpg'
p300
sg18
g49
sg19
I5
sg20
(I4
I0
I1
tp301
sbsS'toilet seat'
p302
(iGameClasses
Equipment
p303
(dp304
g12
S'How do you even wear this?'
p305
sg3
(I0
I3
I2
tp306
sg5
S'Toilet Seat'
p307
sg16
S'Toilet.jpg'
p308
sg18
g9
sg19
g66
sg20
g67
sbsS'vh sauce'
p309
(iGameClasses
Equipment
p310
(dp311
g12
S'Sweet and sour. Nice.'
p312
sg3
(I1
I2
I1
tp313
sg5
S'VH Sauce'
p314
sg16
S'VHSauce.jpg'
p315
sg18
g49
sg19
I1
sg20
(I1
I4
I1
tp316
sbsS'banana'
p317
(iGameClasses
Equipment
p318
(dp319
g12
S'High in potassium.'
p320
sg3
(I5
I0
I5
tp321
sg5
S'Banana'
p322
sg16
S'Banana.jpg'
p323
sg18
g30
sg19
I2
sg20
(I1
I7
I1
tp324
sbsS'ice-cold pint'
p325
(iGameClasses
Equipment
p326
(dp327
g12
S'Ale of the Gods.'
p328
sg3
(I3
I0
I-5
tp329
sg5
S'Ice-Cold Pint'
p330
sg16
S'Pint.jpg'
p331
sg18
g49
sg19
I2
sg20
g293
sbsS'pencil'
p332
(iGameClasses
Equipment
p333
(dp334
g12
S'HB2. Sharpened.'
p335
sg3
(I2
I0
I5
tp336
sg5
S'Pencil'
p337
sg16
S'Pencil.jpg'
p338
sg18
g30
sg19
g66
sg20
(I2
I4
I1
tp339
sbsS'coffee'
p340
(iGameClasses
Equipment
p341
(dp342
g12
S'The fuel of thinkers.'
p343
sg3
(I3
I0
I9
tp344
sg5
S'Coffee'
p345
sg16
S'Coffee.jpg'
p346
sg18
g49
sg19
I1
sg20
g339
sbsS'epipen'
p347
(iGameClasses
Equipment
p348
(dp349
g12
S"Epinephrine Autoinjector 0.3mg. Replace if discolored. Store at 68C.\nIncase of alergic reaction remove the top...wait, why are you reading \nthis label? Isn't there something else you should be doing? "
p350
sg3
(I7
I0
I5
tp351
sg5
S'EpiPen'
p352
sg16
S'EpiPen.jpg'
p353
sg18
g49
sg19
I-2
sg20
g50
sbsS'cold steel katana'
p354
(iGameClasses
Equipment
p355
(dp356
g12
S'This could probably kill a buffalo fish...'
p357
sg3
(I18
I5
I20
tp358
sg5
S'Cold Steel Katana'
p359
sg16
S'Katana.jpg'
p360
sg18
g30
sg19
g66
sg20
g58
sbsS'mop'
p361
(iGameClasses
Equipment
p362
(dp363
g12
S"I'm going to clean up this town."
p364
sg3
(I6
I0
I4
tp365
sg5
S'Mop'
p366
sg16
S'Mop.jpg'
p367
sg18
g30
sg19
g66
sg20
(I0
I0
I1
tp368
sbsS'swordfish'
p369
(iGameClasses
Equipment
p370
(dp371
g12
S"I'd better be careful eating this!"
p372
sg3
(I10
I5
I5
tp373
sg5
S'Swordfish'
p374
sg16
S'Swordfish.jpg'
p375
sg18
g49
sg19
I12
sg20
g58
sbsS'ancient incantation'
p376
(iGameClasses
Equipment
p377
(dp378
g12
S'An old tattered scroll with an incantation written in Latin.'
p379
sg3
(I1
I1
I1
tp380
sg5
S'Ancient Incantation'
p381
sg16
S'Incantation.jpg'
p382
sg18
g49
sg19
g66
sg20
g58
sbsS'meow mix'
p383
(iGameClasses
Equipment
p384
(dp385
g12
S'I love chicken, I love liver...'
p386
sg3
(I5
I0
I5
tp387
sg5
S'Meow Mix'
p388
sg16
S'MeowMix.jpg'
p389
sg18
g49
sg19
I1
sg20
g58
sbsS'gauss eye'
p390
(iGameClasses
Equipment
p391
(dp392
g12
S'You can feel the electromagnetic energy emanating from it, one of the 3 quantum relics'
p393
sg3
(I100
I100
I100
tp394
sg5
S'Gauss Eye'
p395
sg16
S'GaussEye.jpg'
p396
sg18
g22
sg19
g66
sg20
g58
sbsS'phone'
p397
(iGameClasses
Equipment
p398
(dp399
g12
S"This thing has been dropped Graham's number times."
p400
sg3
(I5
I6
I9
tp401
sg5
S'Phone'
p402
sg16
S'Phone.jpg'
p403
sg18
g49
sg19
g66
sg20
g58
sbsS'casio'
p404
(iGameClasses
Equipment
p405
(dp406
g12
S"This one can do integrals. That's illegal."
p407
sg3
(I1
I5
I10
tp408
sg5
S'Casio'
p409
sg16
S'Casio.jpg'
p410
sg18
g49
sg19
g66
sg20
(I2
I7
I1
tp411
sbsS'vomit'
p412
(iGameClasses
Equipment
p413
(dp414
g12
S'Literally spew.'
p415
sg3
(I0
I0
I1
tp416
sg5
S'Vomit'
p417
sg16
S'Vomit.jpg'
p418
sg18
g49
sg19
I-1
sg20
g58
sbsS'bleach squirt bottle'
p419
(iGameClasses
Equipment
p420
(dp421
g12
S"Probably wouldn't be nice to get sprayed with."
p422
sg3
(I15
I5
I20
tp423
sg5
S'Bleach Squirt Bottle'
p424
sg16
S'Bleach.jpg'
p425
sg18
g30
sg19
I-10
sg20
g58
sbsS'drumstick'
p426
(iGameClasses
Equipment
p427
(dp428
g12
S"'Property of E-Smooth'"
p429
sg3
(I0
I10
I15
tp430
sg5
S'Drumstick'
p431
sg16
S'Drumstick.jpg'
p432
sg18
g49
sg19
g66
sg20
(I5
I4
I2
tp433
sbsS'self worth'
p434
(iGameClasses
Equipment
p435
(dp436
g12
S'Wow, I had this in my all along!\nNow all I have to do is wait to go back to my bad habits and this will\nbe worthless!'
p437
sg3
(I20
I20
I20
tp438
sg5
S'Self Worth'
p439
sg16
g213
sg18
g49
sg19
I-10
sg20
g58
sbsS"wendy's bag"
p440
(iGameClasses
Equipment
p441
(dp442
g12
S'Fully equipped with grease stains.'
p443
sg3
(I1
I0
I-5
tp444
sg5
S"Wendy's Bag"
p445
sg16
S'WendyBag.jpg'
p446
sg18
g22
sg19
g66
sg20
(I0
I6
I1
tp447
sbsS'empty bucket'
p448
(iGameClasses
Equipment
p449
(dp450
g12
S'The smell of cheap soap still lingers.'
p451
sg3
(I0
I10
I1
tp452
sg5
S'Empty Bucket'
p453
sg16
S'Bucket.jpg'
p454
sg18
g22
sg19
g66
sg20
g67
sbsS'old scroll'
p455
(iGameClasses
Equipment
p456
(dp457
g12
S"It reads:\n'A permanent title is too much to bear.'\n'My secret cache, is under there.'"
p458
sg3
(I0
I0
I0
tp459
sg5
S'Old Scroll'
p460
sg16
S'OldScroll.jpg'
p461
sg18
g49
sg19
g66
sg20
g58
sbsS'pid control system'
p462
(iGameClasses
Equipment
p463
(dp464
g12
S'A PID control system. Kp = 69, my dude.'
p465
sg3
(I45
I0
I10
tp466
sg5
S'PID control system'
p467
sg16
S'PID.jpg'
p468
sg18
g22
sg19
g66
sg20
g58
sbsS'voltage divider'
p469
(iGameClasses
Equipment
p470
(dp471
g12
S'It is a Voltage Divider!'
p472
sg3
(I20
I25
I20
tp473
sg5
S'Voltage Divider'
p474
sg16
S'VDivider.jpg'
p475
sg18
g49
sg19
g66
sg20
g58
sbsS'santa hat'
p476
(iGameClasses
Equipment
p477
(dp478
g12
S'Happy Holidays!'
p479
sg3
(I0
I3
I2
tp480
sg5
S'Santa Hat'
p481
sg16
S'SantaHat.jpg'
p482
sg18
g22
sg19
g66
sg20
g368
sbsS'banana wires'
p483
(iGameClasses
Equipment
p484
(dp485
g12
S'Alligator clips added for extra whippage.'
p486
sg3
(I8
I0
I8
tp487
sg5
S'Banana Wires'
p488
sg16
S'BanWires.jpg'
p489
sg18
g30
sg19
I3
sg20
(I3
I4
I1
tp490
sbsS'party hat'
p491
(iGameClasses
Equipment
p492
(dp493
g12
S'A nice hat from a cracker.'
p494
sg3
(I0
I5
I3
tp495
sg5
S'Party Hat'
p496
sg16
S'PartyHat.jpg'
p497
sg18
g22
sg19
g66
sg20
(I3
I6
I1
tp498
sbsS'potato'
p499
(iGameClasses
Equipment
p500
(dp501
g12
S'A most versatile vegetable.\nGood for breakfast, lunch, and dinner.'
p502
sg3
(I1
I1
I1
tp503
sg5
S'Potato'
p504
sg16
S'Potato.jpg'
p505
sg18
g49
sg19
I5
sg20
g58
sbsS'shampoo'
p506
(iGameClasses
Equipment
p507
(dp508
g12
S'Yeah, I could use a shower...'
p509
sg3
(I4
I0
I3
tp510
sg5
S'Shampoo'
p511
sg16
S'Shampoo.jpg'
p512
sg18
g49
sg19
g66
sg20
g368
sbsS'candlestick'
p513
(iGameClasses
Equipment
p514
(dp515
g12
S'Lumiere is up to no good.'
p516
sg3
(I7
I0
I5
tp517
sg5
S'Candlestick'
p518
sg16
S'Candlestick.jpg'
p519
sg18
g30
sg19
g66
sg20
(I4
I0
I0
tp520
sbsS'gamma glove'
p521
(iGameClasses
Equipment
p522
(dp523
g12
S'Shorter than it really is due to length contraction, one of the 3 Quantum Relics'
p524
sg3
(I250
I100
I20
tp525
sg5
S'Gamma Glove'
p526
sg16
S'GammaGauntlet.jpg'
p527
sg18
g30
sg19
g66
sg20
g58
sbsS'clean needle'
p528
(iGameClasses
Equipment
p529
(dp530
g12
S"No more spreadin' disease!"
p531
sg3
(I9
I0
I9
tp532
sg5
S'Clean Needle'
p533
sg16
S'CleanNeedle.jpg'
p534
sg18
g30
sg19
g66
sg20
g58
sbsS'laser safety glasses'
p535
(iGameClasses
Equipment
p536
(dp537
g12
S'Protection from the UV, my dude.'
p538
sg3
(I0
I3
I5
tp539
sg5
S'Laser Safety Glasses'
p540
sg16
S'LSGlasses.jpg'
p541
sg18
g22
sg19
g66
sg20
(I1
I6
I0
tp542
sbsS'goggles'
p543
(iGameClasses
Equipment
p544
(dp545
g12
S'Got PPE?'
p546
sg3
(I2
I0
I2
tp547
sg5
S'Goggles'
p548
sg16
S'Goggles.jpg'
p549
sg18
g22
sg19
g66
sg20
(I3
I2
I1
tp550
sbsS'priceless painting'
p551
(iGameClasses
Equipment
p552
(dp553
g12
S'This painting is supposed to be worth millions...'
p554
sg3
(I1
I10
I5
tp555
sg5
S'Priceless Painting'
p556
sg16
S'Painting.jpg'
p557
sg18
g49
sg19
g66
sg20
(I3
I0
I1
tp558
sbsS'paint brush'
p559
(iGameClasses
Equipment
p560
(dp561
g12
S'You can feel the emotions of a failed arts student coursing through this thing.'
p562
sg3
(I5
I0
I5
tp563
sg5
S'Paint Brush'
p564
sg16
S'Brush.jpg'
p565
sg18
g49
sg19
g66
sg20
(I3
I1
I1
tp566
sbsS'old candle'
p567
(iGameClasses
Equipment
p568
(dp569
g12
S"Seems like it's had some use."
p570
sg3
(I0
I2
I2
tp571
sg5
S'Old Candle'
p572
sg16
S'OldCandle.jpg'
p573
sg18
g49
sg19
g66
sg20
(I2
I0
I0
tp574
sbsS"haugen's clothes"
p575
(iGameClasses
Equipment
p576
(dp577
g12
S'OH My. The clothes of the gentle dolphin now gone.\nFeels kinda wet.'
p578
sg3
(I5
I10
I10
tp579
sg5
S"Haugen's Clothes"
p580
sg16
S'HaugenShirt.jpg'
p581
sg18
g9
sg19
I10
sg20
g58
sbsS'3w textbook'
p582
(iGameClasses
Equipment
p583
(dp584
g12
S'Text book that probably has useful information if you could read it. Too bad it has never been in the QT'
p585
sg3
(I5
I5
I10
tp586
sg5
S'3W Textbook'
p587
sg16
S'3WText.jpg'
p588
sg18
g49
sg19
g66
sg20
g58
sbsS'fireball hat'
p589
(iGameClasses
Equipment
p590
(dp591
g12
S"Kind of like the hat you bought in first year and thought you'd wear forever..."
p592
sg3
(I0
I3
I1
tp593
sg5
S'Fireball Hat'
p594
sg16
S'EngHat.jpg'
p595
sg18
g22
sg19
g66
sg20
(I2
I2
I1
tp596
sbsS'raybans'
p597
(iGameClasses
Equipment
p598
(dp599
g12
S'GQ Teen says Raybans, Board Shorts, Vans, and a Muscle Tee.'
p600
sg3
(I0
I1
I3
tp601
sg5
S'Raybans'
p602
sg16
S'Raybans.jpg'
p603
sg18
g22
sg19
g66
sg20
(I5
I5
I1
tp604
sbsS'pee bottle'
p605
(iGameClasses
Equipment
p606
(dp607
g12
S'It is literally a bottle of urine.'
p608
sg3
(I4
I0
I0
tp609
sg5
S'Pee Bottle'
p610
sg16
S'PeeBottle.jpg'
p611
sg18
g30
sg19
g66
sg20
g285
sbsS'huge shirt'
p612
(iGameClasses
Equipment
p613
(dp614
g12
S'This shirt is WAY too big'
p615
sg3
(I0
I5
I5
tp616
sg5
S'Huge Shirt'
p617
sg16
S'HugeShirt.jpg'
p618
sg18
g9
sg19
g66
sg20
g58
sbsS'joint of destiny'
p619
(iGameClasses
Equipment
p620
(dp621
g12
S"A tighly rolled spliff filled with Devil's lettuce... for real."
p622
sg3
(I420
I420
I420
tp623
sg5
S'Joint of Destiny'
p624
sg16
S'Joint.jpg'
p625
sg18
g49
sg19
g66
sg20
g58
sbsS'tony hawk shirt'
p626
(iGameClasses
Equipment
p627
(dp628
g12
S'A shirt personally made by tony hawk!'
p629
sg3
(I5
I5
I5
tp630
sg5
S'Tony Hawk Shirt'
p631
sg16
S'TonyHAwkShirt.jpg'
p632
sg18
g9
sg19
g66
sg20
g97
sbsS"phil's braces"
p633
(iGameClasses
Equipment
p634
(dp635
g12
S'Bark AND the bite.'
p636
sg3
(I3
I2
I1
tp637
sg5
S"Phil's Braces"
p638
sg16
S'PhilBraces.jpg'
p639
sg18
g22
sg19
g66
sg20
(I2
I5
I0
tp640
sbsS"kenrick's oscilloscope"
p641
(iGameClasses
Equipment
p642
(dp643
g12
S'The window into the electronics world...'
p644
sg3
(I0
I150
I50
tp645
sg5
S"Kenrick's Oscilloscope"
p646
sg16
S'Oscilloscope.jpg'
p647
sg18
g49
sg19
g66
sg20
g58
sbsS'femtosecond laser'
p648
(iGameClasses
Equipment
p649
(dp650
g12
S"Haugen's personal femtosecond laser."
p651
sg3
(I125
I0
I999
tp652
sg5
S'Femtosecond Laser'
p653
sg16
S'Laser.jpg'
p654
sg18
g30
sg19
g66
sg20
g58
sbsS'cricket'
p655
(iGameClasses
Equipment
p656
(dp657
g12
S'Makes the sound commonly heard at 2W lectures.'
p658
sg3
(I1
I1
I1
tp659
sg5
S'Cricket'
p660
sg16
S'Cricket.jpg'
p661
sg18
g49
sg19
I3
sg20
(I3
I4
I2
tp662
sbsS'flux capacitor'
p663
(iGameClasses
Equipment
p664
(dp665
g12
S'If only I could go back to 1985...'
p666
sg3
(I1
I1
I1
tp667
sg5
S'Flux Capacitor'
p668
sg16
S'FluxCapacitor.jpg'
p669
sg18
g30
sg19
g66
sg20
g58
sbsS'okons chainmail'
p670
(iGameClasses
Equipment
p671
(dp672
g12
S'The sacred chainmail forged by the legend himself'
p673
sg3
(I25
I50
I25
tp674
sg5
S'Okons Chainmail'
p675
sg16
S'OkonMail.jpg'
p676
sg18
g9
sg19
g66
sg20
(I0
I2
I0
tp677
sbsS'hazmat suit'
p678
(iGameClasses
Equipment
p679
(dp680
g12
S'Protection from all sorts of McCrindle farts...'
p681
sg3
(I0
I10
I5
tp682
sg5
S'Hazmat Suit'
p683
sg16
S'Hazmat.jpg'
p684
sg18
g9
sg19
g66
sg20
(I2
I5
I1
tp685
sbsS'pizza box'
p686
(iGameClasses
Equipment
p687
(dp688
g12
S'Fully equipped with crusted cheese.'
p689
sg3
(I1
I5
I1
tp690
sg5
S'Pizza Box'
p691
sg16
S'PizzaBox.jpg'
p692
sg18
g9
sg19
g66
sg20
(I0
I3
I1
tp693
sbsS'tire iron'
p694
(iGameClasses
Equipment
p695
(dp696
g12
S'Is this even a real tool? Or just a murder weapon...'
p697
sg3
(I11
I0
I3
tp698
sg5
S'Tire Iron'
p699
sg16
S'TireIron.jpg'
p700
sg18
g30
sg19
g66
sg20
g50
sbsS'ukelele'
p701
(iGameClasses
Equipment
p702
(dp703
g12
S'Wasting away again in Margaritaville...'
p704
sg3
(I6
I0
I5
tp705
sg5
S'Ukelele'
p706
sg16
S'Ukelele.jpg'
p707
sg18
g30
sg19
g66
sg20
(I4
I4
I1
tp708
sbsS'fanny pack'
p709
(iGameClasses
Equipment
p710
(dp711
g12
S'Made for style. Not for carrying.'
p712
sg3
(I3
I8
I15
tp713
sg5
S'Fanny Pack'
p714
sg16
S'FannyPack.jpg'
p715
sg18
g9
sg19
g66
sg20
g58
sbsS"einstein's brain"
p716
(iGameClasses
Equipment
p717
(dp718
g12
S"Feel's kind of weird walking around with this..."
p719
sg3
(I1
I1
I1
tp720
sg5
S"Einstein's Brain"
p721
sg16
S'Brain.jpg'
p722
sg18
g49
sg19
I10
sg20
g58
sbsS"brendan fallon's lunchbox"
p723
(iGameClasses
Equipment
p724
(dp725
g12
S'The Lunch Box of an Ancient Hero. Full of samosas'
p726
sg3
(I5
I10
I5
tp727
sg5
S"Brendan Fallon's Lunchbox"
p728
sg16
S'Lunchbox.jpg'
p729
sg18
g49
sg19
g66
sg20
(I3
I4
I0
tp730
sbsS'eng phys usb pen'
p731
(iGameClasses
Equipment
p732
(dp733
g12
S'It would be amazing if this thing actually worked.\nIf I had a laptop I could plug it in and find all of 2P04.'
p734
sg3
(I5
I0
I5
tp735
sg5
S'Eng Phys USB Pen'
p736
sg16
S'PhysPen.jpg'
p737
sg18
g30
sg19
g66
sg20
g58
sbsS'ambifacient lunar waneshaft'
p738
(iGameClasses
Equipment
p739
(dp740
g12
S'The design consists simply of six hydrocoptic marzlevanes,\nthey fit to the ambifacient lunar waneshaft so that side fumbling is effectively prevented'
p741
sg3
(I1
I1
I1
tp742
sg5
S'Ambifacient Lunar Waneshaft'
p743
sg16
S'Dumbness.jpg'
p744
sg18
g49
sg19
g66
sg20
g58
sbsS'space pop'
p745
(iGameClasses
Equipment
p746
(dp747
g12
S'Get ready to go to space pop city.'
p748
sg3
(I4
I0
I10
tp749
sg5
S'Space Pop'
p750
sg16
S'SpacePop.jgp'
p751
sg18
g30
sg19
I1
sg20
(I1
I7
I2
tp752
sbsS'hockey pads'
p753
(iGameClasses
Equipment
p754
(dp755
g12
S"IM NOT WEARIN' HOCKEY PADS!"
p756
sg3
(I3
I13
I5
tp757
sg5
S'Hockey Pads'
p758
sg16
S'HockeyPads.jpg'
p759
sg18
g9
sg19
g66
sg20
g50
sbsS'pink donut'
p760
(iGameClasses
Equipment
p761
(dp762
g12
S'This is what fusion is all about?'
p763
sg3
(I1
I1
I1
tp764
sg5
S'Pink Donut'
p765
sg16
S'PinkDonut.jpg'
p766
sg18
g49
sg19
I2
sg20
g58
sbsS'relativistic key'
p767
(iGameClasses
Equipment
p768
(dp769
g12
S'You can feel the power radiating from this thing.'
p770
sg3
(I1
I1
I1
tp771
sg5
S'Relativistic Key'
p772
sg16
S'Relativistickey.jpg'
p773
sg18
g30
sg19
g66
sg20
g58
sbsS'stylish watch'
p774
(iGameClasses
Equipment
p775
(dp776
g12
S'If only you learned how to tell time on an analog clock...'
p777
sg3
(I0
I15
I20
tp778
sg5
S'Stylish Watch'
p779
sg16
S'watch.jpg'
p780
sg18
g49
sg19
g66
sg20
g58
sbsS'solar ray'
p781
(iGameClasses
Equipment
p782
(dp783
g12
S'The literal power of the Sun!'
p784
sg3
(I100
I20
I50
tp785
sg5
S'Solar Ray'
p786
sg16
S'SolarRay.jpg'
p787
sg18
g30
sg19
g66
sg20
g58
sbsS'starbucks apron'
p788
(iGameClasses
Equipment
p789
(dp790
g12
S'If you put this on do you immediately know how to make a frappe?'
p791
sg3
(I1
I5
I5
tp792
sg5
S'Starbucks Apron'
p793
sg16
S'Apron.jpg'
p794
sg18
g9
sg19
g66
sg20
g136
sbsS'maroon jumpsuit'
p795
(iGameClasses
Equipment
p796
(dp797
g12
S'Overalls of the Maroons'
p798
sg3
(I1
I8
I5
tp799
sg5
S'Maroon Jumpsuit'
p800
sg16
S'MaroonSuit.jpg'
p801
sg18
g9
sg19
g66
sg20
(I5
I1
I1
tp802
sbsS'needa pita'
p803
(iGameClasses
Equipment
p804
(dp805
g12
S'Better have gotten black olives on that'
p806
sg3
(I2
I0
I1
tp807
sg5
S'Needa Pita'
p808
sg16
S'Pita.jpg'
p809
sg18
g30
sg19
I5
sg20
(I4
I6
I1
tp810
sbsS'lamp'
p811
(iGameClasses
Equipment
p812
(dp813
g12
S'I love lamp.'
p814
sg3
(I8
I0
I4
tp815
sg5
S'Lamp'
p816
sg16
S'Lamp.jpg'
p817
sg18
g30
sg19
g66
sg20
(I0
I5
I1
tp818
sbsS'redsuit'
p819
(iGameClasses
Equipment
p820
(dp821
g12
S'Overalls of drunks... I mean engineers'
p822
sg3
(I5
I5
I5
tp823
sg5
S'Redsuit'
p824
sg16
S'Redsuit.jpg'
p825
sg18
g9
sg19
g66
sg20
(I2
I4
I2
tp826
sbsS'cold beer'
p827
(iGameClasses
Equipment
p828
(dp829
g12
S'A freshly brewed pint from Andy Knights himself.'
p830
sg3
(I15
I0
I20
tp831
sg5
S'Cold Beer'
p832
sg16
S'ColdBeer.jpg'
p833
sg18
g49
sg19
I2
sg20
g58
sbsS'eng phys shirt'
p834
(iGameClasses
Equipment
p835
(dp836
g12
S'Rolling Rock baby! Premium Stream my ass... More like premium pain...'
p837
sg3
(I0
I7
I5
tp838
sg5
S'Eng Phys Shirt'
p839
sg16
S'EngPhysShirt.jpg'
p840
sg18
g9
sg19
g66
sg20
g730
sbsS'pvc pipe'
p841
(iGameClasses
Equipment
p842
(dp843
g12
S'Probably part of a PID project...'
p844
sg3
(I9
I2
I10
tp845
sg5
S'PVC Pipe'
p846
sg16
S'PVCPipe.jpg'
p847
sg18
g30
sg19
g66
sg20
(I4
I7
I1
tp848
sbsS'couch cushion'
p849
(iGameClasses
Equipment
p850
(dp851
g12
S'I hope I find I pillow fight.'
p852
sg3
(I4
I10
I1
tp853
sg5
S'Couch Cushion'
p854
sg16
S'CCushion.jpg'
p855
sg18
g49
sg19
g66
sg20
g324
sbsS'fake gun'
p856
(iGameClasses
Equipment
p857
(dp858
g12
S'Is this seriously what at the MAC cops carry...'
p859
sg3
(I5
I0
I5
tp860
sg5
S'Fake Gun'
p861
sg16
S'FakeGun.jpg'
p862
sg18
g30
sg19
g66
sg20
g58
sbsS'iron ring'
p863
(iGameClasses
Equipment
p864
(dp865
g12
S'The One Ring to Rule them ALL.'
p866
sg3
(I1000
I1000
I1000
tp867
sg5
S'Iron Ring'
p868
sg16
S'IronRing.jpg'
p869
sg18
g30
sg19
I-1000
sg20
g58
sbsS"minnick's glasses"
p870
(iGameClasses
Equipment
p871
(dp872
g12
S'The spectacles of a wizard from the High Order of the Ancient Council.'
p873
sg3
(I100
I100
I100
tp874
sg5
S"Minnick's Glasses"
p875
sg16
S'MinnickGlasses.jpg'
p876
sg18
g22
sg19
g66
sg20
g58
sbsS'frisbee'
p877
(iGameClasses
Equipment
p878
(dp879
g12
S'Look at the flick of the wrist!'
p880
sg3
(I3
I0
I5
tp881
sg5
S'Frisbee'
p882
sg16
S'Frisbee.jpg'
p883
sg18
g30
sg19
g66
sg20
g596
sbsS'butter knife'
p884
(iGameClasses
Equipment
p885
(dp886
g12
S'Meant for spreading, not stabbing...'
p887
sg3
(I4
I0
I5
tp888
sg5
S'Butter Knife'
p889
sg16
S'ButterKnife.jpg'
p890
sg18
g30
sg19
g66
sg20
g810
sbsS'guitar'
p891
(iGameClasses
Equipment
p892
(dp893
g12
S'Monster Mash.'
p894
sg3
(I10
I3
I5
tp895
sg5
S'Guitar'
p896
sg16
S'Guitar.jpg'
p897
sg18
g30
sg19
g66
sg20
g58
sbsS'old headphones'
p898
(iGameClasses
Equipment
p899
(dp900
g12
S'Old frayed apple headphones. Good for whipping.'
p901
sg3
(I5
I0
I5
tp902
sg5
S'Old Headphones'
p903
sg16
S'OldHeadphones.jpg'
p904
sg18
g30
sg19
g66
sg20
(I1
I5
I1
tp905
sbsS'old car keys'
p906
(iGameClasses
Equipment
p907
(dp908
g12
S'Fun for babies. Not for Batman.'
p909
sg3
(I7
I0
I15
tp910
sg5
S'Old Car Keys'
p911
sg16
g241
sg18
g30
sg19
g66
sg20
g447
sbsS'hulk hands'
p912
(iGameClasses
Equipment
p913
(dp914
g12
S'These pack a serious punch...'
p915
sg3
(I15
I5
I20
tp916
sg5
S'Hulk Hands'
p917
sg16
S'HulkHands.jpg'
p918
sg18
g30
sg19
g66
sg20
g89
sbsS'old ladder'
p919
(iGameClasses
Equipment
p920
(dp921
g12
S'Pretty rickety but would work for climbing.'
p922
sg3
(I14
I8
I-15
tp923
sg5
S'Old Ladder'
p924
sg16
S'OldLadder.jpg'
p925
sg18
g49
sg19
g66
sg20
(I0
I7
I1
tp926
sbsS'goldfish'
p927
(iGameClasses
Equipment
p928
(dp929
g12
S'Fun fact, not made of real gold.'
p930
sg3
(I1
I1
I1
tp931
sg5
S'Goldfish'
p932
sg16
S'Goldfish.jpg'
p933
sg18
g49
sg19
I4
sg20
g176
sbsS"frank's red hot"
p934
(iGameClasses
Equipment
p935
(dp936
g12
S'I put that...'
p937
sg3
(I3
I0
I2
tp938
sg5
S"Frank's Red Hot"
p939
sg16
S'FranksRed.jpg'
p940
sg18
g49
sg19
I1
sg20
(I0
I4
I1
tp941
sbsS'silicon substrate'
p942
(iGameClasses
Equipment
p943
(dp944
g12
S'A bulk silicon wafer.'
p945
sg3
(I1
I1
I1
tp946
sg5
S'Silicon Substrate'
p947
sg16
S'Substrate.jpg'
p948
sg18
g49
sg19
g66
sg20
(I0
I3
I2
tp949
sbsS"faraday's cage"
p950
(iGameClasses
Equipment
p951
(dp952
g12
S'Faraday cage.'
p953
sg3
(I20
I75
I15
tp954
sg5
S"Faraday's Cage"
p955
sg16
S'Faraday.jpg'
p956
sg18
g22
sg19
g66
sg20
g58
sbsS'rusty key'
p957
(iGameClasses
Equipment
p958
(dp959
g12
S"You can just about read:\n'By the building where the smallest are seen.'\n'This key will provide for those who are keen'"
p960
sg3
(I1
I1
I1
tp961
sg5
S'Rusty Key'
p962
sg16
S'RustyKey.jpg'
p963
sg18
g49
sg19
g66
sg20
g58
sbsS'wood shield'
p964
(iGameClasses
Equipment
p965
(dp966
g12
S'An old wooden shield used in a play, you think...'
p967
sg3
(I5
I20
I-5
tp968
sg5
S'Wood Shield'
p969
sg16
S'Shield.jpg'
p970
sg18
g49
sg19
g66
sg20
g433
sbsS'paper towels'
p971
(iGameClasses
Equipment
p972
(dp973
g12
S"WHERE'S THE PAPER TOWELS?"
p974
sg3
(I2
I0
I1
tp975
sg5
S'Paper Towels'
p976
sg16
S'PaperTowels.jpg'
p977
sg18
g49
sg19
g66
sg20
(I0
I5
I2
tp978
sbsS'engineering mug'
p979
(iGameClasses
Equipment
p980
(dp981
g12
S'Do people even have these anymore?'
p982
sg3
(I1
I0
I2
tp983
sg5
S'Engineering Mug'
p984
sg16
S'EngMug.jpg'
p985
sg18
g30
sg19
g66
sg20
g58
sbsS'blazer'
p986
(iGameClasses
Equipment
p987
(dp988
g12
S'Styyyyyylishhhhhh'
p989
sg3
(I0
I4
I1
tp990
sg5
S'Blazer'
p991
sg16
S'Blazer.jpg'
p992
sg18
g9
sg19
g66
sg20
(I5
I6
I1
tp993
sbsS'high vis vest'
p994
(iGameClasses
Equipment
p995
(dp996
g12
S'Safety first, folks.'
p997
sg3
(I0
I5
I3
tp998
sg5
S'High Vis Vest'
p999
sg16
S'HighVis.jpg'
p1000
sg18
g9
sg19
g66
sg20
(I2
I6
I1
tp1001
sbsS'big hits shirt'
p1002
(iGameClasses
Equipment
p1003
(dp1004
g12
S'The Shirt of the Hero of Kyvach!'
p1005
sg3
(I10
I5
I5
tp1006
sg5
S'Big Hits Shirt'
p1007
sg16
S'BigHits.jpg'
p1008
sg18
g9
sg19
g66
sg20
g89
sbsS'jar of mayo'
p1009
(iGameClasses
Equipment
p1010
(dp1011
g12
S'Is mayonaise an instrument?'
p1012
sg3
(I3
I0
I5
tp1013
sg5
S'Jar of Mayo'
p1014
sg16
S'Mayo.jpg'
p1015
sg18
g49
sg19
I1
sg20
g144
sbsS'holy bible'
p1016
(iGameClasses
Equipment
p1017
(dp1018
g12
S'King James version...'
p1019
sg3
(I3
I0
I3
tp1020
sg5
S'Holy Bible'
p1021
sg16
S'Bible.jpg'
p1022
sg18
g49
sg19
g66
sg20
(I2
I0
I1
tp1023
sbsS'griffiths electrodynamics'
p1024
(iGameClasses
Equipment
p1025
(dp1026
g12
S'The holy scriptures which govern the fabric of our being'
p1027
sg3
(I0
I10
I5
tp1028
sg5
S'Griffiths Electrodynamics'
p1029
sg16
S'Griffiths.jpg'
p1030
sg18
g49
sg19
g66
sg20
g826
sbsS'skateboard'
p1031
(iGameClasses
Equipment
p1032
(dp1033
g12
S'Cowabunga, dude.'
p1034
sg3
(I9
I0
I10
tp1035
sg5
S'Skateboard'
p1036
sg16
S'Skateboard.jpg'
p1037
sg18
g30
sg19
g66
sg20
(I0
I0
I0
tp1038
sbsS'diary of the fallen'
p1039
(iGameClasses
Equipment
p1040
(dp1041
g12
S'The personal notes of an ancient Hero.'
p1042
sg3
(I25
I20
I30
tp1043
sg5
S'Diary of the Fallen'
p1044
sg16
S'Diary.jpg'
p1045
sg18
g49
sg19
g66
sg20
g677
sbsS'green lantern shirt'
p1046
(iGameClasses
Equipment
p1047
(dp1048
g12
S'Darkest day... Darkest night...'
p1049
sg3
(I15
I15
I10
tp1050
sg5
S'Green Lantern Shirt'
p1051
sg16
S'GLShirt.jpg'
p1052
sg18
g9
sg19
g66
sg20
g58
sbsS'dirty needle'
p1053
(iGameClasses
Equipment
p1054
(dp1055
g12
S"This isn't clean. Someone find me a SharpXchange!"
p1056
sg3
(I7
I0
I5
tp1057
sg5
S'Dirty Needle'
p1058
sg16
S'Needle.jpg'
p1059
sg18
g30
sg19
g66
sg20
g941
sbsS'willy dog'
p1060
(iGameClasses
Equipment
p1061
(dp1062
g12
S'Definitely not vegan'
p1063
sg3
(I1
I0
I2
tp1064
sg5
S'Willy Dog'
p1065
sg16
S'Hotdog.jpg'
p1066
sg18
g30
sg19
I5
sg20
g160
sbsS'crucifix'
p1067
(iGameClasses
Equipment
p1068
(dp1069
g12
S'The Power of Chirst compels you!'
p1070
sg3
(I10
I0
I10
tp1071
sg5
S'Crucifix'
p1072
sg16
S'Crucifix.jpg'
p1073
sg18
g30
sg19
g66
sg20
g58
sbsS'wrench'
p1074
(iGameClasses
Equipment
p1075
(dp1076
g12
S"It's a wrench. 22mm."
p1077
sg3
(I9
I0
I2
tp1078
sg5
S'Wrench'
p1079
sg16
S'Wrench.jpg'
p1080
sg18
g30
sg19
g66
sg20
(I1
I3
I1
tp1081
sbsS'capstone tools'
p1082
(iGameClasses
Equipment
p1083
(dp1084
g12
S"Shouldn't the 4A06 students be using these?"
p1085
sg3
(I1
I1
I1
tp1086
sg5
S'Capstone Tools'
p1087
sg16
S'CapTools.jpg'
p1088
sg18
g49
sg19
g66
sg20
g58
sbsS'wool sweater'
p1089
(iGameClasses
Equipment
p1090
(dp1091
g12
S'Just like grandma makes.'
p1092
sg3
(I1
I4
I6
tp1093
sg5
S'Wool Sweater'
p1094
sg16
S'WoolSweater.jpg'
p1095
sg18
g9
sg19
g66
sg20
g270
sbsS'solar cell'
p1096
(iGameClasses
Equipment
p1097
(dp1098
g12
S"Harness the power of the Sun!\nI really hope I don't drop this..."
p1099
sg3
(I1
I1
I1
tp1100
sg5
S'Solar Cell'
p1101
sg16
S'SolarCell.jpg'
p1102
sg18
g49
sg19
g66
sg20
g58
sbsa((lp1103
(lp1104
(iGameClasses
Map
p1105
(dp1106
g12
S'PARKING GARAGE:\nYou can only go back up to the Hospital.'
p1107
sS'ENEMY'
p1108
(lp1109
(iGameClasses
Enemy
p1110
(dp1111
g12
S"'Check out this tre flip, pretty tight eh?'"
p1112
sg3
(I15
I15
I40
tp1113
sg5
S'Erik the Sk8r'
p1114
sS'drop'
p1115
S"erik's frosted tips"
p1116
sg37
I01
sS'item'
p1117
NsS'quest'
p1118
I00
sg19
I20
sg20
g1038
sS'need'
p1119
Nsg40
I00
sS'Sinfo'
p1120
g66
sS'Dinfo'
p1121
S"Man, that's dumb!"
p1122
sbasg5
S'Parking Garage'
p1123
sS'items'
p1124
(lp1125
g1032
asS'interact'
p1126
(lp1127
sS'walls'
p1128
(S'f'
p1129
S'b'
p1130
S'l'
p1131
S'r'
p1132
S'd'
p1133
tp1134
sS'coords'
p1135
g1038
sS'lore'
p1136
S'The smooth floor down here makes an excellent skate surface.\nRad.\nIf only you learned how to kickflip.'
p1137
sS'travelled'
p1138
I1
sS'inside'
p1139
I01
sba(iGameClasses
Map
p1140
(dp1141
g12
S'HOSPITAL EAST WING:\nIn front of you is the West Wing. MDCL is to your right.\nThe Parking Garage is below you.'
p1142
sg1108
(lp1143
sg5
S'East Hospital'
p1144
sg1124
(lp1145
g477
ag362
ag507
asg1126
(lp1146
sg1128
(g1131
g1130
tp1147
sg1135
g368
sg1136
S'You smile as you overhear a conversation between a doctor and a family.\nTurns out their child is going to make a full recovery.\nThanks science.'
p1148
sg1138
I1
sg1139
I01
sbaNaNaa(lp1149
Na(iGameClasses
Map
p1150
(dp1151
g12
S'HOSPITAL WEST WING:\nIn front of your is T-13. To your right is the Health Sci Library.\nThe East Wing of the Hospital is behind you.\nYou can go upstairs.'
p1152
sg1108
(lp1153
sg5
S'West Hospital'
p1154
sg1124
(lp1155
g99
a(iGameClasses
Interact
p1156
(dp1157
g12
S'Would you like to exchange a needle?'
p1158
sg5
S'SharpXChange'
p1159
sg1115
S'clean needle'
p1160
sg1118
I00
sg20
g105
sg1119
S'dirty needle'
p1161
sg1120
S'Needle Accepted!'
p1162
sbasg1126
(lp1163
sg1128
g1131
sg1135
g105
sg1136
S"Doctors and Nurses rush around you.\nYou remember why you didn't want to become a doctor as you\nnearly faint looking at a patient's paper cut in the waiting room.\nAfter a drink from the water fountain you plan what to do."
p1164
sg1138
I1
sg1139
I01
sba(iGameClasses
Map
p1165
(dp1166
g12
S'2ND FLOOR W WING:\nYou can only go back down the stairs.'
p1167
sg1108
(lp1168
(iGameClasses
Enemy
p1169
(dp1170
g12
S"'Are you interested in a research position?'"
p1171
sg3
(I100
I100
I100
tp1172
sg5
S'Dr. Soleymani'
p1173
sg1115
S"einstein's brain"
p1174
sg37
I01
sg1117
Nsg1118
I00
sg19
I75
sg20
(I0
I1
I2
tp1175
sg1119
Nsg40
I00
sg1120
g66
sg1121
S'NOOO! The Dark Lord will never forgive me!'
p1176
sbasg5
S'2nd Floor W Wing'
p1177
sg1124
(lp1178
sg1126
(lp1179
sg1128
(g1129
g1130
g1131
g1132
S'u'
p1180
tp1181
sg1135
g1175
sg1136
S"The endless number of rooms are mesmerizing.\nYou don't even know which way to go.\nAfter being lost for 2 hours you circle back to where you entered."
p1182
sg1138
I1
sg1139
I01
sbaNaa(lp1183
(iGameClasses
Map
p1184
(dp1185
g12
S'SECRET ROOM!:\nGo up to climb out.'
p1186
sg1108
(lp1187
sg5
S'Secret Trapdoor!'
p1188
sg1124
(lp1189
g671
ag1040
asg1126
(lp1190
sg1128
(g1129
g1130
g1131
g1132
g1133
tp1191
sg1135
g677
sg1136
S'You uncover a trapdoor after pulling up a loose floor tile.\nUpon descending you see stacks of failed midterms and assorted books all around you.\nA suit of armor and a chainmail flag with a skull on it are barely visible.\nWho made this place anyway?'
p1192
sg1138
I1
sg1139
I01
sba(iGameClasses
Map
p1193
(dp1194
g12
S'T-13:\nETB is in front of you. The McMaster Map is to your right.\nThe West Wing of the Hospital is behind you.'
p1195
sg1108
(lp1196
sg5
S'T-13'
p1197
sg1124
(lp1198
g1010
ag138
asg1126
(lp1199
sg1128
(lp1200
g1131
ag1133
asg1135
g144
sg1136
S"How many bad invigilators does it take to screw in a light bulb?\nI'm not sure but they took my damn Casio FX-911+C..."
p1201
sg1138
I1
sg1139
I01
sbaNaNaa(lp1202
(iGameClasses
Map
p1203
(dp1204
g12
S'ETB BASEMENT:\nYou can only go back up to the main floor.'
p1205
sg1108
(lp1206
sg5
S'ETB Basement'
p1207
sg1124
(lp1208
g913
asg1126
(lp1209
sg1128
(g1129
g1130
g1131
g1132
g1133
tp1210
sg1135
(I0
I3
I0
tp1211
sg1136
S'After getting lost in a maze of corridors and locked rooms you stumble\nacross a door that is slightly ajar.\nYou open the door to reveal a rather small dark room.\nYou flick on the light switch.'
p1212
sg1138
I1
sg1139
I01
sba(iGameClasses
Map
p1213
(dp1214
g12
S'ETB:\nTo your right is the Hatch Building. An alleyway is in front of you.\nT-13 is behind you. You can also go upstairs.'
p1215
sg1108
(lp1216
(iGameClasses
Enemy
p1217
(dp1218
g12
S"'Hey, I saw your picture on Instagram!'\n'They let you get away with doing that to the Willy McMaster statue?'"
p1219
sg3
(I10
I5
I10
tp1220
sg5
S'Mitch the TA'
p1221
sg1115
S'phone'
p1222
sg37
I01
sg1117
Nsg1118
I00
sg19
I25
sg20
g693
sg1119
Nsg40
I00
sg1120
g66
sg1121
S"There's my phone."
p1223
sbasg5
S'ETB'
p1224
sg1124
(lp1225
g687
asg1126
(lp1226
sg1128
g1131
sg1135
g693
sg1136
S'The memories of actually doing something in first year flood your mind.\nGear trains. Python. 3D printing.\nEngineering had such a different meaning in your first year...\nYou plan your next move.'
p1227
sg1138
I1
sg1139
I01
sba(iGameClasses
Map
p1228
(dp1229
g12
S'2ND FLOOR ETB:\nYou can only go back down the stairs.'
p1230
sg1108
(lp1231
sg5
S'2nd Floor ETB'
p1232
sg1124
(lp1233
g943
asg1126
(lp1234
sg1128
(g1129
g1130
g1131
g1132
g1180
tp1235
sg1135
g949
sg1136
S'You realize you really have never come up here.\nYou see 4th year Eng Phys students hurry out of a long-winded lecture.\nAfter picking a booger.\nYou plan your next move.'
p1236
sg1138
I1
sg1139
I01
sbaNaa(lp1237
Na(iGameClasses
Map
p1238
(dp1239
g12
S'ALLEY:\nITB is in front of you. ETB is behind you.\nYou can enter Hatch to your right.'
p1240
sg1108
(lp1241
sg5
S'Alley'
p1242
sg1124
(lp1243
g1054
ag935
asg1126
(lp1244
sg1128
g1131
sg1135
g941
sg1136
S'As you head down the narrow path between ITB and ETB you hear car horns blaring down Main Street.\nYou gather up some trash and put it in a garbage can like a good McMasterian.\nThen plan your next move.'
p1245
sg1138
I1
sg1139
I00
sbaNaNaa(lp1246
(iGameClasses
Map
p1247
(dp1248
g12
S'ITB BASEMENT:\nYou can only go back up to the main floor.'
p1249
sg1108
(lp1250
(iGameClasses
Enemy
p1251
(dp1252
g12
S"'Huge talking to people play.'"
p1253
sg3
(I20
I15
I20
tp1254
sg5
S'Eric the Baller'
p1255
sg1115
S'cold steel katana'
p1256
sg37
I01
sg1117
Nsg1118
I00
sg19
I50
sg20
(I0
I5
I0
tp1257
sg1119
Nsg40
I00
sg1120
g66
sg1121
S'This is sub-optimal.'
p1258
sbasg5
S'ITB Basement'
p1259
sg1124
(lp1260
sg1126
(lp1261
sg1128
(g1129
g1130
g1131
g1132
g1133
tp1262
sg1135
g1257
sg1136
S"As if the upstairs floor plan wasn't bad enough...\nAfter another 3 hours wandering around you are back where you started\nand don't feel like you learned anything..."
p1263
sg1138
I1
sg1139
I01
sba(iGameClasses
Map
p1264
(dp1265
g12
S'ITB:\nJHE-Annex is to your right. Lot I is in front of you.\nAn alley is behind you. You can go up OR down the stairs.'
p1266
sg1108
(lp1267
(iGameClasses
Enemy
p1268
(dp1269
g12
S"'Hey brother, I really could use some Febreze.'"
p1270
sg3
(I20
I20
I20
tp1271
sg5
S'Paul the Janitor'
p1272
sg1115
S'bleach squirt bottle'
p1273
sg37
I01
sg1117
Nsg1118
I00
sg19
I20
sg20
g818
sg1119
S'febreze'
p1274
sg40
I00
sg1120
S'Rock on brother! Thanks so much!'
p1275
sg1121
S"NOOO, Now I can't go see Black Sabbath!"
p1276
sbasg5
S'ITB'
p1277
sg1124
(lp1278
g812
asg1126
(lp1279
sg1128
g1131
sg1135
g818
sg1136
S'McMaster, back at it again with the horrible floor plan.\nAfter getting lost for 5 hours you finally reach the lobby\nand decide what to do.'
p1280
sg1138
I1
sg1139
I01
sba(iGameClasses
Map
p1281
(dp1282
g12
S'2ND FLOOR ITB:\nYou can only go back down the stairs.'
p1283
sg1108
(lp1284
(iGameClasses
Enemy
p1285
(dp1286
g12
S"'My grand invention is almost complete...'"
p1287
sg3
(I100
I100
I100
tp1288
sg5
S'Dr. Nagasaki'
p1289
sg1115
S'flux capacitor'
p1290
sg37
I01
sg1117
Nsg1118
I00
sg19
I75
sg20
g978
sg1119
S'ambifacient lunar waneshaft'
p1291
sg40
I00
sg1120
S"'Yes!'\n'I have been looking for one exactly like that!'\n'Quicky, go to the basement of the Tandem Accelerator!'\n'The High Council is counting on you.'"
p1292
sg1121
S'NOOOO! NOW I WILL NEVER PLEASE THE DARK LORD!'
p1293
sbasg5
S'2nd Floor ITB'
p1294
sg1124
(lp1295
g972
asg1126
(lp1296
sg1128
(g1129
g1130
g1131
g1132
g1180
tp1297
sg1135
g978
sg1136
S"Walking around up here you don't find much other than lab benches with strange instruments.\nThis place gives you the impression that there must be some high level engineering physics going on..."
p1298
sg1138
I1
sg1139
I01
sbaNaa(lp1299
Na(iGameClasses
Map
p1300
(dp1301
g12
S'LOT I:\nABB is to your right. Cootes Drive is in front of you.\nITB is to your rear.'
p1302
sg1108
(lp1303
sg5
S'Lot I'
p1304
sg1124
(lp1305
g441
ag907
a(iGameClasses
Interact
p1306
(dp1307
g12
S"A red Dodge Avenger...\nPeering into the window you can't really see much."
p1308
sg5
S'Red Car'
p1309
sg1115
Nsg1118
I00
sg20
g447
sg1119
Nsg1120
S'N/A'
p1310
sba(iGameClasses
Interact
p1311
(dp1312
g12
S"A blue Ford Mustang...\nPeering into the window you can't really see much."
p1313
sg5
S'Blue Car'
p1314
sg1115
S'potato'
p1315
sg1118
I00
sg20
g447
sg1119
S'tire iron'
p1316
sg1120
S'You smash open the window with the tire iron, breaking it in the process.\nYou unlock and open the door...\nTo reveal a potato.'
p1317
sba(iGameClasses
Interact
p1318
(dp1319
g12
S"An old Datsun...\nPeering into the window you can't really see much."
p1320
sg5
S'Old Car'
p1321
sg1115
Nsg1118
I00
sg20
g447
sg1119
Nsg1120
g1310
sba(iGameClasses
Interact
p1322
(dp1323
g12
S"A new Volkswagen...\nPeering into the window you can't really see much."
p1324
sg5
S'New Car'
p1325
sg1115
S'bowling ball'
p1326
sg1118
I00
sg20
g447
sg1119
S'car keys'
p1327
sg1120
S'You open the car and rummage around.\nUnderneath one of the seats you find a bowling ball!'
p1328
sbasg1126
(lp1329
sg1128
g1131
sg1135
g447
sg1136
S"Nope, your car isn't here.\nMaybe you parked in Lot M? Maybe not.\nAfter scoffing at all of the prof Mercedes that are way too nice...\nYou think of what to do."
p1330
sg1138
I1
sg1139
I00
sbaNaNaa(lp1331
Na(iGameClasses
Map
p1332
(dp1333
g12
S'COOTES DRIVE:\nThode is to your right. Lot I is behind you.'
p1334
sg1108
(lp1335
sg5
S'Cootes Dr.'
p1336
sg1124
(lp1337
g920
asg1126
(lp1338
sg1128
(g1129
g1131
tp1339
sg1135
g926
sg1136
S'You notice a series of pickup trucks for what must be a landscaping or construction company.\nThere is construction gear spread all over the place.\nThe sound of sirens grows louder as an ambulance suddenly rushes by.\nYou collect yourself and consider what to do next.'
p1340
sg1138
I1
sg1139
I00
sbaNaNaa(lp1341
NaNaNaNaa(lp1342
(lp1343
Na(iGameClasses
Map
p1344
(dp1345
g12
S'MDCL:\nThe East Wing of the Hospital is to your left. Health Sci library is forward.'
p1346
sg1108
(lp1347
sg5
S'MDCL'
p1348
sg1124
(lp1349
g193
ag185
asg1126
(lp1350
sg1128
(g1130
g1132
tp1351
sg1135
g191
sg1136
S'After a solid 5 minutes of meditation in the reflection area.\nYou make your next decision feeling refreshed.'
p1352
sg1138
I1
sg1139
I01
sba(iGameClasses
Map
p1353
(dp1354
g12
S'CLIMBING MDCL:\nYou can continue climbing or go back down...'
p1355
sg1108
(lp1356
sg5
S'Climbing MDCL'
p1357
sg1124
(lp1358
sg1126
(lp1359
sg1128
(g1129
g1130
g1131
g1132
tp1360
sg1135
(I1
I0
I2
tp1361
sg1136
S'You struggle and find yourself on the outer wall of MDCL.'
p1362
sg1138
I1
sg1139
I01
sba(iGameClasses
Map
p1363
(dp1364
g12
S'MDCL Roof:\nYou can only go back down.'
p1365
sg1108
(lp1366
sg5
S'Roof of MDCL'
p1367
sg1124
(lp1368
(iGameClasses
Interact
p1369
(dp1370
g12
S"It's a mouse scurrying around...\nDid it just stare at you?"
p1371
sg5
S'Mouse'
p1372
sg1115
S'gilded blunderbuss'
p1373
sg1118
I00
sg20
(I1
I0
I3
tp1374
sg1119
S'cheese'
p1375
sg1120
S"The mouse rushes over and takes the cheese.\nIt runs into a small opening it has made in the roof of the building.\nIt returns with something in it's mouth!"
p1376
sbasg1126
(lp1377
sg1128
(g1129
g1130
g1131
g1132
g1180
tp1378
sg1135
g1374
sg1136
S'With all of your might you pull yourself up and onto the roof.\nYou can see the majority of campus from up here!'
p1379
sg1138
I1
sg1139
I00
sbaa(lp1380
Na(iGameClasses
Map
p1381
(dp1382
g12
S'HEALTH SCIENCES LIBRARY:\nIn front of you is the McMaster Map. To your right is the bus stop.\nMDCL is behind you. The Hospital West Wing is to your left.'
p1383
sg1108
(lp1384
sg5
S'Health Sciences Library'
p1385
sg1124
(lp1386
sg1126
(lp1387
sg1128
(tsg1135
(I1
I1
I1
tp1388
sg1136
S"You are constantly asked to be quiet even though you have yet to make a sound.\nAfter scanning the tables and see no one you recognize you take a seat\nin an armchair and stare out towards the centre of campus.\nYou daydream of a life where these study rooms weren't constantly full."
p1389
sg1138
I1
sg1139
I01
sbaNaNaa(lp1390
Na(iGameClasses
Map
p1391
(dp1392
g12
S'MCMASTER MAP:\nIn front of you lies the entrance to Hatch. To your right, JHE Field.\nTo your rear lies the Health Sci Library. T-13 is to your left.'
p1393
sg1108
(lp1394
sg5
S'Map of McMaster'
p1395
sg1124
(lp1396
(iGameClasses
Interact
p1397
(dp1398
g12
S"It's the map of McMaster.'\n ________________________________________________\n|Map of McMaster                                 |\n|                                       BATES    |\n|                                                |\n| ETB        JHE         BSB                     |\n|                                                |\n|                                      STATUE    |\n|                                                |\n| HOSPITAL                                       |\n|          MDCL         CHAPEL              MUSC |\n|________________________________________________|"
p1399
sg5
S'McMaster Map'
p1400
sg1115
S"minnick's glasses"
p1401
sg1118
I00
sg20
(I1
I2
I1
tp1402
sg1119
S"minnick's glasses"
p1403
sg1120
S"Through Minnick's glasses the true map is revealled!\nYou read:\n'Harness the sun.'\n ________________________________________________\n|Map of McMaster                                 |\n|                                       BATES    |\n|                                                |\n| ETB        JHE         BSB                     |\n|                                                |\n|                        \\/            STATUE    |\n|                        /\\                      |\n| HOSPITAL                                       |\n|          MDCL         CHAPEL              MUSC |\n|________________________________________________|\nDr. Minnick's glasses glow hot as you quickly swat them off of your face."
p1404
sbasg1126
(lp1405
sg1128
(tsg1135
g1402
sg1136
S'Has anyone even used this thing?\nA lost freshman asks you for directions even though the map is clearly next to you.\nAfter sending them in the wrong direction you plan your next move.'
p1406
sg1138
I1
sg1139
I00
sbaNaNaa(lp1407
Na(iGameClasses
Map
p1408
(dp1409
g12
S'OUTSIDE HATCH:\nETB to your left. Enter Hatch by going forward.\nThe McMaster Map to your rear. JHE Entrance is to your right.'
p1410
sg1108
(lp1411
sg5
S'In Front of Hatch'
p1412
sg1124
(lp1413
g1075
asg1126
(lp1414
sg1128
(tsg1135
g1081
sg1136
S'You stare at the newly completed building.\nThe sun still shines and you are irritated by the constant drone of the Hamiltonian sirens\nwhich you have yet to grow accustomed to...'
p1415
sg1138
I1
sg1139
I00
sbaNa(iGameClasses
Map
p1416
(dp1417
g12
S"Peter Johnason's Office:\nFill Me."
p1418
sg1108
(lp1419
sg5
S"Peter Johnason's Office"
p1420
sg1124
(lp1421
sg1126
(lp1422
sg1128
(g1133
g1180
tp1423
sg1135
(I1
I3
I3
tp1424
sg1136
S"The grand sorcerer's mystic place"
p1425
sg1138
I1
sg1139
I01
sbaa(lp1426
Na(iGameClasses
Map
p1427
(dp1428
g12
S'INSIDE HATCH:\nIn front of you lies JHE-Annex. To your right is the JHE lobby.\nTo your rear you can exit.\nTo your left is an alley.'
p1429
sg1108
(lp1430
(iGameClasses
Enemy
p1431
(dp1432
g12
S"'Yo check out my meme page, you ever heard coco jay?'"
p1433
sg3
(I15
I10
I20
tp1434
sg5
S'Mario the Mixologist'
p1435
sg1115
S'stylish watch'
p1436
sg37
I01
sg1117
Nsg1118
I00
sg19
I50
sg20
g316
sg1119
Nsg40
I00
sg1120
g66
sg1121
S'si ya saben como consigo, por que me invitan?'
p1437
sbasg5
S'Inside Hatch'
p1438
sg1124
(lp1439
g310
asg1126
(lp1440
sg1128
(tsg1135
g316
sg1136
S"That 'fresh building' smell still lingers.\nYou see members of the various clubs rushing from room to room including a man carrying a rocket.\nThe Kipling clock ticks away... only 364 more...\nWho is this Gerald Hatch anyway?"
p1441
sg1138
I1
sg1139
I01
sba(iGameClasses
Map
p1442
(dp1443
g12
S'2ND FLOOR Hatch:\nIn front of you lies the Eng Phys Office. To your right is 2nd Floor JHE.\nHatch is downstairs.'
p1444
sg1108
(lp1445
sg5
S'2nd Floor Hatch'
p1446
sg1124
(lp1447
sg1126
(lp1448
sg1128
(g1130
g1131
g1180
tp1449
sg1135
(I1
I4
I2
tp1450
sg1136
S"You see various meeting rooms with 1st years occupying them.\nThe MES office is full but nothing seems to be getting done.\nThere's therapy dogs scattered everywhere for Paws and Play.\nYou can't get a session with a real therapist but at least there is this"
p1451
sg1138
I1
sg1139
I01
sba(iGameClasses
Map
p1452
(dp1453
g12
S"Peter's Lab:\nFill Me."
p1454
sg1108
(lp1455
sg5
S'Electronics Lab'
p1456
sg1124
(lp1457
sg1126
(lp1458
sg1128
(g1133
g1180
tp1459
sg1135
(I1
I4
I3
tp1460
sg1136
S"I'm just glad to not have to be in here anymore."
p1461
sg1138
I1
sg1139
I01
sbaa(lp1462
Na(iGameClasses
Map
p1463
(dp1464
g12
S'JHE ANNEX:\nHatch is to your rear. ABB in front of you.\nITB is to your left. NRB to your right.\nThe Eng Phys office is up the stairs.'
p1465
sg1108
(lp1466
sg5
S'JHE Annex'
p1467
sg1124
(lp1468
g899
asg1126
(lp1469
sg1128
(tsg1135
g905
sg1136
S'They made a big engineering building, got money, then added more.\nYou wonder why Eng Phys classes get pushed into the rooms in this side of JHE...\nHmm...'
p1470
sg1138
I1
sg1139
I01
sba(iGameClasses
Map
p1471
(dp1472
g12
S'ENG PHYS OFFICE:\n2nd Floor Abb is infront of you. 2nd Floor Hatch is behind you. You can go down the stairs to JHE Annex.'
p1473
sg1108
(lp1474
sg5
S'Eng Phys Office'
p1475
sg1124
(lp1476
sg1126
(lp1477
sg1128
(g1131
g1132
g1180
tp1478
sg1135
(I1
I5
I2
tp1479
sg1136
S'The portrait of Dr. Novog makes you jealous as you realize you could\nnever pull off a hairstyle like that.\nYou scan the display case of past Eng Phys projects.\nThey display these as trophies...\nTrophies which only tell a story of endless grind you think to yourself...'
p1480
sg1138
I1
sg1139
I01
sbaNaa(lp1481
(iGameClasses
Map
p1482
(dp1483
g12
S'ABB BASEMENT:\nYou can only go back up to the main floor.'
p1484
sg1108
(lp1485
sg5
S'ABB Basement'
p1486
sg1124
(lp1487
g536
a(iGameClasses
Interact
p1488
(dp1489
g12
S'Seems like a regular fridge to me.'
p1490
sg5
S'Fridge'
p1491
sg1115
S'pedrotti cubed'
p1492
sg1118
I00
sg20
g542
sg1119
S'relativistic key'
p1493
sg1120
S"You inspect the inside of the fridge to reveal a small keyhole.\nUpon inserting and turning the key you hear a robotic voice bellow.\n'WORMHOLE ACTIVATED'\nThe compartment bursts open and out flies a book!"
p1494
sba(iGameClasses
Interact
p1495
(dp1496
g12
S"Dr. Haugen's personal optical bench..."
p1497
sg5
S'Optical Bench'
p1498
sg1115
S'relativistic key'
p1499
sg1118
I00
sg20
g542
sg1119
S'femtosecond laser'
p1500
sg1120
S"You place Dr. Haugen's femtosecond laser on the bench and aim it at the fridge.\nTurning the laser on (remembering your laser safety glasses, of course)\nfires the high-intensity beam at the fridge.\nThe room begins to shake and smoke begins to billow out of the cracks of the fridge.\nThe door swings open and a glowing apparition of Albert Einstein emerges!\n'You have come a long way, but your quest is not yet over.'\n'For there still remains a great evil on this campus'\n'Dr. Haugen was entrusted with protecting the contents of my fridge.'\n'I have known of your destiny since your first year here at McMaster.'\n'You will be the one who determines the fate of the faculty.'\n'It is, therefore, my responsibility to prepare you for what lies ahead.'\n'This key opens a compartment in my fridge which holds one of three Quantum Relics.'\n'These items give the holder the power to shape the fate of the entire university.'\n'I cannot tell you much more. Perhaps I have said too much.'\n'Take this. Good Luck.'"
p1501
sbasg1126
(lp1502
sg1128
(g1129
g1130
g1131
g1132
g1133
tp1503
sg1135
g542
sg1136
S'The Laser lab is pretty darn cool.\nWalking around here you notice a number of PhD students looking rather shifty.\nHmmm...\nYou wonder why that is.'
p1504
sg1138
I1
sg1139
I01
sba(iGameClasses
Map
p1505
(dp1506
g12
S'ABB:\nThode is in front of you. JHE Annex is behind you.\nThe Nuclear Reactor is to your right. LOT I is to your left.\nYou can go up or down the stairs.'
p1507
sg1108
(lp1508
sg5
S'ABB'
p1509
sg1124
(lp1510
(iGameClasses
Interact
p1511
(dp1512
g12
S"It's a display case full of all sorts of old-time Engineering Physics wizardry."
p1513
sg5
S'Display Case'
p1514
sg1115
S"faraday's cage"
p1515
sg1118
I00
sg20
(I1
I6
I1
tp1516
sg1119
S'rusty key'
p1517
sg1120
S'The rusty key fits perfectly!\nAs you turn the key glowing square forms on the back\nof the display case and opens revealing an old relic...'
p1518
sbasg1126
(lp1519
sg1128
(tsg1135
g1516
sg1136
S'You stare at the electron microscope structure and wonder if it could even see your GPA...\nA tear rolls down your cheek. You collect yourself and plan what to do next.'
p1520
sg1138
I1
sg1139
I01
sba(iGameClasses
Map
p1521
(dp1522
g12
S'2ND FLOOR ABB:\nThe Eng Phys Office is behind you. You can down the stairs to ABB.'
p1523
sg1108
(lp1524
sg5
S'2nd Floor ABB'
p1525
sg1124
(lp1526
sg1126
(lp1527
sg1128
(g1129
g1131
g1132
g1180
tp1528
sg1135
(I1
I6
I2
tp1529
sg1136
S'You were told JHE would be your home.\nNope.\nInstead you recall countless hours lectures on the 2nd floor\nas you drifted in and out of daydreams staring out the windows on a spring afternoon...'
p1530
sg1138
I1
sg1139
I01
sbaNaa(lp1531
(iGameClasses
Map
p1532
(dp1533
g12
S'THODE BASEMENT:\nGo up to head outside.'
p1534
sg1108
(lp1535
sg5
S'Thode Basement'
p1536
sg1124
(lp1537
(iGameClasses
Interact
p1538
(dp1539
g12
S'Looks like an old dusty workbench.'
p1540
sg5
S'Workbench'
p1541
sg1115
g66
sg1118
I00
sg20
(I1
I7
I0
tp1542
sg1119
Nsg1120
g66
sbasg1126
(lp1543
sg1128
(g1129
g1130
g1131
g1132
g1133
tp1544
sg1135
g1542
sg1136
S"You feel the laser glares burning into the back of your neck as\nyou hastily walk amongst the rows of desks.\nIs it possible to book a study room down here without finding a phallic object drawn on the whiteboard?\nYou'll never know."
p1545
sg1138
I1
sg1139
I01
sba(iGameClasses
Map
p1546
(dp1547
g12
S'THODE:\nABB is at your rear. The campus exit is to your right.\nCootes Drive is to your left. You can go up or down the stairs.'
p1548
sg1108
(lp1549
sg5
S'Thode'
p1550
sg1124
(lp1551
g318
ag850
asg1126
(lp1552
sg1128
g1129
sg1135
g324
sg1136
S'Oh the Reactor Cafe.\nYou think of the good old days when you could actually see the reactor from the Cafe...\nAfter overhearing someone ask whether keV is bigger than MeV you first contemplate your existence,\nthen contemplate your next move...'
p1553
sg1138
I1
sg1139
I01
sba(iGameClasses
Map
p1554
(dp1555
g12
S'2ND FLOOR THODE:\nYou can go up or down the stairs.'
p1556
sg1108
(lp1557
sg5
S'2nd Floor Thode'
p1558
sg1124
(lp1559
g746
asg1126
(lp1560
sg1128
(g1129
g1130
g1131
g1132
tp1561
sg1135
g752
sg1136
S"As you enter Club Thode the smell of feet enters your nostrils.\nWho goes barefoot in a library? C'mon.\nThe memory of countless hours spent slamming together a report made of nonsense, caffeine,\nand hope makes you light headed...\nComing to your senses... You plan your next move."
p1562
sg1138
I1
sg1139
I01
sba(iGameClasses
Map
p1563
(dp1564
g12
S'3RD FLOOR THODE:\nYou can only go back down the stairs.'
p1565
sg1108
(lp1566
(iGameClasses
Enemy
p1567
(dp1568
g12
S'I would really like a cricket to continue my research...'
p1569
sg3
(I10
I10
I10
tp1570
sg5
S'Connor the Biologist'
p1571
sg1115
Nsg37
I01
sg1117
Nsg1118
I00
sg19
I15
sg20
(I1
I7
I3
tp1572
sg1119
S'cricket'
p1573
sg40
I00
sg1120
S'Thanks!'
p1574
sg1121
S"'I can't believe you've done this."
p1575
sbasg5
S'3rd Floor Thode'
p1576
sg1124
(lp1577
sg1126
(lp1578
sg1128
(g1129
g1130
g1131
g1132
g1180
tp1579
sg1135
g1572
sg1136
S"After hauling up another set of stairs you realize you probably shouldn't\nhave given up on your Pulse membership...\nThe sounds of sobbing can be heard from all around you.\nAfter you dispense all of your tissues to passing I-Sci's you plan your next move."
p1580
sg1138
I1
sg1139
I01
sbaa(lp1581
NaNaNaNaa(lp1582
(lp1583
(iGameClasses
Map
p1584
(dp1585
g12
S'CHAPEL UNDERCROFT:\nYou can only go back up to the main floor.'
p1586
sg1108
(lp1587
(iGameClasses
Enemy
p1588
(dp1589
g12
S"'Mussst eeaaat funnnndingg... Er, I mean braaains.'"
p1590
sg3
(I20
I10
I1
tp1591
sg5
S'Undead Grad Student'
p1592
sg1115
S'horrible assignment'
p1593
sg37
I01
sg1117
Nsg1118
I00
sg19
I20
sg20
g574
sg1119
Nsg40
I00
sg1120
g66
sg1121
S'My 12 year post-grad was for nothiiiiiingggggg!'
p1594
sbasg5
S'Chapel Undercroft'
p1595
sg1124
(lp1596
g568
asg1126
(lp1597
sg1128
(g1129
g1130
g1131
g1132
g1133
tp1598
sg1135
g574
sg1136
S'You struggle down the dimly lit stairway into the undercroft.\nThe distinct smell of mould enters your nose as you travel further into the musty basement.\nThe faint glow of candles cause the shadows of ancient statues to flicker on the walls of the room...\nYou plan your next move.'
p1599
sg1138
I1
sg1139
I01
sba(iGameClasses
Map
p1600
(dp1601
g12
S'MCMASTER CHAPEL:\nThe Bus Stop is in front of you back out the door. There is a set of stairs going up.\nAs well as an old stairway leading downward.'
p1602
sg1108
(lp1603
(iGameClasses
Enemy
p1604
(dp1605
g12
S"'You need prayer. Recharge at the altar.'"
p1606
sg3
(I10
I10
I10
tp1607
sg5
S'Father Frobenius'
p1608
sg1115
S'crucifix'
p1609
sg37
I01
sg1117
Nsg1118
I00
sg19
I25
sg20
g1023
sg1119
Nsg40
I00
sg1120
g66
sg1121
S'I am slain!'
p1610
sbasg5
S'The Chapel'
p1611
sg1124
(lp1612
g1017
asg1126
(lp1613
sg1128
(g1132
g1131
g1130
tp1614
sg1135
g1023
sg1136
S"The low drone of the organ draws you in.\nThe pews are relatively empty and the lighting quite dim.\nYou think it would be in your best interest\nto pray especially with exam season just around the corner...\nIt can't hurt, right? It'd probably work better than those healing stones\non your desk."
p1615
sg1138
I1
sg1139
I01
sba(iGameClasses
Map
p1616
(dp1617
g12
S'2ND FLOOR CHAPEL:\nYou can only go back down the stairs.'
p1618
sg1108
(lp1619
sg5
S'Upstairs Chapel'
p1620
sg1124
(lp1621
g222
ag170
ag928
asg1126
(lp1622
sg1128
(g1129
g1130
g1131
g1132
g1180
tp1623
sg1135
g176
sg1136
S'The combination of ringing bells and echoes from the organ is deafening.\nYou can barely collect your thoughts.\nThe cobwebs and dust give you the impression this place has been ill-travelled\nand long forgotten.'
p1624
sg1138
I1
sg1139
I01
sbaNaa(lp1625
Na(iGameClasses
Map
p1626
(dp1627
g12
S'BUS STOP:\nHealth Sciences Library to your left. JHE field in front of you.\nThe chapel is behind you. Art Museum to your right.'
p1628
sg1108
(lp1629
(iGameClasses
Enemy
p1630
(dp1631
g12
S"'Is that even your bus pass?'"
p1632
sg3
(I10
I10
I5
tp1633
sg5
S'Larry the bus driver'
p1634
sg1115
S'huge shirt'
p1635
sg37
I01
sg1117
Nsg1118
I00
sg19
I40
sg20
g285
sg1119
Nsg40
I00
sg1120
g66
sg1121
S'That was definitely not your bus pass!'
p1636
sbasg5
S'The Bus Stop'
p1637
sg1124
(lp1638
g279
ag606
asg1126
(lp1639
sg1128
(tsg1135
g285
sg1136
S'Students gather around to catch the next bus.\nYou get pushed and shoved as they desperately clammer on-board.\nYou overhear an argument between a student and the Bus Driver when suddenly the altercation\nturns to blows and pours onto the sidewalk.'
p1640
sg1138
I1
sg1139
I00
sbaNaNaa(lp1641
Na(iGameClasses
Map
p1642
(dp1643
g12
S'JHE FIELD:\nBSB Field is to your right. McMaster map to your left.\nThe Bus Stop is at your rear. The entrance to JHE is in front of you.'
p1644
sg1108
(lp1645
(iGameClasses
Enemy
p1646
(dp1647
g12
S"'HAHA, you were a RIOT at the Phoenix last night!'"
p1648
sg3
(I5
I2
I10
tp1649
sg5
S'Brian the Weeb'
p1650
sg1115
S'guitar'
p1651
sg37
I01
sg1117
Nsg1118
I00
sg19
I10
sg20
g596
sg1119
Nsg40
I00
sg1120
g66
sg1121
S"That's not vegan."
p1652
sbasg5
S'JHE Field'
p1653
sg1124
(lp1654
g590
ag878
asg1126
(lp1655
sg1128
(tsg1135
g596
sg1136
S'The morning sun warms your face as you scoff at a hipster slack-lining.\nStudents lie in the grass around the field even though everybody knows\nnothing gets done studying outside.\nAfter narrowly dodging a frisbee you plan what to do.'
p1656
sg1138
I1
sg1139
I00
sbaNa(iGameClasses
Map
p1657
(dp1658
g12
S'THE ECLIPSE:\nFill Me.'
p1659
sg1108
(lp1660
sg5
S'THE ECLIPSE'
p1661
sg1124
(lp1662
sg1126
(lp1663
sg1128
(g1133
g1180
tp1664
sg1135
(I2
I2
I3
tp1665
sg1136
S'AW DANG The Eclipse! But yeah this windshield is a bit much'
p1666
sg1138
I1
sg1139
I01
sbaa(lp1667
Na(iGameClasses
Map
p1668
(dp1669
g12
S'FRONT OF JHE:\nBSB is to your right. Hatch to your left.\nJHE field is to your rear. Enter JHE by going forward.'
p1670
sg1108
(lp1671
sg5
S'Starting Location'
p1672
sg1124
(lp1673
g200
a(iGameClasses
Interact
p1674
(dp1675
g12
S"It's a garbage can."
p1676
sg5
S'Garbage Can'
p1677
sg1115
S'vomit'
p1678
sg1118
I00
sg20
g206
sg1119
S'msp430'
p1679
sg1120
S'You throw the MSP430 in... Yes, you have chosen wisely.'
p1680
sba(iGameClasses
Interact
p1681
(dp1682
g12
S"Welcome to The Great ENG PHYS Text Adventure!\n\nHere are the rules of the realm:\nYour orientation never changes. When you enter you will be facing the\nentrance of JHE and you will always face that way.\n\nThe commands which allow you to interact with your environment are:\nforward = f, backward = b, left = l, right = r, up = u, down = d\ntalk (person name) -talk to someone near you\nattack (person name) -attacks someone\ninspect (item name) -let's you interact with interactables and gives stats of items, can't inspect people\nequip (item name) -you pick up an item, drops any item you have in that slot\ndrop (item name) -drops an item in your inventory\neat (item name) -eat an item\nstats -will show your stats\nsearch - will search the area for things to interact with.\ninventory -will show your current inventory.\n\nBe sure to type the ENTIRE name of what you want to interact with.\nThat's it! Good Luck!"
p1683
sg5
S'Rules Sign'
p1684
sg1115
g66
sg1118
I00
sg20
g206
sg1119
g66
sg1120
g66
sbasg1126
(lp1685
sg1128
(tsg1135
g206
sg1136
S"You hear a booming voice that sounds oddly like a game developer. \ntype: 'inspect rules sign!'\nYou see the Iron Ring out front of JHE shining in the morning sun.\nThe campus is bustling with student life.\nThere are people heading in all directions with Kipling pranks\nstill scattered about JHE."
p1686
sg1138
I1
sg1139
I00
sbaNa(iGameClasses
Map
p1687
(dp1688
g12
S'ZebraShark:\nFill Me.'
p1689
sg1108
(lp1690
sg5
S'ZebraShark'
p1691
sg1124
(lp1692
sg1126
(lp1693
sg1128
(g1133
g1180
tp1694
sg1135
(I2
I3
I3
tp1695
sg1136
S'Where are they? O.m.g. is that a pool downstairs?'
p1696
sg1138
I1
sg1139
I01
sbaa(lp1697
(iGameClasses
Map
p1698
(dp1699
g12
S'JHE BASEMENT:\nYou can only go back up to the main floor.'
p1700
sg1108
(lp1701
(iGameClasses
Enemy
p1702
(dp1703
g12
S"'I need a snack that smiles back!'"
p1704
sg3
(I17
I12
I15
tp1705
sg5
S'Zack the Snack'
p1706
sg1115
S'fanny pack'
p1707
sg37
I01
sg1117
Nsg1118
I00
sg19
I25
sg20
(I2
I4
I0
tp1708
sg1119
S'goldfish'
p1709
sg40
I00
sg1120
S'Whoa thats whack! Check out this fanny pack.'
p1710
sg1121
S'Why are you the way you are?'
p1711
sbasg5
S'JHE Basement'
p1712
sg1124
(lp1713
sg1126
(lp1714
sg1128
(g1129
g1130
g1131
g1132
g1133
tp1715
sg1135
g1708
sg1136
S'You see the remnants of failed clubs and the shattered dreams of past engineers...\nThis place is a bit chilly.'
p1716
sg1138
I1
sg1139
I01
sba(iGameClasses
Map
p1717
(dp1718
g12
S'JHE LOBBY:\nTo your right you can exit towards BSB. To your left you can head into Hatch.\nForward is the Nuclear Research building. Behind you lies the exit.\nThere are also stairs going up and down.'
p1719
sg1108
(lp1720
(iGameClasses
Enemy
p1721
(dp1722
g12
S"Wait, but I'm you? Sorry I'm a little busy to think about this right now."
p1723
sg3
(I100
I100
I100
tp1724
sg5
g6
sg1115
S'self worth'
p1725
sg37
I01
sg1117
Nsg1118
I00
sg19
I100
sg20
g339
sg1119
Nsg40
I00
sg1120
g66
sg1121
S"\nCongradulations, you've conquered yourself! It wasn't that hard!"
p1726
sbasg5
S'Inside JHE'
p1727
sg1124
(lp1728
g333
ag341
a(iGameClasses
Interact
p1729
(dp1730
g12
S'This heap of computing majesty could block bullets... I think...'
p1731
sg5
S'Lenovo Laptop'
p1732
sg1115
g66
sg1118
I00
sg20
g339
sg1119
S'eng phys usb pen'
p1733
sg1120
S'You plug in the Eng Phs USB Pen.\nYou find all of 2P04 files, who uses FlexPDE anymore? You also find a \nweird exe called the Eng Phys Text Adventure! That sounds like fun.\nYou hear a drumming in your ears, is that coming from the pen?'
p1734
sbasg1126
(lp1735
sg1128
(tsg1135
g339
sg1136
S'JHE lobby is alive.\nStudents rushing all around as the smell of burnt coffee and sorrow tickles your nose.\nYou scan the faces around you but see no one familiar.\nThere is a confused air about this place as Kipling was just last night.\nMany engineers happy. Many more still grinding.'
p1736
sg1138
I1
sg1139
I01
sba(iGameClasses
Map
p1737
(dp1738
g12
S'2ND FLOOR JHE:\nTo the left is 2nd Floor Hatch. You can go down the stairs to JHE Lobby.'
p1739
sg1108
(lp1740
sg5
S'2nd Floor JHE'
p1741
sg1124
(lp1742
g820
ag1025
asg1126
(lp1743
sg1128
(g1129
g1130
g1132
g1180
tp1744
sg1135
g826
sg1136
S'You spend 20 minutes staring at the 1970 graduating class wondering if you could ever pull off a moustache like that...\nAfter realizing the cool lecture halls were only given to first years.\nYou shake your fist and plan your next move.'
p1745
sg1138
I1
sg1139
I01
sba(iGameClasses
Map
p1746
(dp1747
g12
S'T.A. Area:\nFill Me.'
p1748
sg1108
(lp1749
sg5
S'T.A. Area'
p1750
sg1124
(lp1751
sg1126
(lp1752
sg1128
(g1133
g1180
tp1753
sg1135
(I2
I4
I3
tp1754
sg1136
S'Is this where the PSRs get lost? Also just storage space for STARS'
p1755
sg1138
I1
sg1139
I01
sbaa(lp1756
(iGameClasses
Map
p1757
(dp1758
g12
S'BASEMENT OF NRB:\nYou can only go back up to the main floor.'
p1759
sg1108
(lp1760
sg5
S'NRB Basement'
p1761
sg1124
(lp1762
g634
asg1126
(lp1763
sg1128
(g1129
g1130
g1131
g1132
g1133
tp1764
sg1135
g640
sg1136
S'You head down the stairs to the basement...\nThe forgotten dreams of PhD students linger in the air.\nThere is an endless amount of engineering wizardry in the rooms around you.'
p1765
sg1138
I1
sg1139
I01
sba(iGameClasses
Map
p1766
(dp1767
g12
S'NUCLEAR RESEARCH BUILDING:\nTo your left lies the JHE-Annex. The Reactor is in front of you.\nThe Police Station is to your right. JHE lobby is behind you.\nThere are stairs going down.'
p1768
sg1108
(lp1769
sg5
S'Nuclear Research Building'
p1770
sg1124
(lp1771
g679
asg1126
(lp1772
sg1128
(tsg1135
g685
sg1136
S"You have barely ever been in here other than to struggle through\n3 hours of waiting for a water level PID controller to reach steady state.\nYou wonder how anyone could get away with a floor plan this confusing.\nPerhaps that's why no terrorists have blown up the reactor because\nthey are all still lost in here..."
p1773
sg1138
I1
sg1139
I01
sbaNaNaa(lp1774
(iGameClasses
Map
p1775
(dp1776
g12
S'INSIDE THE REACTOR:\nGo up to head outside.'
p1777
sg1108
(lp1778
sg5
S'Inside the Reactor'
p1779
sg1124
(lp1780
sg1126
(lp1781
sg1128
(g1129
g1130
g1131
g1132
g1133
tp1782
sg1135
(I2
I6
I0
tp1783
sg1136
S'The hum of air conditioning drowns your thoughts.\nYou lose yourself staring into the faint blue glow of the pool as you slowly approach its edge.'
p1784
sg1138
I1
sg1139
I01
sba(iGameClasses
Map
p1785
(dp1786
g12
S'NUCLEAR REACTOR:\nRight is the GO station. Left is ABB.\n NRB is at your rear. The campus exit lies in front of you.\nGo down to enter.'
p1787
sg1108
(lp1788
sg5
S'Nuclear Reactor'
p1789
sg1124
(lp1790
g995
asg1126
(lp1791
sg1128
(tsg1135
g1001
sg1136
S"As you approach you wonder if that steam is really radioactive?\nIt can't be.\nThe ominous structure draws you closer as you consider what it would be\nlike to swim in that sweet blue pool..."
p1792
sg1138
I1
sg1139
I01
sbaNaNaa(lp1793
Na(iGameClasses
Map
p1794
(dp1795
g12
S'CAMPUS EXIT:\nHead to Thode by going left. Head down Cootes trail if you go right.\nThe Reactor is behind you.'
p1796
sg1108
(lp1797
sg5
S'Campus Exit'
p1798
sg1124
(lp1799
g405
asg1126
(lp1800
sg1128
g1129
sg1135
g411
sg1136
S'A faint glow can be seen in the distance.\nWarning signs litter the trail as you squint to get a better look.\nA chill is sent down your spine as you see the flickering stretched shadows of\nfighting dance on the road ahead.\nYou cannot go straight... yet.'
p1801
sg1138
I1
sg1139
I00
sbaNaNaa(lp1802
NaNaNaNaa(lp1803
(lp1804
Na(iGameClasses
Map
p1805
(dp1806
g12
S'ART MUSEUM:\nThe exit lies in front of you.'
p1807
sg1108
(lp1808
sg5
S'Inside the Art Museum'
p1809
sg1124
(lp1810
g552
a(iGameClasses
Interact
p1811
(dp1812
g12
S'An old oil painting of the founding fathers of McMaster.\nDated:April 20th, 1887'
p1813
sg5
S'Old Painting'
p1814
sg1115
S"minnick's glasses"
p1815
sg1118
I00
sg20
g558
sg1119
S"minnick's glasses"
p1816
sg1120
S"Through Dr. Minnick's glasses a glowing green inscription is revealed!\n'In the hall where we eternally meet,\nThe second clue lies beneath your feet.'\nWhile reading the secret message Dr. Minnick's glasses get increasingly hotter and you quickly swat them off your face."
p1817
sbasg1126
(lp1818
sg1128
(g1132
g1131
g1130
tp1819
sg1135
g558
sg1136
S'Who knew McMaster had such a beautiful gallery.\nYou tilt your head endlessly until the art sort of makes sense.\nAfter telling yourself you could totally make every piece in the place had you been given\na chance you put your pinky out.\nThen contemplate your next move.'
p1820
sg1138
I1
sg1139
I01
sbaNaNaa(lp1821
Na(iGameClasses
Map
p1822
(dp1823
g12
S'OUTSIDE ART MUSEUM:\nYou can enter the museum to your rear. Bus Stop is to your left.\nWilly-dog stand to your right. BSB field lies in front of you.'
p1824
sg1108
(lp1825
sg5
S'Outside the Art Museum'
p1826
sg1124
(lp1827
g560
asg1126
(lp1828
sg1128
(tsg1135
g566
sg1136
S'Standing out front of the art museum you feel you are already being critiqued.\nAfter narrowly escaping a conversation with an arts student\nabout their installation piece of a dirty coffee table...\nYou plan your next move.'
p1829
sg1138
I1
sg1139
I00
sbaNaNaa(lp1830
Na(iGameClasses
Map
p1831
(dp1832
g12
S'BSB FIELD:\nThe turning circle is to your right. JHE field is to your left.\nEntrance to BSB is in front of you. The Art Museum is to your rear.'
p1833
sg1108
(lp1834
(iGameClasses
Enemy
p1835
(dp1836
g12
S"'I heard some jebroni took the 3W Textbook and hid in Bridges cafe.'\n'Full send, dude!'"
p1837
sg3
(I10
I15
I5
tp1838
sg5
S'Andreas the Nerd'
p1839
sg1115
S'visor glasses'
p1840
sg37
I01
sg1117
Nsg1118
I00
sg19
I50
sg20
g550
sg1119
Nsg40
I00
sg1120
g66
sg1121
S'Dude, that was definitely a full send'
p1841
sbasg5
S'BSB Field'
p1842
sg1124
(lp1843
g544
a(iGameClasses
Interact
p1844
(dp1845
g12
S"You can't even tell time on an analog clock.\nHow are you supposed to use this?"
p1846
sg5
S'Sun Dial'
p1847
sg1115
S'rusty key'
p1848
sg1118
I00
sg20
g550
sg1119
S"minnick's glasses"
p1849
sg1120
S"Through Dr. Minnick's glasses, you see a green glowing handprint appears\non the face of the sundial!\nYou place your hand on it and a compartment opens."
p1850
sbasg1126
(lp1851
sg1128
(tsg1135
g550
sg1136
S'You look up to see the flags flapping happily in the morning breeze.\nThat sundial at their feet ticking to the tune of celestial magic.\nAfter swatting Neil Degrasse quotes from your thoughts...\nYou consider what to do next.'
p1852
sg1138
I1
sg1139
I00
sbaNa(iGameClasses
Map
p1853
(dp1854
g12
S'S.T.A.R.S.:\nFill Me.'
p1855
sg1108
(lp1856
sg5
S'S.T.A.R.S.'
p1857
sg1124
(lp1858
sg1126
(lp1859
sg1128
(g1133
g1180
tp1860
sg1135
(I3
I2
I3
tp1861
sg1136
S'S.T.A.R.S. PLEASE WORK'
p1862
sg1138
I1
sg1139
I01
sbaa(lp1863
Na(iGameClasses
Map
p1864
(dp1865
g12
S'FRONT OF BSB:\nBSB field is at your rear. A road is to your right.\nThe entrance to JHE is to your left. BSB is infront of you'
p1866
sg1108
(lp1867
(iGameClasses
Enemy
p1868
(dp1869
g12
S"'The oscilloscope is the window into the electronic world.'"
p1870
sg3
(I100
I100
I200
tp1871
sg5
S'Kenrick'
p1872
sg1115
S"kenrick's oscilloscope"
p1873
sg37
I01
sg1117
Nsg1118
I00
sg19
I75
sg20
(I3
I3
I1
tp1874
sg1119
Nsg40
I00
sg1120
g66
sg1121
S"Oh no! My window! The Dark Lord will know I've failed him!"
p1875
sbasg5
S'Front BSB'
p1876
sg1124
(lp1877
(iGameClasses
Interact
p1878
(dp1879
g12
S'Under closer inspection you notice the book is a different kind of stone\nthan the rest...\nIf only you could get up there for a closer look...'
p1880
sg5
S'Coat of Arms'
p1881
sg1115
S'old scroll'
p1882
sg1118
I00
sg20
g1874
sg1119
S'old ladder'
p1883
sg1120
S'With some effort you climb the rickety ladder and remove the book from the wall.\nReaching into the hole you pull out an old scroll!'
p1884
sbasg1126
(lp1885
sg1128
(tsg1135
g1874
sg1136
S"You look up and see the McMaster coat of arms engraved into the side of BSB.\nThis little pathway has been well worn and you wonder why they don't connect JHE and BSB anyway.\nAn underground (quantum) tunnel would save some hardship on a rainy day..."
p1886
sg1138
I1
sg1139
I00
sbaNa(iGameClasses
Map
p1887
(dp1888
g12
S'FRAS:\nFill Me.'
p1889
sg1108
(lp1890
sg5
S'FRAS'
p1891
sg1124
(lp1892
sg1126
(lp1893
sg1128
(g1133
g1180
tp1894
sg1135
(I3
I3
I3
tp1895
sg1136
S"Yeah that's a tank. This is a 3D printed Tank."
p1896
sg1138
I1
sg1139
I01
sbaa(lp1897
(iGameClasses
Map
p1898
(dp1899
g12
S'QUANTUM TUNNEL:\nGo up to return to the main floor of BSB'
p1900
sg1108
(lp1901
(iGameClasses
Enemy
p1902
(dp1903
g12
S'I am NOT going to finish this assignment... if only I had one to copy.'
p1904
sg3
(I10
I10
I10
tp1905
sg5
S'Liam the Gamer'
p1906
sg1115
S'swordfish'
p1907
sg37
I01
sg1117
Nsg1118
I00
sg19
I15
sg20
g730
sg1119
S'horrible assignment'
p1908
sg40
I00
sg1120
S'Nice! Take this swordfish. I needed 45 cooking for that.'
p1909
sg1121
g66
sbasg5
S'The Quantum Tunnel'
p1910
sg1124
(lp1911
g835
ag724
asg1126
(lp1912
sg1128
(g1129
g1130
g1131
g1132
g1133
tp1913
sg1135
g730
sg1136
S"What other faculty spends thousands of dollars on furniture for a\nliteral custodial closet in the BSB basement?\nYou guessed it...\nEng Phys. Gotta love em'"
p1914
sg1138
I1
sg1139
I01
sba(iGameClasses
Map
p1915
(dp1916
g12
S'BSB:\nEnter JHE to your left. General Sciences building to your right.\nFront of BSB is behind you. The Police station is in front of you.'
p1917
sg1108
(lp1918
sg5
S'BSB'
p1919
sg1124
(lp1920
g484
asg1126
(lp1921
sg1128
(tsg1135
g490
sg1136
S"You were told JHE would be your home but after picking Eng Phys\nyou didn't realize how wrong you were.\nAt least the cafe is better than JHE's.\nA shudder runs through your body as you draw nearer to the electronics labs.\nWiping a cold sweat from your brow you plan ahead."
p1922
sg1138
I1
sg1139
I01
sba(iGameClasses
Map
p1923
(dp1924
g12
S'2ND FLOOR BSB:\nYou can only go back down the stairs.'
p1925
sg1108
(lp1926
sg5
S'2nd Floor BSB'
p1927
sg1124
(lp1928
g656
asg1126
(lp1929
sg1128
(g1129
g1130
g1131
g1132
tp1930
sg1135
g662
sg1136
S'Despite the horrible numbering of floors the layout of the building is great.\nNot a complaint with this one.'
p1931
sg1138
I1
sg1139
I01
sba(iGameClasses
Map
p1932
(dp1933
g12
S'Capstone Doorway:\nFill Me.'
p1934
sg1108
(lp1935
sg5
S'Capstone Doorway'
p1936
sg1124
(lp1937
sg1126
(lp1938
sg1128
g1180
sg1135
(I3
I4
I3
tp1939
sg1136
S'You walk into the room that is a mess. This is a disaster,\nhow did this happen? Do these people live here?'
p1940
sg1138
I1
sg1139
I01
sbaa(lp1941
Na(iGameClasses
Map
p1942
(dp1943
g12
S'POLICE STATION:\nThe path between JHE & BSB behind you. The GO station lies ahead of you.\nThe Nuclear Research Building is to your left. The Tandem Accelerator is to your right.'
p1944
sg1108
(lp1945
(iGameClasses
Enemy
p1946
(dp1947
g12
S"'Give me your student card!'"
p1948
sg3
(I50
I25
I10
tp1949
sg5
S'Bill the MAC Cop'
p1950
sg1115
S'solar cell'
p1951
sg37
I01
sg1117
Nsg1118
I00
sg19
I50
sg20
g97
sg1119
Nsg40
I00
sg1120
g66
sg1121
S"We aren't able to arrest you anyway!"
p1952
sbasg5
S'Police Station'
p1953
sg1124
(lp1954
g91
ag627
asg1126
(lp1955
sg1128
(tsg1135
g97
sg1136
S'Thoughts of getting kicked out of res parties fill your head.\nThose special constables are punks.\nYou mutter the lyrics of a certain N.W.A hit. After avoiding a campus P.D cruiser\nscreaming around the blind corner, you think of what to do next.'
p1956
sg1138
I1
sg1139
I01
sbaNaNaa(lp1957
Na(iGameClasses
Map
p1958
(dp1959
g12
S'GO STATION:\nThe Reactor is to your left. Keyes is to your right.\nCootes Trail is in front of you. The Police Station is behind you.'
p1960
sg1108
(lp1961
(iGameClasses
Enemy
p1962
(dp1963
g12
S"'Have you got the LON-CAPA Python code?'"
p1964
sg3
(I5
I1
I10
tp1965
sg5
S'Steven the first-year'
p1966
sg1115
S'engineering mug'
p1967
sg37
I01
sg1117
Nsg1118
I00
sg19
I15
sg20
g498
sg1119
Nsg40
I00
sg1120
g66
sg1121
S"I'm a failure at home and at school!"
p1968
sbasg5
S'GO Station'
p1969
sg1124
(lp1970
g492
asg1126
(lp1971
sg1128
(tsg1135
g498
sg1136
S'The rush of people and buses around you is disorienting.\nYou nearly get hit by 3 buses and 2 MAC Cop cars as\nyou play a strange game of real-life frogger.\nReaching a bench you sit down, catch your breath, and plan what to do next.'
p1972
sg1138
I1
sg1139
I00
sbaNaNaa(lp1973
Na(iGameClasses
Map
p1974
(dp1975
g12
S'COOTES TRAIL:\nCampus exit is to your left. GO station to your rear.\nThe Bridge to Lot M is to your right.'
p1976
sg1108
(lp1977
sg5
S'Cootes Trail'
p1978
sg1124
(lp1979
g146
ag229
a(iGameClasses
Interact
p1980
(dp1981
g12
S'This patch of dirt looks out of place...'
p1982
sg5
S'Uneven Earth'
p1983
sg1115
S'declaration of independence'
p1984
sg1118
I00
sg20
g152
sg1119
S'shovel'
p1985
sg1120
S"You begin digging and find an old box!\nYou open it up and read a note...\n'In the eldest of halls. The attic holds all.'"
p1986
sbasg1126
(lp1987
sg1128
g1129
sg1135
g152
sg1136
S'The flickering light through the trees dances off of the trail ahead of you.\nYou smile as you see a squirrel gathering nuts,\nprobably for his little squirrel family.\nWith this new positive outlook on life you plan your next move.'
p1988
sg1138
I1
sg1139
I00
sbaNaNaa(lp1989
NaNaNaNaa(lp1990
(lp1991
(iGameClasses
Map
p1992
(dp1993
g12
S'MILLS BASEMENT:\nYou can only go back up to Mills.'
p1994
sg1108
(lp1995
sg5
S'Mills Basement'
p1996
sg1124
(lp1997
g514
a(iGameClasses
Interact
p1998
(dp1999
g12
S"It's an old mirror from a time long past."
p2000
sg5
S'Ancient Mirror'
p2001
sg1115
S'gamma glove'
p2002
sg1118
I00
sg20
g520
sg1119
S'ancient incantation'
p2003
sg1120
S"You mutter the incantation... Suddenly, you see the reflection of Richard Feynman himself standing behind you!\n'You have come a long way. The way of the physicist is strong with you.'\n'Here, take this it is one of the 3 Quantum Relics.\n'You will need all 3 to acquire your Iron Ring.'\n'Trust your instincts and when the time comes you will know what to do."
p2004
sbasg1126
(lp2005
sg1128
(g1129
g1130
g1131
g1132
g1133
tp2006
sg1135
g520
sg1136
S'Jeez has anyone ever been down here?\nThe rows of bookshelves seem to go on forever...\nIf only you could possess all of the knowledge they hold.'
p2007
sg1138
I1
sg1139
I01
sba(iGameClasses
Map
p2008
(dp2009
g12
S'MILLS LIBRARY:\nThe Willy Dog Stand is in front of you. MUSC is to your right.\nYou can go downstairs.'
p2010
sg1108
(lp2011
sg5
S'Mills Library'
p2012
sg1124
(lp2013
g295
a(iGameClasses
Interact
p2014
(dp2015
g12
S"It's a guide to the Bruce trail."
p2016
sg5
S'Blue Book'
p2017
sg1115
g66
sg1118
I00
sg20
g301
sg1119
g66
sg1120
g66
sba(iGameClasses
Interact
p2018
(dp2019
g12
S"Flipping through you read:\n'The mitochondria is the powerhouse of the cell.'"
p2020
sg5
S'Red Book'
p2021
sg1115
g66
sg1118
I00
sg20
g301
sg1119
g66
sg1120
g66
sbasg1126
(lp2022
sg1128
(g1131
g1130
tp2023
sg1135
g301
sg1136
S'This is definitely not Thode.\nYou wonder if anything gets done in this library.\nAll of the debauchery taking place on the 6th floor sends a shudder through your body.\nYou notice a stack of books...'
p2024
sg1138
I1
sg1139
I01
sbaNaNaa(lp2025
Na(iGameClasses
Map
p2026
(dp2027
g12
S'WILLY DOG STAND:\nThe turning circle lies in front of you. Mills library at your rear.\nThe Archway to your right. The Art Museum is to your left.'
p2028
sg1108
(lp2029
sg5
S'The Willy Dog stand'
p2030
sg1124
(lp2031
g154
ag1061
asg1126
(lp2032
sg1128
(tsg1135
g160
sg1136
S"Oh, that sweet sweet aroma.\nMany drunken nights flash through your head.\nThat Willy dog cart is more of a staple to McMaster students than the Archway next to it.\nWas it named Willy Dog after Sir William McMaster?\nYou'll never know..."
p2033
sg1138
I1
sg1139
I00
sbaNaNaa(lp2034
Na(iGameClasses
Map
p2035
(dp2036
g12
S'TURNING CIRCLE:\nWilly Dog stand is to your rear. BSB-field is to your left.\nThe Willy McMaster Statue is to your right. Head down the road if you go forward.'
p2037
sg1108
(lp2038
(iGameClasses
Enemy
p2039
(dp2040
g12
g1948
sg3
(I50
I25
I10
tp2041
sg5
S'Will the MAC Cop'
p2042
sg1115
S'fake gun'
p2043
sg37
I01
sg1117
Nsg1118
I00
sg19
I50
sg20
g168
sg1119
Nsg40
I00
sg1120
g66
sg1121
g1952
sbasg5
S'Turning Circle'
p2044
sg1124
(lp2045
g162
ag236
asg1126
(lp2046
sg1128
(tsg1135
g168
sg1136
S'The circle thing with the three trees in it is looking pretty nice\nin the morning sun.\nStudents rush all around.\nThe aroma from the Willy Dog stand is making you pretty hungry...'
p2047
sg1138
I1
sg1139
I00
sbaNa(iGameClasses
Map
p2048
(dp2049
g12
S'NANOrims:\nFill Me.'
p2050
sg1108
(lp2051
sg5
S'NANOrims'
p2052
sg1124
(lp2053
sg1126
(lp2054
sg1128
(g1133
g1180
tp2055
sg1135
(I4
I2
I3
tp2056
sg1136
S'NANNNOOORYMMSS.'
p2057
sg1138
I1
sg1139
I01
sbaa(lp2058
Na(iGameClasses
Map
p2059
(dp2060
g12
S'A ROAD:\nEnter BSB to your left. Hamilton Hall to your right.\nThe turning circle is behind you. General Sciences building in front of you.'
p2061
sg1108
(lp2062
sg5
S'Campus Road'
p2063
sg1124
(lp2064
g287
ag326
asg1126
(lp2065
sg1128
(tsg1135
g293
sg1136
S"A lost first year's parent drives by in a mini-van\nclearly ignoring the 'no access' sign.\nYou thank your astrology sign for making sure they looked up and saw you."
p2066
sg1138
I1
sg1139
I00
sbaNa(iGameClasses
Map
p2067
(dp2068
g12
S'Milli:\nFill Me.'
p2069
sg1108
(lp2070
sg5
S'Milli'
p2071
sg1124
(lp2072
sg1126
(lp2073
sg1128
(g1133
g1180
tp2074
sg1135
(I4
I3
I3
tp2075
sg1136
S'Great Job Mili!'
p2076
sg1138
I1
sg1139
I01
sbaa(lp2077
Na(iGameClasses
Map
p2078
(dp2079
g12
S'GENERAL SCIENCES BUILDING:\nThe Phoenix is to your right. The junction between JHE & BSB is to your left.\nThe Tandem Accelerator is in front of you. Exit to your rear.'
p2080
sg1108
(lp2081
sg5
S'General Sciences'
p2082
sg1124
(lp2083
g702
asg1126
(lp2084
sg1128
(tsg1135
g708
sg1136
S"Have you ever been in here?\nI haven't.\nYou see a group of people huddled around a pentagram-wearing goat heads.\nMaybe? I seriously don't know what goes on in here."
p2085
sg1138
I1
sg1139
I01
sbaNa(iGameClasses
Map
p2086
(dp2087
g12
S'Circuit Smart:\nFill Me.'
p2088
sg1108
(lp2089
sg5
S'Circuit Smart'
p2090
sg1124
(lp2091
sg1126
(lp2092
sg1128
(g1133
g1180
tp2093
sg1135
(I4
I4
I3
tp2094
sg1136
S'(Print text of spagetti)\nIf you unplugged one wire of this these people would go insane.'
p2095
sg1138
I1
sg1139
I01
sbaa(lp2096
(iGameClasses
Map
p2097
(dp2098
g12
S'TANDEM BASEMENT:\nYou can only go back up the stairs.'
p2099
sg1108
(lp2100
sg5
S'Tandem Basement'
p2101
sg1124
(lp2102
(iGameClasses
Interact
p2103
(dp2104
g12
S"It's an old broken reactor."
p2105
sg5
S'Broken Reactor'
p2106
sg1115
S'pink donut'
p2107
sg1118
I00
sg20
(I4
I5
I0
tp2108
sg1119
S'flux capacitor'
p2109
sg1120
S"After some elbow grease and a bit of luck you manage to complete the reactor.\nThere is a low whirr as the device starts and begins to glow with a\npink hue.\nYou feel like ancient mechanisms beyond your comprehension are coming to life.\nWithin the pink glow you see an apparition of Dr. Novog!\n'What's up folks! This is the only channel safe for communication\n'Come meet me in the basement of the Nuclear Reactor ASAP and bring that Pink Donut!'\nAs the aparition fades a hooded figure emerges from behind a lab bench.\n'The Dark Lord demands that donut!'\nThe assassin lunges for you but is quickly met by your blow.\nAs they fall to the ground you notice an insignia on their robe that tickles your 'that's familiar' bone...\nYou pull back their hood to reveal the face of an Eng Phys PhD student!\nYou don't remember their name... But you know they are in the faculty..."
p2110
sbasg1126
(lp2111
sg1128
(g1129
g1130
g1131
g1132
g1133
tp2112
sg1135
g2108
sg1136
S"An old basement with all sorts of technological wizardry you don't recognize.\nIt seems like this place has been untouched for some time.\nLooking around you get the impression that not a lot of people come down here."
p2113
sg1138
I1
sg1139
I01
sba(iGameClasses
Map
p2114
(dp2115
g12
S'TANDEM ACCELERATOR:\nThe General Sciences Building is behind you. The Police station is to your left.\nA trail is to your right. Keyes is in front of you.'
p2116
sg1108
(lp2117
(iGameClasses
Enemy
p2118
(dp2119
g12
S"'The tools should be coming any day now.'"
p2120
sg3
(I50
I75
I50
tp2121
sg5
S'Chris'
p2122
sg1115
S'capstone tools'
p2123
sg37
I01
sg1117
Nsg1118
I00
sg19
I50
sg20
g121
sg1119
Nsg40
I00
sg1120
g66
sg1121
S'I was going to quit anyway!'
p2124
sbasg5
S'Tandem Accelerator'
p2125
sg1124
(lp2126
g115
asg1126
(lp2127
sg1128
(tsg1135
g121
sg1136
S'Turns out the Tandem Accelerator is NOT a rad place to ride a 2-person bike...\nBummed out you remind yourself you graduated and consider what to do next.'
p2128
sg1138
I1
sg1139
I01
sbaNaNaa(lp2129
Na(iGameClasses
Map
p2130
(dp2131
g12
S'MARY KEYES:\nYou can head to the Bridge if you go forward. The GO station is to your left.\nThe Tandem Accelerator is at your rear. Bates is to your right.'
p2132
sg1108
(lp2133
sg5
S'Keyes'
p2134
sg1124
(lp2135
g804
ag885
asg1126
(lp2136
sg1128
(tsg1135
g810
sg1136
S"A snack station that's open 'til midnight.\nWhat a life saver indeed.\nYou quickly thank the engineering gods for Mary Keyes and fight yourself\nfrom ordering chicken fingers & fries super combo..."
p2137
sg1138
I1
sg1139
I01
sbaNaNaa(lp2138
Na(iGameClasses
Map
p2139
(dp2140
g12
S'THE BRIDGE:\nLot M is to your right. Keyes is at your rear.\nHead down Cootes trail if you go left.'
p2141
sg1108
(lp2142
sg5
S'The Bridge'
p2143
sg1124
(lp2144
g842
asg1126
(lp2145
sg1128
g1129
sg1135
g848
sg1136
S'You narrowly avoid a GO bus\npick yourself up and brush yourself off.\nThen plan your next move.'
p2146
sg1138
I1
sg1139
I00
sbaNaNaa(lp2147
NaNaNaNaa(lp2148
(lp2149
(iGameClasses
Map
p2150
(dp2151
g12
S'CUSTODIAL CLOSET:\nYou can only go up to go back to MUSC.'
p2152
sg1108
(lp2153
sg5
S'Custodial Closet'
p2154
sg1124
(lp2155
g449
ag303
ag178
ag60
asg1126
(lp2156
sg1128
(g1129
g1130
g1131
g1132
g1133
tp2157
sg1135
g67
sg1136
S'You enter the custodial closet and a formidable stench fills your nostrils...\nEw.'
p2158
sg1138
I1
sg1139
I01
sba(iGameClasses
Map
p2159
(dp2160
g12
S'MUSC:\nMills is to your left. The Archway is in front of you.\nA custodial closet is down the stairs.'
p2161
sg1108
(lp2162
sg5
S'McMaster Student Centre'
p2163
sg1124
(lp2164
g789
ag130
asg1126
(lp2165
sg1128
(g1132
g1130
tp2166
sg1135
g136
sg1136
S'The Student Centre is alive.\nAfter counting the number of jean jackets in the Starbucks line like the Count from Sesame Street\nyou snap back to reality.\n(Oops there goes gravity).\nYou notice a Starbucks employee arguing with his manager before throwing their apron to the ground.'
p2167
sg1138
I1
sg1139
I01
sbaNaNaa(lp2168
Na(iGameClasses
Map
p2169
(dp2170
g12
S'ARCHWAY:\nMUSC at your rear. Statue of Willy in front of you.\nEntrance to University Hall is to your right. The Willy Dog stand is to your left.'
p2171
sg1108
(lp2172
sg5
S'The McMaster Archway'
p2173
sg1124
(lp2174
g796
a(iGameClasses
Interact
p2175
(dp2176
g12
S'It appears the hole was caused by some sort of laser...'
p2177
sg5
S'Old Lamp'
p2178
sg1115
g66
sg1118
I00
sg20
g802
sg1119
g66
sg1120
g66
sbasg1126
(lp2179
sg1128
(tsg1135
g802
sg1136
S"Probably the most beautiful structure at Mac.\nYou notice a hole that appears to have melted through the glass of the lamp underneath...\nYou snap a quick selfie in front of the Archway for the 'gram."
p2180
sg1138
I1
sg1139
I00
sbaNaNaa(lp2181
Na(iGameClasses
Map
p2182
(dp2183
g12
S'WILLIAM MCMASTER STATUE:\nHamilton Hall is in front of you. The Archway is behind you.\nTurning Circle is to your left.'
p2184
sg1108
(lp2185
sg5
S'Statue of Sir William McMaster'
p2186
sg1124
(lp2187
sg1126
(lp2188
sg1128
g1132
sg1135
(I5
I2
I1
tp2189
sg1136
S'Approaching the statue you notice massive burn marks on the lawn and chunks\nout of the tree...\nHmm...\nWhat if Sir Willy McMaster was actually in that statue Han Solo style?\nAfter a quick selfie with Willy you plan your next move.'
p2190
sg1138
I1
sg1139
I00
sbaNaNaa(lp2191
Na(iGameClasses
Map
p2192
(dp2193
g12
S'HAMILTON HALL:\nThe Phoenix is in front of you. A road is to your left.\nThe Willy McMaster Statue is to your rear.'
p2194
sg1108
(lp2195
sg5
S'Hamilton Hall'
p2196
sg1124
(lp2197
g1090
ag264
asg1126
(lp2198
sg1128
g1132
sg1135
g270
sg1136
S"You think about helping some first years in the Math help centre.\nThen you don't.\nThey should learn to fight through it if they're going to make it through the\nnext 4 years."
p2199
sg1138
I1
sg1139
I01
sbaNaNaa(lp2200
(iGameClasses
Map
p2201
(dp2202
g12
S'BRIDGES CAFE:\nYou can only go back up to the Phoenix.'
p2203
sg1108
(lp2204
(iGameClasses
Enemy
p2205
(dp2206
g12
S"'Did I mention I'm vegan?'"
p2207
sg3
(I15
I1
I5
tp2208
sg5
S'Jana the vegan'
p2209
sg1115
S'3w textbook'
p2210
sg37
I01
sg1117
Nsg1118
I00
sg19
I10
sg20
g113
sg1119
Nsg40
I00
sg1120
g66
sg1121
S'I was going to bring it back I swear!'
p2211
sbasg5
S'Bridges'
p2212
sg1124
(lp2213
g107
asg1126
(lp2214
sg1128
(g1129
g1130
g1131
g1132
g1133
tp2215
sg1135
g113
sg1136
S'You feel guilty walking in here after you performed a\nbeat down on a double big mac combo in a drunken stupor only hours earlier.\nAfter pledging to be more vegan in the future, you plan what to do next.'
p2216
sg1138
I1
sg1139
I01
sba(iGameClasses
Map
p2217
(dp2218
g12
S'THE PHOENIX:\nGeneral Sciences Building is to your left. Hamilton Hall is to your rear.\nThe trail to Bates is in front of you. You can also go down the stairs to Bridges Cafe.'
p2219
sg1108
(lp2220
(iGameClasses
Enemy
p2221
(dp2222
g12
S"I've been looking for you. Especially after what you did last night.\nI recommend you seek out the profs if you are to find your ring...\nOnly they can right the wrongs you have done."
p2223
sg3
(I999
I999
I999
tp2224
sg5
S'Hooded Man'
p2225
sg1115
g66
sg37
I01
sg1117
Nsg1118
I00
sg19
I999
sg20
(I5
I4
I1
tp2226
sg1119
Nsg40
I00
sg1120
g66
sg1121
g66
sba(iGameClasses
Enemy
p2227
(dp2228
g12
S"'Wait... I recognize you... you have a $420E69 tab!'"
p2229
sg3
(I15
I20
I10
tp2230
sg5
S'Megan the Bartender'
p2231
sg1115
S'meow mix'
p2232
sg37
I01
sg1117
Nsg1118
I00
sg19
I20
sg20
g2226
sg1119
Nsg40
I00
sg1120
g66
sg1121
S'Nuuuuuuuuuuuu'
p2233
sbasg5
S'The Phoenix'
p2234
sg1124
(lp2235
sg1126
(lp2236
sg1128
g1132
sg1135
g2226
sg1136
S"Upon entering, a rush of memories from last night enter your mind.\nPeople's faces are a blur but you somewhat recall '16 tequila shots' as something you said.\nYou see a mysterious Hooded Man as he beckons you to come over."
p2237
sg1138
I1
sg1139
I01
sba(iGameClasses
Map
p2238
(dp2239
g12
S'PHOENIX LOFT:\nYou can only go back down the stairs.'
p2240
sg1108
(lp2241
sg5
S'The Pheonix Loft'
p2242
sg1124
(lp2243
g965
ag427
asg1126
(lp2244
sg1128
(g1129
g1130
g1131
g1132
g1180
tp2245
sg1135
g433
sg1136
S'The history up here is incredible. So many relics from a time long past.\nFrom old costumes from plays to furniture.\nAfter a quick Shakespearean sonnet you think of what to do next.'
p2246
sg1138
I1
sg1139
I01
sbaNaa(lp2247
Na(iGameClasses
Map
p2248
(dp2249
g12
S'TRAIL TO PHOENIX:\nBates lies in front of you. The Phoenix at your rear.\nThe Tandem Accelerator is to your left.'
p2250
sg1108
(lp2251
(iGameClasses
Enemy
p2252
(dp2253
g12
S"'MHhmgh, Soouh whatu we getta druuuunk'"
p2254
sg3
(I10
I5
I1
tp2255
sg5
S'Phil the drunk'
p2256
sg1115
S'vomit'
p2257
sg37
I01
sg1117
Nsg1118
I00
sg19
I15
sg20
g604
sg1119
S"phil's braces"
p2258
sg40
I00
sg1120
S"'UHhhh i thinka im gonna- im gon-'\nPhil vomits."
p2259
sg1121
S'mhmh spooky ghost urggh ectoplasm noooooo'
p2260
sbasg5
S'Trail'
p2261
sg1124
(lp2262
g598
asg1126
(lp2263
sg1128
g1132
sg1135
g604
sg1136
S"Longboarding down this trail going Mach 16 was a blast and a half.\nDodging deer and first years like it's some sort of cube runner.\nNice."
p2264
sg1138
I1
sg1139
I00
sbaNaNaa(lp2265
Na(iGameClasses
Map
p2266
(dp2267
g12
S'BATES:\nLOT M lies in front of you. Keyes is to your left.\nThe trail to the Phoenix is behind you.'
p2268
sg1108
(lp2269
sg5
S'Bates'
p2270
sg1124
(lp2271
g987
a(iGameClasses
Interact
p2272
(dp2273
g12
S'Old RCA TV with VHS slot...'
p2274
sg5
S'RCA TV'
p2275
sg1115
g66
sg1118
I00
sg20
g993
sg1119
S'tarzan vhs'
p2276
sg1120
S"You put the VHS into the slot and press play...\nThe opening scenes to Tarzan begin but suddenly the screen goes black and a message\nis displayed!\n'DrOWN I Need EveryThing graBs'"
p2277
sbasg1126
(lp2278
sg1128
g1132
sg1135
g993
sg1136
S'Memories of ridiculous res parties fill your mind.\nYou also recall the landfill of a room that was more of a circus attraction\nthan a living space.\nOh how distant first year seems...'
p2279
sg1138
I1
sg1139
I01
sbaNaNaa(lp2280
Na(iGameClasses
Map
p2281
(dp2282
g12
S'LOT M:\nTo your left is the bridge. Bates is behind you.'
p2283
sg1108
(lp2284
(iGameClasses
Enemy
p2285
(dp2286
g12
S"'Righteous! Could you help me get into my car?\nI lost my keys and can't find my car.\nI REALLY need what is in there.'"
p2287
sg3
(I14
I20
I5
tp2288
sg5
S'Rod the climber'
p2289
sg1115
S'delicious meal'
p2290
sg37
I01
sg1117
Nsg1118
I00
sg19
I40
sg20
g50
sg1119
S'bowling ball'
p2291
sg40
I00
sg1120
S'Thanks!\nNow I can learn to bowl that perfect strike.\nTake this, I just cooked it up.'
p2292
sg1121
S'Ouch!'
p2293
sbasg5
S'Lot M'
p2294
sg1124
(lp2295
g754
ag695
ag43
ag348
asg1126
(lp2296
sg1128
(g1129
g1132
tp2297
sg1135
g50
sg1136
S'After 3 days of hiking you arrive at Lot M.\nAfter 2 more days of looking for your car you give up and contemplate what to do next.'
p2298
sg1138
I1
sg1139
I00
sbaNaNaa(lp2299
NaNaNaNaa(lp2300
(lp2301
NaNaNaNaa(lp2302
(iGameClasses
Map
p2303
(dp2304
g12
S'SECRET ROOM:\nYou can only climb up and out.'
p2305
sg1108
(lp2306
sg5
S'Secret Room'
p2307
sg1124
(lp2308
(iGameClasses
Interact
p2309
(dp2310
g12
S"You blow the dust off, open it, and read:\n'The ability to peer into history would be a most formidable power.'\n'I have potentially produced a piece of the puzzle but without a\n'device capable of maintaining the field density long enough I fear\n'it will never become a reality.'\n'Thus I have decided to hide my invention until the time comes where\nsomeone can realize my dream.'\n'If you are reading this, find the place where you can see\ncampus in its entirety.'\n'If you ARE the hero, the next steps shall be revealed.'\n-M. Faraday"
p2311
sg5
S'Old Journal'
p2312
sg1115
g66
sg1118
I00
sg20
(I6
I1
I0
tp2313
sg1119
g66
sg1120
g66
sbasg1126
(lp2314
sg1128
(g1129
g1130
g1131
g1132
g1133
tp2315
sg1135
g2313
sg1136
S"You inspect the floorboards and find one is loose.\nUpon lifting it you reveal a secret room!\nYou climb down and find yourself surrounded by stacks of ancient books and\nforgotten items from McMaster's past."
p2316
sg1138
I1
sg1139
I01
sba(iGameClasses
Map
p2317
(dp2318
g12
S'UNIVERSITY HALL:\nThe exit is to your left.'
p2319
sg1108
(lp2320
sg5
S'Inside University Hall'
p2321
sg1124
(lp2322
g1003
asg1126
(lp2323
sg1128
(g1132
g1130
g1129
tp2324
sg1135
(I6
I1
I1
tp2325
sg1136
S'The glares from portraits of old white founding fathers intimidate you.\nThe memories of failing midterms in their presence sends you into an almost trance-like state.\nYou notice that the portrait of Keyes totally looks like Stephen Fry.\nAfter talking yourself out of stealing a piece of Mac history you plan your next move.'
p2326
sg1138
I1
sg1139
I01
sba(iGameClasses
Map
p2327
(dp2328
g12
S'2ND FLOOR UH:\nYou can only go back down the stairs.'
p2329
sg1108
(lp2330
sg5
S'2nd Floor UH'
p2331
sg1124
(lp2332
(iGameClasses
Interact
p2333
(dp2334
g12
S'Looks like a set of glasses with multiple coloured lenses...'
p2335
sg5
S'Tri-Coloured Glasses'
p2336
sg1115
Nsg1118
I00
sg20
(I6
I1
I2
tp2337
sg1119
S'declaration of independence'
p2338
sg1120
S"Its a cipher...\nOn the back of the declaration you can see different coded messages using the coloured lenses...\nRED:'Lithium Carbon Boron Mangnesium(-g)'\nBLUE:'Jerry likes presents.'\nGREEN:'Guardians of De Galaxy character.'"
p2339
sbasg1126
(lp2340
sg1128
(g1129
g1130
g1131
g1132
g1180
tp2341
sg1135
g2337
sg1136
S'You make your way up the rickety staircase into a room from a time long past.\nYou notice a dust covered table with some old instruments and clutter thrown about.'
p2342
sg1138
I1
sg1139
I01
sbaNaa(lp2343
NaNaNaNaa(lp2344
NaNaNaNaa(lp2345
NaNaNaNaa(lp2346
NaNaNaNaa(lp2347
NaNaNaNaa(lp2348
NaNaNaNaa(lp2349
NaNaNaNaatp2350
a(dp2351
S'dr. soleymani'
p2352
g1169
sS'dr. knights'
p2353
(iGameClasses
Enemy
p2354
(dp2355
g12
S"'Whoever took the 3W Textbook from the QT shall feel my eternal wrath...'"
p2356
sg3
(I200
I100
I50
tp2357
sg5
S'Dr. Knights'
p2358
sg1115
S'cold beer'
p2359
sg37
I01
sg1117
Nsg1118
I00
sg19
I300
sg20
(NNNtp2360
sg1119
S'3w textbook'
p2361
sg40
I00
sg1120
S"'I've been looking all over for that, have a cold one on me!'\n'But before you go you should know that a difficult road lies ahead.'\n'It will not be easy to have your Iron Ring returned to you'\n'Dr. Haugen should be the one you seek next.'"
p2362
sg1121
S"'What are you doing?!'"
p2363
sbsS'bill the mac cop'
p2364
g1946
sS'dr. kleimann'
p2365
(iGameClasses
Enemy
p2366
(dp2367
g12
S"'We have been looking for you.'\n'The Department is not pleased...'\n'But first, the McMaster Police have confiscated my Solar Cell, go get it.'\n'Then, maybe you are truly worthy of continuing this quest.'"
p2368
sg3
(I300
I150
I100
tp2369
sg5
S'Dr. Kleimann'
p2370
sg1115
S'solar ray'
p2371
sg37
I01
sg1117
Nsg1118
I00
sg19
I300
sg20
g2360
sg1119
S'solar cell'
p2372
sg40
I00
sg1120
S"You sit down and listen to what Dr. Kleimann has to say...\n'You have awoken an ancient force that hasn't stirred in many years'.\n'You didn't think we would find out what you did but we know all.'\n'It had been prophecized that an adventurer would dictate the future of the faculty...'\n'Only The Quantum Order can assist you now, seek out Dr. Minnick. I wish you luck...'"
p2373
sg1121
S'You have betrayed The Order!'
p2374
sbsS'mario the mixologist'
p2375
g1431
sS'sir william mcmaster'
p2376
(iGameClasses
Enemy
p2377
(dp2378
g12
S"'You must rid the university of the evil Dr. Cassidy has planned!'"
p2379
sg3
(I175
I125
I100
tp2380
sg5
S'Sir William McMaster'
p2381
sg1115
S'iron ring'
p2382
sg37
I01
sg1117
Nsg1118
I00
sg19
I125
sg20
g2360
sg1119
g66
sg40
I00
sg1120
g66
sg1121
S"The spirit of Sir William McMaster bursts with a fiercely bright explosion.\nYou look down to see your Iron Ring as well as the deed to McMaster!\nDr. Cassidy quickly picks up the deed and turns to you.\n'Excellent!' he says coupled with maniacal laughter.\n'Too fulfill your true destiny, take the power you hold in your Iron Ring and destroy all of the professors'\n'Only after they are gone can Engineering Physics truly reign supreme!'"
p2383
sbsS'will the mac cop'
p2384
g2039
sS'eric the baller'
p2385
g1251
sS'dan fitzgreen'
p2386
(iGameClasses
Enemy
p2387
(dp2388
g12
S"Hello, although I've turned to the dark side to do Physics Labs\n I'm still a great guy. Did I mention I worked at CERN!?"
p2389
sg3
(I100
I75
I100
tp2390
sg5
S'Dan Fitzgreen'
p2391
sg1115
S'ambifacient lunar waneshaft'
p2392
sg37
I01
sg1117
Nsg1118
I00
sg19
I400
sg20
g2360
sg1119
g66
sg40
I00
sg1120
S"'Been a lot stirring around the faculty since last night.'\n'I used to be an adventurous student like you before the High Council and I decided to part ways.'\n'I know what you seek and I am here to help.'\n'You need to fire up that old reactor in the basement of the Tandem Accelerator.'\n'It needs some sort of high power instrument to bring it to life...'\n'I think Dr. Nagasaki has been working on something like that, he is probably somewhere in ITB.'\n'He will likely need this...'"
p2393
sg1121
S"I'm moving to the physics department"
p2394
sbsS'yourself'
p2395
g1721
sS'dr. buijs'
p2396
(iGameClasses
Enemy
p2397
(dp2398
g12
S"'I've been looking for you.'\n'I have a lot to tell you, but first we must test your loyalty.'\n'There is a traitor amongst the Eng Phys faculty!'\n'His name is Chris and he was last seen in the Tandem Accelerator.'\n'Bring me what he has stolen!'"
p2399
sg3
(I250
I150
I100
tp2400
sg5
S'Dr. Buijs'
p2401
sg1115
S'voltage divider'
p2402
sg37
I01
sg1117
Nsg1118
I00
sg19
I300
sg20
g2360
sg1119
S'capstone tools'
p2403
sg40
I00
sg1120
S"'Ah you have returned.'\nYou sit down and listen to what Dr. Buijs has to say.\n'The Engineering Physics professors are part of an ancient council known as\nThe Quantum Order'\n'It is our duty to ensure the safety of this campus.'\n'It appears that your actions last night have stirred an evil\neven we don't understand.'\n'All that we do know is that some faculty members have been\ntempted by a Dark Lord with the promise of infinite knowledge.'\n'A prophecy from a time long past has foretold that an adventurer's decisions\nwould dictate the future of the faculty.'\n'Perhaps it is you they spoke of. Keep that in mind as you consider your actions.'\n'See Dan Fitzgreen in the basement.'\n'He has hatched a plan that may turn the balances in our favour.'"
p2404
sg1121
S'It is a voltage divider!'
p2405
sbsS'kenrick'
p2406
g1868
sS'dr. haugen'
p2407
(iGameClasses
Enemy
p2408
(dp2409
g12
S"'Hello, as you are likely aware, there has been a disturbance...'\n'You losing your Iron Ring was no accident, it was taken from you.'\n'The Quantum Order is an ancient fold whose goal is to protect the\nUniversity from certain doom and misuse of our knowledge.'\n'There has been an item of importance stolen from us and we need it returned immediately.'\n'Especially if you are to find your Iron Ring.'\n'The council has received intelligence that Dr. Soleymani has stolen Einstein's brain from the McMaster vault.'\n'You must retrieve it at once, she can be found somewhere in the hospital.'\n'Do not underestimate her! She has been tempted by a Dark Lord.'\n'The Quantum Order requires that you defeat her and return the brain at once!'"
p2410
sg3
(I250
I100
I999
tp2411
sg5
S'Dr. Haugen'
p2412
sg1115
S'femtosecond laser'
p2413
sg37
I01
sg1117
Nsg1118
I00
sg19
I200
sg20
g2360
sg1119
S"einstein's brain"
p2414
sg40
I00
sg1120
S"'Oh my! You've returned! I knew you could do it!'\n'Quickly, hand it over!'\nYou hand Dr. Haugen the brain and he opens the fridge placing it inside.\n'Now, we just need to mount my laser onto my bench-'\nSuddenly a rabid Grad Student bursts into the lab!\n'Hand over the brain, the Dark Lord demands it!' he says.\n'If you strike me down, I will become more powerful than\nyou could possibly imagine' Dr. Haugen replies.\nThe Grad Student lunges at Dr. Haugen who disappears entirely!\nJust before the perplexed Grad Student turns towards you he is met by your blow\nand falls to the floor."
p2415
sg1121
S'Oh my!'
p2416
sbsS'doug'
p2417
g1721
sS'chris'
p2418
g2118
sS'dr. preston'
p2419
(iGameClasses
Enemy
p2420
(dp2421
g12
S"'I would like to improve my already impressive dad strength.'\n'Bring me a dumbbell.'"
p2422
sg3
(I250
I150
I100
tp2423
sg5
S'Dr. Preston'
p2424
sg1115
S'green lantern shirt'
p2425
sg37
I01
sg1117
Nsg1118
I00
sg19
I300
sg20
g2360
sg1119
S'dumbbell'
p2426
sg40
I00
sg1120
S"'Yes! Now I can get the pump I've been after!'\n'Go look for Dr. Buijs he has much more to tell than I.'"
p2427
sg1121
S'HOW DID YOU OVERCOME MY DAD STRENGTH?!'
p2428
sbsS'dr. nagasaki'
p2429
g1285
sS'connor the biologist'
p2430
g1567
sS'dr. novog'
p2431
(iGameClasses
Enemy
p2432
(dp2433
g12
S"What's up folks?"
p2434
sg3
(I420
I420
I420
tp2435
sg5
S'Dr. Novog'
p2436
sg1115
S'ancient incantation'
p2437
sg37
I01
sg1117
Nsg1118
I00
sg19
I100
sg20
g2360
sg1119
S'pink donut'
p2438
sg40
I00
sg1120
S"'Alright folks, here's the scoop.'\n'I could only talk to you via the fusion network because the integrity of faculty\ncommunication has been compromised.'\n'The Engineering Physics professors are actually members of an Ancient Council known as The Quantum Order.'\n'For years we have kept McMast-'\n'An assassin?'\n'Hmm... I see, things are worse than we thought.'\n'We have known of this uprising within the faculty for some time but\nwere unaware of just how strong they have grown.'\n'As you have heard, a prophecy foretold of an adventurer dictating the future of the faculty.'\n'This evil group wants nothing more than to take advantage of your power and influence for their own plans.'\n'The choices you make will be yours and yours alone, however, the Quantum Order\nurges that you consider the consequences of your actions.'\n'It is our duty to assist you in realizing your ability but what comes of your power is out of our hands.'\n'You must contact the oracles who foretold of your coming, they will give you the knowledge you require.'\n'Each member of the Quantum Order only knows of the location one Oracle.'\n'For that reason I can only help you so much.'\nDr. Novog pushes a button on a nearby control panel.\nA crane arm descends into the Reactor pool to retrieve a crate from its depths.\n'Take this incantation and find the ancient mirror in the basement of Mills Library... it is your time.'"
p2439
sg1121
g66
sbsS'mitch the ta'
p2440
g1217
sS'rod the climber'
p2441
g2285
sS'jana the vegan'
p2442
g2205
sS'steven the first-year'
p2443
g1962
sS'dr. minnick'
p2444
(iGameClasses
Enemy
p2445
(dp2446
g12
S"'Hello and welcome to how we retrieve your iron ring.'\n'The Quantum Order does not know exactly what you have done.'\n'However, we have felt the consequences of your actions.'\n'I believe the only way to explain this is to show you.'\n'The Quantum Order has gathered intelligence that Kenrick has been using\nhis oscilloscope for evil.'\n'I need you to confront him and return his oscilloscope if we are to go further.'"
p2447
sg3
(I400
I400
I400
tp2448
sg5
S'Dr. Minnick'
p2449
sg1115
S"minnick's glasses"
p2450
sg37
I01
sg1117
Nsg1118
I00
sg19
I200
sg20
g2360
sg1119
S"kenrick's oscilloscope"
p2451
sg40
I00
sg1120
S"'Ah, you have returned.'\n'You see, Kenrick has retrofitted his oscilloscope and created some sort\nof 'window' into the electronics world.'\n'Using this window he has been attempting to access the minds of the greatest\nphysicists in history and use their power for evil!'\n'Our intelligence does not go any further and we do not know what he has done.'\n'All that we do know is that after last night you must be rooted in all of this just as the prophecy foretold.'\n'Take these, if you truly are the one, they will reveal what you need to see.'\n'I suggest you start in the museum.'\n'Also, my lab has since been compromised so I will work in secret in the basement of Thode.'\n'Once you have found the next relic, my workbench will be ready...'"
p2452
sg1121
S"'I'm jealous of stupid people, they have more opportunities to learn!'"
p2453
sbsS'brendan fallon'
p2454
(iGameClasses
Enemy
p2455
(dp2456
g12
S"What's up dude? I'm here to bless up your shit.\nDo you have my lunch box?"
p2457
sg3
(I9999
I9999
I9999
tp2458
sg5
S'Brendan Fallon'
p2459
sg1115
S'green bang bong'
p2460
sg37
I01
sg1117
Nsg1118
I00
sg19
I999
sg20
g2360
sg1119
S"brendan fallon's lunchbox"
p2461
sg40
I00
sg1120
S'THANKS! TOKE UP MY DUDES!'
p2462
sg1121
g66
sbsS'paul the janitor'
p2463
g1268
sS'dr. kitai'
p2464
(iGameClasses
Enemy
p2465
(dp2466
g12
S"Sorry I need to go see the windshield people.\nBut I've been trying to develop a new LED...'\n'But I need some silicon, find me a Silicon Substrate please!'"
p2467
sg3
(I150
I50
I50
tp2468
sg5
S'Dr. Kitai'
p2469
sg1115
S'led of power'
p2470
sg37
I01
sg1117
Nsg1118
I00
sg19
I150
sg20
g2360
sg1119
S'silicon substrate'
p2471
sg40
I00
sg1120
S"'I've been looking for one just like this, how did you get it?'\n'Maybe you are th-'\n'Nevermind... just be on the lookout for Dr. Kleiman.'"
p2472
sg1121
S"'It was only a midterm, don't off yourself.'"
p2473
sbsS'hooded man'
p2474
g2221
sS'liam the gamer'
p2475
g1902
sS'zack the snack'
p2476
g1702
sS'larry the bus driver'
p2477
g1630
sS'megan the bartender'
p2478
g2227
sS'dr. lapierre'
p2479
(iGameClasses
Enemy
p2480
(dp2481
g12
S"'Bring me a Coffee please, Daniel Parent is failing me as a research student.\n I am rather tired.'"
p2482
sg3
(I100
I100
I200
tp2483
sg5
S'Dr. LaPierre'
p2484
sg1115
S'eng phys usb pen'
p2485
sg37
I01
sg1117
Nsg1118
I00
sg19
I300
sg20
g2360
sg1119
S'coffee'
p2486
sg40
I00
sg1120
S'Here is a nice pen for your troubles.\nGo find Dr. Knights, he has more for you to do.'
p2487
sg1121
S"I can't believe you've done this."
p2488
sbsS'father frobenius'
p2489
g1604
sS'brian the weeb'
p2490
g1646
sS'phil the drunk'
p2491
g2252
sS'undead grad student'
p2492
g1588
sS'erik the sk8r'
p2493
g1110
sS'andreas the nerd'
p2494
g1835
sS'dr. cassidy'
p2495
(iGameClasses
Enemy
p2496
(dp2497
g12
S"'Yes, I was the one who sent you on this quest.'\n'My associates were no match for you, they did not have the strength to acquire the Relics for me.'\n'I know the Quantum Order has told you that the prophecy spoke of you bringing peace.'\n'You have been lead to believe the Order fights for what is just and fair.'\n'But you have been mislead.'\n'They only wish to keep the power of the Quantum Relics to themselves so that they\nalone decide the fate of the University.'\n'I only ever wanted to reveal the true power of Engineering Physics to the students.'\n'They thought my methods were unsafe.'\n'They thought the power I intended to reveal would pollute the minds of the students\nand cloud their judgement.'\n'The Quantum Order only wishes to suppress the true power we hold!'\n'They don't trust the students, they think they are incapable of managing the power I intended to give them.'\n'We are the premier stream and we deserve to rule McMaster as such!'\n'Join me, together we can harness the powers given to you by the oracles.'\n'With the relics we may enter the Shadow Realm and retrieve the deed to the university\nfrom the spirit of Sir William McMaster.'\n'We can then overthrow the Quantum Order and shape the university to our liking and\nfinally Engineering Physics will reign supreme!'\n\nJust as Dr. Cassidy finishes speaking the ground begins to shake and you are blinded\nby a glow emanating from the statue of Sir William McMaster.\nYou recover from shielding your eyes and see the spirit of William McMaster\nemerging from a rift in fabric of spacetime!\n'Just wait, hero.'\n'I took your Iron Ring from you after you desecrated my statue last night for a reason'\n'I have known of Dr. Cassidy's intentions for some time and as you are the one\nthe prophecy has spoken of I knew he would jump at this opportunity to take my deed.'\n'I had to find a way to force him into playing his hand.'\n'Now the opportunity to rid Engineering Physics of this tyrannical Dark Lord has come!'\nDr. Cassidy quickly interjects.\n'You see, he only wants to restrict the power of our faculty!'\n'Destroy him and we shall finally rule the university!'"
p2498
sg3
(I175
I125
I200
tp2499
sg5
S'Dr. Cassidy'
p2500
sg1115
g66
sg37
I01
sg1117
Nsg1118
I00
sg19
I125
sg20
g2360
sg1119
g66
sg40
I00
sg1120
g66
sg1121
S"Dr. Cassidy falls to the ground.\nThe spirit of Sir William McMaster approaches and puts his hand on your shoulder.\n'You have chosen wisely.'\n'Dr. Cassidy had been driven mad in his quest for ultimate power.'\n'You have ensured the safety of McMaster and remained true to your values.'\n'McMaster University is an institution meant to allow all facets of learning coexist in harmony.'\n'No faculty should rule over the rest.'\n'For your actions, I believe you are a worthy engineer.'\n'Here is your Iron Ring, continue to wear it with pride.'"
p2501
sbsa(dp2502
S'red book'
p2503
g2018
sS'workbench'
p2504
g1538
sS'rules sign'
p2505
g1681
sS'old car'
p2506
g1318
sS'red car'
p2507
g1306
sS'fridge'
p2508
g1488
sS'old painting'
p2509
g1811
sS'optical bench'
p2510
g1495
sS'garbage can'
p2511
g1674
sS'uneven earth'
p2512
g1980
sS'lenovo laptop'
p2513
g1729
sS'new car'
p2514
g1322
sS'mouse'
p2515
g1369
sS'coat of arms'
p2516
g1878
sS'rca tv'
p2517
g2272
sS'sharpxchange'
p2518
g1156
sS'tri-coloured glasses'
p2519
g2333
sS'mcmaster map'
p2520
g1397
sS'blue car'
p2521
g1311
sS'blue book'
p2522
g2014
sS'broken reactor'
p2523
g2103
sS'sun dial'
p2524
g1844
sS'old lamp'
p2525
g2175
sS'old journal'
p2526
g2309
sS'display case'
p2527
g1511
sS'ancient mirror'
p2528
g1998
sa(dp2529
S'secret spaces'
p2530
I1
sS'the dark lord'
p2531
I1
sS'create chaos'
p2532
I1
sS'preston get dumbbell'
p2533
I1
sS'kitai get silicon substrate'
p2534
I1
sS'knights get book'
p2535
I1
sS'lapierre get coffee'
p2536
I1
sS'talk to mysterious man'
p2537
I1
sS'minnick get oscilloscope'
p2538
I1
sS'maxwell portal'
p2539
I1
sS'feynman mirror'
p2540
I1
sS'EPTA all the way down'
p2541
I1
sS'kleimann get solar cell'
p2542
I1
sS'einstein fridge'
p2543
I1
sS'university man'
p2544
I1
sS'dan fix reactor'
p2545
I1
sS'get key to display case'
p2546
I1
sS'buijs kill chris'
p2547
I1
sS'haugen kill soleymani'
p2548
I1
sS'restored order'
p2549
I1
sS'novog get donut'
p2550
I1
sS'end game start'
p2551
I1
sa(dp2552
S'playername'
p2553
g6
sS'layersdeep'
p2554
I0
sS'timestart'
p2555
I0
sS'savepath'
p2556
S'D:\\Files\\bflaw\\Documents\\GitHub\\EngPhysAdventure\\cache\\'
p2557
sS'gamestart'
p2558
F1551996177.856
sS'commandcount'
p2559
I0
sS'log'
p2560
(lp2561
sS'stepcount'
p2562
I0
sS'version'
p2563
F0.27
sS'versionname'
p2564
S'Alpha v0.28 - '
p2565
sS'runtime'
p2566
I0
sa.