(lp0
(iGameClasses
Character
p1
(dp2
S'stats'
p3
(I1130
I1160
I1130
tp4
sS'name'
p5
S'Doug'
p6
sS'inv'
p7
(dp8
S'body'
p9
(iGameClasses
Equipment
p10
(dp11
S'info'
p12
S'The sacred chainmail forged by the legend himself'
p13
sg3
(I25
I50
I25
tp14
sg5
S'Okons Chainmail'
p15
sS'image'
p16
S'OkonMail.jpg'
p17
sS'worn'
p18
g9
sS'health'
p19
S''
p20
sS'location'
p21
(lp22
I3
aI1
aI1
asbsS'head'
p23
(iGameClasses
Equipment
p24
(dp25
g12
S'You can feel the electromagnetic energy emanating from it, one of the 3 quantum relics'
p26
sg3
(I100
I100
I100
tp27
sg5
S'Gauss Eye'
p28
sg16
S'GaussEye.jpg'
p29
sg18
g23
sg19
g20
sg21
g22
sbsS'off-hand'
p30
(iGameClasses
Equipment
p31
(dp32
g12
S'The Lunch Box of an Ancient Hero. Full of samosas'
p33
sg3
(I5
I10
I5
tp34
sg5
S"Brendan Fallon's Lunchbox"
p35
sg16
S'Lunchbox.jpg'
p36
sg18
S'off-hand'
p37
sg19
g20
sg21
g22
sbsS'hand'
p38
(iGameClasses
Equipment
p39
(dp40
g12
S'The One Ring to Rule them ALL.'
p41
sg3
(I1000
I1000
I1000
tp42
sg5
S'Iron Ring'
p43
sg16
S'IronRing.jpg'
p44
sg18
g38
sg19
I-1000
sg21
g22
sbssS'emptyinv'
p45
(dp46
g9
(iGameClasses
Equipment
p47
(dp48
g12
S'Nothing is Equipped'
p49
sg3
(I0
I0
I0
tp50
sg5
S'EMPTY'
p51
sg16
S'EMPTY.png'
p52
sg18
g9
sg19
I-101
sg21
g22
sbsg23
(iGameClasses
Equipment
p53
(dp54
g12
g49
sg3
(I0
I0
I0
tp55
sg5
g51
sg16
g52
sg18
g23
sg19
I-101
sg21
g22
sbsg30
(iGameClasses
Equipment
p56
(dp57
g12
g49
sg3
(I0
I0
I0
tp58
sg5
g51
sg16
g52
sg18
g30
sg19
I-101
sg21
g22
sbsg38
(iGameClasses
Equipment
p59
(dp60
g12
g49
sg3
(I0
I0
I0
tp61
sg5
g51
sg16
g52
sg18
g38
sg19
I-101
sg21
g22
sbssS'maxhealth'
p62
I100
sS'alive'
p63
I01
sS'basestats'
p64
(lp65
I0
aI0
aI0
asg19
I55
sg21
g22
sS'spoke'
p66
I00
sba(dp67
S'cheese'
p68
(iGameClasses
Equipment
p69
(dp70
g12
S'Not just cheddar, the smelly kind.'
p71
sg3
(I1
I1
I1
tp72
sg5
S'Cheese'
p73
sg16
S'Cheese.jpg'
p74
sg18
g37
sg19
I5
sg21
(NNNtp75
sbsS'delicious meal'
p76
(iGameClasses
Equipment
p77
(dp78
g12
S'A beautiful, home-cooked, meal.'
p79
sg3
(I1
I1
I1
tp80
sg5
S'Delicious Meal'
p81
sg16
S'Meal.jpg'
p82
sg18
g37
sg19
I25
sg21
(I5
I7
I1
tp83
sbsS'shovel'
p84
(iGameClasses
Equipment
p85
(dp86
g12
S'Call a spade a spade.'
p87
sg3
(I15
I0
I5
tp88
sg5
S'Shovel'
p89
sg16
S'Shovel.jpg'
p90
sg18
g38
sg19
g20
sg21
g75
sbsS'bowling ball'
p91
(iGameClasses
Equipment
p92
(dp93
g12
S'Heavy.'
p94
sg3
(I20
I15
I-5
tp95
sg5
S'Bowling Ball'
p96
sg16
S'BowlingBall.jpg'
p97
sg18
g38
sg19
g20
sg21
(NNNtp98
sbsS'led of power'
p99
(iGameClasses
Equipment
p100
(dp101
g12
S'An LED with the power output of a neutron star, ok maybe not.'
p102
sg3
(I21
I0
I20
tp103
sg5
S'LED of Power'
p104
sg16
S'LED.jpg'
p105
sg18
g38
sg19
g20
sg21
(I4
I4
I1
tp106
sbsS'green bang bong'
p107
(iGameClasses
Equipment
p108
(dp109
g12
S"The sacred glass flute providing righteous tokes since '69."
p110
sg3
(I420
I420
I420
tp111
sg5
S'Green Bang Bong'
p112
sg16
S'GBB.jpg'
p113
sg18
g37
sg19
g20
sg21
(lp114
I2
aI3
aI1
asbsS'gas mask'
p115
(iGameClasses
Equipment
p116
(dp117
g12
S'No one cared who I was till I put on the mask.'
p118
sg3
(I3
I6
I5
tp119
sg5
S'Gas Mask'
p120
sg16
S'GasMask.jpg'
p121
sg18
g23
sg19
g20
sg21
(I3
I5
I1
tp122
sbsS'surgical mask'
p123
(iGameClasses
Equipment
p124
(dp125
g12
S"Don't touch me I'm sterile!"
p126
sg3
(I0
I2
I3
tp127
sg5
S'Surgical Mask'
p128
sg16
S'SurgicalMask.jpg'
p129
sg18
g23
sg19
g20
sg21
(I0
I1
I1
tp130
sbsS'tofu'
p131
(iGameClasses
Equipment
p132
(dp133
g12
S"Vegan's delight."
p134
sg3
(I1
I0
I5
tp135
sg5
S'Tofu'
p136
sg16
S'Carrot.jpg'
p137
sg18
g38
sg19
I2
sg21
(I5
I4
I0
tp138
sbsS'jar of horse radish'
p139
(iGameClasses
Equipment
p140
(dp141
g12
S'Apparently not an instrument...'
p142
sg3
(I2
I0
I4
tp143
sg5
S'Jar of Horse Radish'
p144
sg16
S'HRaddish.jpg'
p145
sg18
g37
sg19
I3
sg21
(I4
I5
I1
tp146
sbsS'gilded blunderbuss'
p147
(iGameClasses
Equipment
p148
(dp149
g12
S'A beautiful firearm with infinite ammo.'
p150
sg3
(I200
I5
I50
tp151
sg5
S'Gilded Blunderbuss'
p152
sg16
S'Blunderbuss.jpg'
p153
sg18
g38
sg19
g20
sg21
(I0
I5
I2
tp154
sbsS'squash racket'
p155
(iGameClasses
Equipment
p156
(dp157
g12
S"Dr. Buijs' Racket? Voltage Divider!"
p158
sg3
(I5
I0
I8
tp159
sg5
S'Squash Racket'
p160
sg16
S'Racket.jpg'
p161
sg18
g38
sg19
g20
sg21
(I5
I0
I1
tp162
sbsS'tarzan vhs'
p163
(iGameClasses
Equipment
p164
(dp165
g12
S'If only I had a VCR...'
p166
sg3
(I0
I2
I6
tp167
sg5
S'Tarzan VHS'
p168
sg16
S'Tarzan.jpg'
p169
sg18
g37
sg19
I3
sg21
(I0
I2
I1
tp170
sbsS'bike helmet'
p171
(iGameClasses
Equipment
p172
(dp173
g12
S'One of those fast Tour de France ones.'
p174
sg3
(I0
I8
I10
tp175
sg5
S'Bike Helmet'
p176
sg16
S'BikeHelmet.jpg'
p177
sg18
g23
sg19
g20
sg21
(I3
I7
I1
tp178
sbsS'empty bottle'
p179
(iGameClasses
Equipment
p180
(dp181
g12
S'Dasani, more like Dishonest! Amirite?!'
p182
sg3
(I1
I0
I1
tp183
sg5
S'Empty Bottle'
p184
sg16
S'EmptyBottle.jpg'
p185
sg18
g38
sg19
g20
sg21
(I4
I1
I1
tp186
sbsS'hard hat'
p187
(iGameClasses
Equipment
p188
(dp189
g12
S"You don't really want to look like a Civil kid. But at least it protects your head."
p190
sg3
(I1
I10
I5
tp191
sg5
S'Hard Hat'
p192
sg16
S'HardHat.jpg'
p193
sg18
g23
sg19
g20
sg21
(I4
I2
I1
tp194
sbsS'priest gown'
p195
(iGameClasses
Equipment
p196
(dp197
g12
S'Wearing this gives people the impression you are a holy person...'
p198
sg3
(I1
I5
I3
tp199
sg5
S'Priest Gown'
p200
sg16
S'Gown.jpg'
p201
sg18
g9
sg19
g20
sg21
(I2
I0
I2
tp202
sbsS'used plunger'
p203
(iGameClasses
Equipment
p204
(dp205
g12
S'Used. Lovely...'
p206
sg3
(I10
I0
I10
tp207
sg5
S'Used Plunger'
p208
sg16
S'Plunger.jpg'
p209
sg18
g38
sg19
g20
sg21
(I5
I0
I0
tp210
sbsS'dumbbell'
p211
(iGameClasses
Equipment
p212
(dp213
g12
S'The pump is the greatest feeling in the world.'
p214
sg3
(I5
I0
I2
tp215
sg5
S'Dumbbell'
p216
sg16
S'Dumbbell.jpg'
p217
sg18
g37
sg19
g20
sg21
(NNNtp218
sbsS'febreze'
p219
(iGameClasses
Equipment
p220
(dp221
g12
S'Kills 99.9% of odour at the source!'
p222
sg3
(I6
I0
I10
tp223
sg5
S'Febreze'
p224
sg16
S'Ferbreze.jpg'
p225
sg18
g38
sg19
I-4
sg21
(I1
I0
I1
tp226
sbsS'msp430'
p227
(iGameClasses
Equipment
p228
(dp229
g12
S'A literal piece of garbage.'
p230
sg3
(I-5
I0
I-5
tp231
sg5
S'MSP430'
p232
sg16
S'MSP430.jpg'
p233
sg18
g38
sg19
I-5
sg21
(I2
I3
I1
tp234
sbsS'declaration of independence'
p235
(iGameClasses
Equipment
p236
(dp237
g12
S"I'm going to steal the Declaration of Independence..."
p238
sg3
(I1
I1
I1
tp239
sg5
S'Declaration of Independence'
p240
sg16
S'DOI.jpg'
p241
sg18
g37
sg19
g20
sg21
g178
sbsS'horrible assignment'
p242
(iGameClasses
Equipment
p243
(dp244
g12
S'A barely legible report on Fourier analysis.'
p245
sg3
(I3
I0
I0
tp246
sg5
S'Horrible Assignment'
p247
sg16
S'BadAss.jpg'
p248
sg18
g37
sg19
g20
sg21
g218
sbsS'pope hat'
p249
(iGameClasses
Equipment
p250
(dp251
g12
S'Does the Pope where a silly hat? Now you do.'
p252
sg3
(I0
I3
I2
tp253
sg5
S'Pope Hat'
p254
sg16
S'PopeHat.jpg'
p255
sg18
g23
sg19
g20
sg21
g202
sbsS'bottle opener'
p256
(iGameClasses
Equipment
p257
(dp258
g12
S'I wish I had a bottle of wine right about now...'
p259
sg3
(I0
I5
I15
tp260
sg5
S'Bottle Opener'
p261
sg16
S'BottleOpener.jpg'
p262
sg18
g37
sg19
g20
sg21
g178
sbsS'car keys'
p263
(iGameClasses
Equipment
p264
(dp265
g12
S"Volkswagen car keys with an 'R' on the keychain.\nHmm..."
p266
sg3
(I5
I0
I5
tp267
sg5
S'Car Keys'
p268
sg16
S'CarKeys.jpg'
p269
sg18
g37
sg19
g20
sg21
g194
sbsS"erik's frosted tips"
p270
(iGameClasses
Equipment
p271
(dp272
g12
S'Ever wanted to look rad as hell? Now you can!'
p273
sg3
(I0
I3
I20
tp274
sg5
S"Erik's Frosted Tips"
p275
sg16
S'FrostedTips.jpg'
p276
sg18
g23
sg19
g20
sg21
(I0
I0
I0
tp277
sbsS'pedrotti cubed'
p278
(iGameClasses
Equipment
p279
(dp280
g12
S"'Property of Harold Haugen, one of the 3 Quantum Relics' is inscribed on the first page."
p281
sg3
(I50
I150
I250
tp282
sg5
S'Pedrotti Cubed'
p283
sg16
S'Pedrotti.jpg'
p284
sg18
g37
sg19
g20
sg21
(I3
I3
I1
tp285
sbsS'puke'
p286
(iGameClasses
Equipment
p287
(dp288
g12
S'Ew, literally a pool of vomit'
p289
sg3
(I1
I0
I-10
tp290
sg5
S'Puke'
p291
sg16
S'Puke.jpg'
p292
sg18
g9
sg19
I-2
sg21
g98
sbsS'adderall'
p293
(iGameClasses
Equipment
p294
(dp295
g12
S'Speed up, my dude!'
p296
sg3
(I0
I0
I50
tp297
sg5
S'Adderall'
p298
sg16
S'Adderall.jpg'
p299
sg18
g37
sg19
I2
sg21
(I5
I3
I1
tp300
sbsS'visor glasses'
p301
(iGameClasses
Equipment
p302
(dp303
g12
S'Damn, you are now travelling waaaay to fast. Slow down dude!'
p304
sg3
(I1
I5
I35
tp305
sg5
S'Visor Glasses'
p306
sg16
S'FastGlasses.jpg'
p307
sg18
g23
sg19
g20
sg21
(I3
I2
I1
tp308
sbsS'plastic bag'
p309
(iGameClasses
Equipment
p310
(dp311
g12
S'The audacity of some people to leave their filth around.'
p312
sg3
(I0
I1
I-10
tp313
sg5
S'Plastic Bag'
p314
sg16
S'PBag.jpg'
p315
sg18
g23
sg19
g20
sg21
(I2
I1
I1
tp316
sbsS'broken wine bottle'
p317
(iGameClasses
Equipment
p318
(dp319
g12
S'A broken wine bottle from 1996, good year.'
p320
sg3
(I10
I0
I5
tp321
sg5
S'Broken Wine Bottle'
p322
sg16
S'WineBottle.jpg'
p323
sg18
g38
sg19
g20
sg21
(I4
I3
I1
tp324
sbsS'jar of peanut butter'
p325
(iGameClasses
Equipment
p326
(dp327
g12
S'Death paste to those who are allergic... Could prove effective...'
p328
sg3
(I0
I5
I5
tp329
sg5
S'Jar of Peanut Butter'
p330
sg16
S'Peanut.jpg'
p331
sg18
g37
sg19
I5
sg21
(I4
I0
I1
tp332
sbsS'toilet seat'
p333
(iGameClasses
Equipment
p334
(dp335
g12
S'How do you even wear this?'
p336
sg3
(I0
I3
I2
tp337
sg5
S'Toilet Seat'
p338
sg16
S'Toilet.jpg'
p339
sg18
g9
sg19
g20
sg21
g210
sbsS'vh sauce'
p340
(iGameClasses
Equipment
p341
(dp342
g12
S'Sweet and sour. Nice.'
p343
sg3
(I1
I2
I1
tp344
sg5
S'VH Sauce'
p345
sg16
S'VHSauce.jpg'
p346
sg18
g37
sg19
I1
sg21
(I1
I4
I1
tp347
sbsS'banana'
p348
(iGameClasses
Equipment
p349
(dp350
g12
S'High in potassium.'
p351
sg3
(I5
I0
I5
tp352
sg5
S'Banana'
p353
sg16
S'Banana.jpg'
p354
sg18
g38
sg19
I2
sg21
(I1
I7
I1
tp355
sbsS'ice-cold pint'
p356
(iGameClasses
Equipment
p357
(dp358
g12
S'Ale of the Gods.'
p359
sg3
(I3
I0
I-5
tp360
sg5
S'Ice-Cold Pint'
p361
sg16
S'Pint.jpg'
p362
sg18
g37
sg19
I2
sg21
g324
sbsS'pencil'
p363
(iGameClasses
Equipment
p364
(dp365
g12
S'HB2. Sharpened.'
p366
sg3
(I2
I0
I5
tp367
sg5
S'Pencil'
p368
sg16
S'Pencil.jpg'
p369
sg18
g38
sg19
g20
sg21
(I2
I4
I1
tp370
sbsS'coffee'
p371
(iGameClasses
Equipment
p372
(dp373
g12
S'The fuel of thinkers.'
p374
sg3
(I3
I0
I9
tp375
sg5
S'Coffee'
p376
sg16
S'Coffee.jpg'
p377
sg18
g37
sg19
I1
sg21
g218
sbsS'epipen'
p378
(iGameClasses
Equipment
p379
(dp380
g12
S"Epinephrine Autoinjector 0.3mg. Replace if discolored. Store at 68C.\nIncase of alergic reaction remove the top...wait, why are you reading \nthis label? Isn't there something else you should be doing? "
p381
sg3
(I7
I0
I5
tp382
sg5
S'EpiPen'
p383
sg16
S'EpiPen.jpg'
p384
sg18
g37
sg19
I-2
sg21
g83
sbsS'cold steel katana'
p385
(iGameClasses
Equipment
p386
(dp387
g12
S'This could probably kill a buffalo fish...'
p388
sg3
(I18
I5
I20
tp389
sg5
S'Cold Steel Katana'
p390
sg16
S'Katana.jpg'
p391
sg18
g38
sg19
g20
sg21
g98
sbsS'mop'
p392
(iGameClasses
Equipment
p393
(dp394
g12
S"I'm going to clean up this town."
p395
sg3
(I6
I0
I4
tp396
sg5
S'Mop'
p397
sg16
S'Mop.jpg'
p398
sg18
g38
sg19
g20
sg21
(I0
I0
I1
tp399
sbsS'swordfish'
p400
(iGameClasses
Equipment
p401
(dp402
g12
S"I'd better be careful eating this!"
p403
sg3
(I10
I5
I5
tp404
sg5
S'Swordfish'
p405
sg16
S'Swordfish.jpg'
p406
sg18
g37
sg19
I12
sg21
(I3
I3
I0
tp407
sbsS'ancient incantation'
p408
(iGameClasses
Equipment
p409
(dp410
g12
S'An old tattered scroll with an incantation written in Latin.'
p411
sg3
(I1
I1
I1
tp412
sg5
S'Ancient Incantation'
p413
sg16
S'Incantation.jpg'
p414
sg18
g37
sg19
g20
sg21
g75
sbsS'meow mix'
p415
(iGameClasses
Equipment
p416
(dp417
g12
S'I love chicken, I love liver...'
p418
sg3
(I5
I0
I5
tp419
sg5
S'Meow Mix'
p420
sg16
S'MeowMix.jpg'
p421
sg18
g37
sg19
I1
sg21
(I5
I4
I1
tp422
sbsS'gauss eye'
p423
g24
sS'phone'
p424
(iGameClasses
Equipment
p425
(dp426
g12
S"This thing has been dropped Graham's number times."
p427
sg3
(I5
I6
I9
tp428
sg5
S'Phone'
p429
sg16
S'Phone.jpg'
p430
sg18
g37
sg19
g20
sg21
(I0
I3
I1
tp431
sbsS'casio'
p432
(iGameClasses
Equipment
p433
(dp434
g12
S"This one can do integrals. That's illegal."
p435
sg3
(I1
I5
I10
tp436
sg5
S'Casio'
p437
sg16
S'Casio.jpg'
p438
sg18
g37
sg19
g20
sg21
(I2
I7
I1
tp439
sbsS'vomit'
p440
(iGameClasses
Equipment
p441
(dp442
g12
S'Literally spew.'
p443
sg3
(I0
I0
I1
tp444
sg5
S'Vomit'
p445
sg16
S'Vomit.jpg'
p446
sg18
g37
sg19
I-1
sg21
(I5
I5
I1
tp447
sbsS'bleach squirt bottle'
p448
(iGameClasses
Equipment
p449
(dp450
g12
S"Probably wouldn't be nice to get sprayed with."
p451
sg3
(I15
I5
I20
tp452
sg5
S'Bleach Squirt Bottle'
p453
sg16
S'Bleach.jpg'
p454
sg18
g38
sg19
I-10
sg21
(I0
I5
I1
tp455
sbsS'drumstick'
p456
(iGameClasses
Equipment
p457
(dp458
g12
S"'Property of E-Smooth'"
p459
sg3
(I0
I10
I15
tp460
sg5
S'Drumstick'
p461
sg16
S'Drumstick.jpg'
p462
sg18
g37
sg19
g20
sg21
(I5
I4
I2
tp463
sbsS"wendy's bag"
p464
(iGameClasses
Equipment
p465
(dp466
g12
S'Fully equipped with grease stains.'
p467
sg3
(I1
I0
I-5
tp468
sg5
S"Wendy's Bag"
p469
sg16
S'WendyBag.jpg'
p470
sg18
g23
sg19
g20
sg21
(I0
I6
I1
tp471
sbsS'empty bucket'
p472
(iGameClasses
Equipment
p473
(dp474
g12
S'The smell of cheap soap still lingers.'
p475
sg3
(I0
I10
I1
tp476
sg5
S'Empty Bucket'
p477
sg16
S'Bucket.jpg'
p478
sg18
g23
sg19
g20
sg21
g210
sbsS'old scroll'
p479
(iGameClasses
Equipment
p480
(dp481
g12
S"It reads:\n'A permanent title is too much to bear.'\n'My secret cache, is under there.'"
p482
sg3
(I0
I0
I0
tp483
sg5
S'Old Scroll'
p484
sg16
S'OldScroll.jpg'
p485
sg18
g37
sg19
g20
sg21
(I3
I4
I1
tp486
sbsS'pid control system'
p487
(iGameClasses
Equipment
p488
(dp489
g12
S'A PID control system. Kp = 69, my dude.'
p490
sg3
(I45
I0
I10
tp491
sg5
S'PID control system'
p492
sg16
S'PID.jpg'
p493
sg18
g23
sg19
g20
sg21
g98
sbsS'voltage divider'
p494
(iGameClasses
Equipment
p495
(dp496
g12
S'It is a Voltage Divider!'
p497
sg3
(I20
I25
I20
tp498
sg5
S'Voltage Divider'
p499
sg16
S'VDivider.jpg'
p500
sg18
g37
sg19
g20
sg21
(I2
I5
I1
tp501
sbsS'santa hat'
p502
(iGameClasses
Equipment
p503
(dp504
g12
S'Happy Holidays!'
p505
sg3
(I0
I3
I2
tp506
sg5
S'Santa Hat'
p507
sg16
S'SantaHat.jpg'
p508
sg18
g23
sg19
g20
sg21
g399
sbsS'banana wires'
p509
(iGameClasses
Equipment
p510
(dp511
g12
S'Alligator clips added for extra whippage.'
p512
sg3
(I8
I0
I8
tp513
sg5
S'Banana Wires'
p514
sg16
S'BanWires.jpg'
p515
sg18
g38
sg19
I3
sg21
(NNNtp516
sbsS'party hat'
p517
(iGameClasses
Equipment
p518
(dp519
g12
S'A nice hat from a cracker.'
p520
sg3
(I0
I5
I3
tp521
sg5
S'Party Hat'
p522
sg16
S'PartyHat.jpg'
p523
sg18
g23
sg19
g20
sg21
(I3
I6
I1
tp524
sbsS'potato'
p525
(iGameClasses
Equipment
p526
(dp527
g12
S'A most versatile vegetable.\nGood for breakfast, lunch, and dinner.'
p528
sg3
(I1
I1
I1
tp529
sg5
S'Potato'
p530
sg16
S'Potato.jpg'
p531
sg18
g37
sg19
I5
sg21
g98
sbsS'shampoo'
p532
(iGameClasses
Equipment
p533
(dp534
g12
S'Yeah, I could use a shower...'
p535
sg3
(I4
I0
I3
tp536
sg5
S'Shampoo'
p537
sg16
S'Shampoo.jpg'
p538
sg18
g37
sg19
g20
sg21
g399
sbsS'candlestick'
p539
(iGameClasses
Equipment
p540
(dp541
g12
S'Lumiere is up to no good.'
p542
sg3
(I7
I0
I5
tp543
sg5
S'Candlestick'
p544
sg16
S'Candlestick.jpg'
p545
sg18
g38
sg19
g20
sg21
(I4
I0
I0
tp546
sbsS'gamma glove'
p547
(iGameClasses
Equipment
p548
(dp549
g12
S'Shorter than it really is due to length contraction, one of the 3 Quantum Relics'
p550
sg3
(I250
I100
I20
tp551
sg5
S'Gamma Glove'
p552
sg16
S'GammaGauntlet.jpg'
p553
sg18
g38
sg19
g20
sg21
(I1
I6
I0
tp554
sbsS'clean needle'
p555
(iGameClasses
Equipment
p556
(dp557
g12
S"No more spreadin' disease!"
p558
sg3
(I9
I0
I9
tp559
sg5
S'Clean Needle'
p560
sg16
S'CleanNeedle.jpg'
p561
sg18
g38
sg19
g20
sg21
g98
sbsS'laser safety glasses'
p562
(iGameClasses
Equipment
p563
(dp564
g12
S'Protection from the UV, my dude.'
p565
sg3
(I0
I3
I5
tp566
sg5
S'Laser Safety Glasses'
p567
sg16
S'LSGlasses.jpg'
p568
sg18
g23
sg19
g20
sg21
g554
sbsS'goggles'
p569
(iGameClasses
Equipment
p570
(dp571
g12
S'Got PPE?'
p572
sg3
(I2
I0
I2
tp573
sg5
S'Goggles'
p574
sg16
S'Goggles.jpg'
p575
sg18
g23
sg19
g20
sg21
g308
sbsS'priceless painting'
p576
(iGameClasses
Equipment
p577
(dp578
g12
S'This painting is supposed to be worth millions...'
p579
sg3
(I1
I10
I5
tp580
sg5
S'Priceless Painting'
p581
sg16
S'Painting.jpg'
p582
sg18
g37
sg19
g20
sg21
(I3
I0
I1
tp583
sbsS'paint brush'
p584
(iGameClasses
Equipment
p585
(dp586
g12
S'You can feel the emotions of a failed arts student coursing through this thing.'
p587
sg3
(I5
I0
I5
tp588
sg5
S'Paint Brush'
p589
sg16
S'Brush.jpg'
p590
sg18
g37
sg19
g20
sg21
(I3
I1
I1
tp591
sbsS'old candle'
p592
(iGameClasses
Equipment
p593
(dp594
g12
S"Seems like it's had some use."
p595
sg3
(I0
I2
I2
tp596
sg5
S'Old Candle'
p597
sg16
S'OldCandle.jpg'
p598
sg18
g37
sg19
g20
sg21
(I2
I0
I0
tp599
sbsS"haugen's clothes"
p600
(iGameClasses
Equipment
p601
(dp602
g12
S'OH My. The clothes of the gentle dolphin now gone.\nFeels kinda wet.'
p603
sg3
(I5
I10
I10
tp604
sg5
S"Haugen's Clothes"
p605
sg16
S'HaugenShirt.jpg'
p606
sg18
g9
sg19
I10
sg21
g554
sbsS'3w textbook'
p607
(iGameClasses
Equipment
p608
(dp609
g12
S'Text book that probably has useful information if you could read it. Too bad it has never been in the QT'
p610
sg3
(I5
I5
I10
tp611
sg5
S'3W Textbook'
p612
sg16
S'3WText.jpg'
p613
sg18
g37
sg19
g20
sg21
g218
sbsS'fireball hat'
p614
(iGameClasses
Equipment
p615
(dp616
g12
S"Kind of like the hat you bought in first year and thought you'd wear forever..."
p617
sg3
(I0
I3
I1
tp618
sg5
S'Fireball Hat'
p619
sg16
S'EngHat.jpg'
p620
sg18
g23
sg19
g20
sg21
(I2
I2
I1
tp621
sbsS'raybans'
p622
(iGameClasses
Equipment
p623
(dp624
g12
S'GQ Teen says Raybans, Board Shorts, Vans, and a Muscle Tee.'
p625
sg3
(I0
I1
I3
tp626
sg5
S'Raybans'
p627
sg16
S'Raybans.jpg'
p628
sg18
g23
sg19
g20
sg21
g447
sbsS'pee bottle'
p629
(iGameClasses
Equipment
p630
(dp631
g12
S'It is literally a bottle of urine.'
p632
sg3
(I4
I0
I0
tp633
sg5
S'Pee Bottle'
p634
sg16
S'PeeBottle.jpg'
p635
sg18
g38
sg19
g20
sg21
g316
sbsS'huge shirt'
p636
(iGameClasses
Equipment
p637
(dp638
g12
S'This shirt is WAY too big'
p639
sg3
(I0
I5
I5
tp640
sg5
S'Huge Shirt'
p641
sg16
S'HugeShirt.jpg'
p642
sg18
g9
sg19
g20
sg21
g316
sbsS'joint of destiny'
p643
(iGameClasses
Equipment
p644
(dp645
g12
S"A tighly rolled spliff filled with Devil's lettuce... for real."
p646
sg3
(I420
I420
I420
tp647
sg5
S'Joint of Destiny'
p648
sg16
S'Joint.jpg'
p649
sg18
g37
sg19
g20
sg21
g98
sbsS'tony hawk shirt'
p650
(iGameClasses
Equipment
p651
(dp652
g12
S'A shirt personally made by tony hawk!'
p653
sg3
(I5
I5
I5
tp654
sg5
S'Tony Hawk Shirt'
p655
sg16
S'TonyHAwkShirt.jpg'
p656
sg18
g9
sg19
g20
sg21
g122
sbsS"phil's braces"
p657
(iGameClasses
Equipment
p658
(dp659
g12
S'Bark AND the bite.'
p660
sg3
(I3
I2
I1
tp661
sg5
S"Phil's Braces"
p662
sg16
S'PhilBraces.jpg'
p663
sg18
g23
sg19
g20
sg21
(I2
I5
I0
tp664
sbsS"kenrick's oscilloscope"
p665
(iGameClasses
Equipment
p666
(dp667
g12
S'The window into the electronics world...'
p668
sg3
(I0
I150
I50
tp669
sg5
S"Kenrick's Oscilloscope"
p670
sg16
S'Oscilloscope.jpg'
p671
sg18
g37
sg19
g20
sg21
g218
sbsS'femtosecond laser'
p672
(iGameClasses
Equipment
p673
(dp674
g12
S"Haugen's personal femtosecond laser."
p675
sg3
(I125
I0
I999
tp676
sg5
S'Femtosecond Laser'
p677
sg16
S'Laser.jpg'
p678
sg18
g38
sg19
g20
sg21
g75
sbsS'cricket'
p679
(iGameClasses
Equipment
p680
(dp681
g12
S'Makes the sound commonly heard at 2W lectures.'
p682
sg3
(I1
I1
I1
tp683
sg5
S'Cricket'
p684
sg16
S'Cricket.jpg'
p685
sg18
g37
sg19
I3
sg21
(I3
I3
I2
tp686
sbsS'flux capacitor'
p687
(iGameClasses
Equipment
p688
(dp689
g12
S'If only I could go back to 1985...'
p690
sg3
(I1
I1
I1
tp691
sg5
S'Flux Capacitor'
p692
sg16
S'FluxCapacitor.jpg'
p693
sg18
g38
sg19
g20
sg21
g75
sbsS'okons chainmail'
p694
g10
sS'hazmat suit'
p695
(iGameClasses
Equipment
p696
(dp697
g12
S'Protection from all sorts of McCrindle farts...'
p698
sg3
(I0
I10
I5
tp699
sg5
S'Hazmat Suit'
p700
sg16
S'Hazmat.jpg'
p701
sg18
g9
sg19
g20
sg21
g501
sbsS'pizza box'
p702
(iGameClasses
Equipment
p703
(dp704
g12
S'Fully equipped with crusted cheese.'
p705
sg3
(I1
I5
I1
tp706
sg5
S'Pizza Box'
p707
sg16
S'PizzaBox.jpg'
p708
sg18
g9
sg19
g20
sg21
g431
sbsS'tire iron'
p709
(iGameClasses
Equipment
p710
(dp711
g12
S'Is this even a real tool? Or just a murder weapon...'
p712
sg3
(I11
I0
I3
tp713
sg5
S'Tire Iron'
p714
sg16
S'TireIron.jpg'
p715
sg18
g38
sg19
g20
sg21
g83
sbsS'ukelele'
p716
(iGameClasses
Equipment
p717
(dp718
g12
S'Wasting away again in Margaritaville...'
p719
sg3
(I6
I0
I5
tp720
sg5
S'Ukelele'
p721
sg16
S'Ukelele.jpg'
p722
sg18
g38
sg19
g20
sg21
g106
sbsS'fanny pack'
p723
(iGameClasses
Equipment
p724
(dp725
g12
S'Made for style. Not for carrying.'
p726
sg3
(I3
I8
I15
tp727
sg5
S'Fanny Pack'
p728
sg16
S'FannyPack.jpg'
p729
sg18
g9
sg19
g20
sg21
g98
sbsS"einstein's brain"
p730
(iGameClasses
Equipment
p731
(dp732
g12
S"Feel's kind of weird walking around with this..."
p733
sg3
(I1
I1
I1
tp734
sg5
S"Einstein's Brain"
p735
sg16
S'Brain.jpg'
p736
sg18
g37
sg19
I10
sg21
g218
sbsS"brendan fallon's lunchbox"
p737
g31
sS'eng phys usb pen'
p738
(iGameClasses
Equipment
p739
(dp740
g12
S'It would be amazing if this thing actually worked.\nIf I had a laptop I could plug it in and find all of 2P04.'
p741
sg3
(I5
I0
I5
tp742
sg5
S'Eng Phys USB Pen'
p743
sg16
S'PhysPen.jpg'
p744
sg18
g38
sg19
g20
sg21
(I1
I6
I2
tp745
sbsS'ambifacient lunar waneshaft'
p746
(iGameClasses
Equipment
p747
(dp748
g12
S'The design consists simply of six hydrocoptic marzlevanes,\nthey fit to the ambifacient lunar waneshaft so that side fumbling is effectively prevented'
p749
sg3
(I1
I1
I1
tp750
sg5
S'Ambifacient Lunar Waneshaft'
p751
sg16
S'Dumbness.jpg'
p752
sg18
g37
sg19
g20
sg21
g218
sbsS'space pop'
p753
(iGameClasses
Equipment
p754
(dp755
g12
S'Get ready to go to space pop city.'
p756
sg3
(I4
I0
I10
tp757
sg5
S'Space Pop'
p758
sg16
S'SpacePop.jgp'
p759
sg18
g38
sg19
I1
sg21
(I1
I7
I2
tp760
sbsS'hockey pads'
p761
(iGameClasses
Equipment
p762
(dp763
g12
S"IM NOT WEARIN' HOCKEY PADS!"
p764
sg3
(I3
I13
I5
tp765
sg5
S'Hockey Pads'
p766
sg16
S'HockeyPads.jpg'
p767
sg18
g9
sg19
g20
sg21
g83
sbsS'pink donut'
p768
(iGameClasses
Equipment
p769
(dp770
g12
S'This is what fusion is all about?'
p771
sg3
(I1
I1
I1
tp772
sg5
S'Pink Donut'
p773
sg16
S'PinkDonut.jpg'
p774
sg18
g37
sg19
I2
sg21
g218
sbsS'relativistic key'
p775
(iGameClasses
Equipment
p776
(dp777
g12
S'You can feel the power radiating from this thing.'
p778
sg3
(I1
I1
I1
tp779
sg5
S'Relativistic Key'
p780
sg16
S'Relativistickey.jpg'
p781
sg18
g38
sg19
g20
sg21
g75
sbsS'stylish watch'
p782
(iGameClasses
Equipment
p783
(dp784
g12
S'If only you learned how to tell time on an analog clock...'
p785
sg3
(I0
I15
I20
tp786
sg5
S'Stylish Watch'
p787
sg16
S'watch.jpg'
p788
sg18
g37
sg19
g20
sg21
g347
sbsS'solar ray'
p789
(iGameClasses
Equipment
p790
(dp791
g12
S'The literal power of the Sun!'
p792
sg3
(I100
I20
I50
tp793
sg5
S'Solar Ray'
p794
sg16
S'SolarRay.jpg'
p795
sg18
g38
sg19
g20
sg21
(I1
I5
I2
tp796
sbsS'starbucks apron'
p797
(iGameClasses
Equipment
p798
(dp799
g12
S'If you put this on do you immediately know how to make a frappe?'
p800
sg3
(I1
I5
I5
tp801
sg5
S'Starbucks Apron'
p802
sg16
S'Apron.jpg'
p803
sg18
g9
sg19
g20
sg21
g162
sbsS'maroon jumpsuit'
p804
(iGameClasses
Equipment
p805
(dp806
g12
S'Overalls of the Maroons'
p807
sg3
(I1
I8
I5
tp808
sg5
S'Maroon Jumpsuit'
p809
sg16
S'MaroonSuit.jpg'
p810
sg18
g9
sg19
g20
sg21
(I5
I1
I1
tp811
sbsS'needa pita'
p812
(iGameClasses
Equipment
p813
(dp814
g12
S'Better have gotten black olives on that'
p815
sg3
(I2
I0
I1
tp816
sg5
S'Needa Pita'
p817
sg16
S'Pita.jpg'
p818
sg18
g38
sg19
I5
sg21
(I4
I6
I1
tp819
sbsS'lamp'
p820
(iGameClasses
Equipment
p821
(dp822
g12
S'I love lamp.'
p823
sg3
(I8
I0
I4
tp824
sg5
S'Lamp'
p825
sg16
S'Lamp.jpg'
p826
sg18
g38
sg19
g20
sg21
g455
sbsS'redsuit'
p827
(iGameClasses
Equipment
p828
(dp829
g12
S'Overalls of drunks... I mean engineers'
p830
sg3
(I5
I5
I5
tp831
sg5
S'Redsuit'
p832
sg16
S'Redsuit.jpg'
p833
sg18
g9
sg19
g20
sg21
(I2
I4
I2
tp834
sbsS'cold beer'
p835
(iGameClasses
Equipment
p836
(dp837
g12
S'A freshly brewed pint from Andy Knights himself.'
p838
sg3
(I15
I0
I20
tp839
sg5
S'Cold Beer'
p840
sg16
S'ColdBeer.jpg'
p841
sg18
g37
sg19
I2
sg21
g422
sbsS'eng phys shirt'
p842
(iGameClasses
Equipment
p843
(dp844
g12
S'Rolling Rock baby! Premium Stream my ass... More like premium pain...'
p845
sg3
(I0
I7
I5
tp846
sg5
S'Eng Phys Shirt'
p847
sg16
S'EngPhysShirt.jpg'
p848
sg18
g9
sg19
g20
sg21
g407
sbsS'pvc pipe'
p849
(iGameClasses
Equipment
p850
(dp851
g12
S'Probably part of a PID project...'
p852
sg3
(I9
I2
I10
tp853
sg5
S'PVC Pipe'
p854
sg16
S'PVCPipe.jpg'
p855
sg18
g38
sg19
g20
sg21
(I4
I7
I1
tp856
sbsS'couch cushion'
p857
(iGameClasses
Equipment
p858
(dp859
g12
S'I hope I find I pillow fight.'
p860
sg3
(I4
I10
I1
tp861
sg5
S'Couch Cushion'
p862
sg16
S'CCushion.jpg'
p863
sg18
g37
sg19
g20
sg21
g355
sbsS'fake gun'
p864
(iGameClasses
Equipment
p865
(dp866
g12
S'Is this seriously what at the MAC cops carry...'
p867
sg3
(I5
I0
I5
tp868
sg5
S'Fake Gun'
p869
sg16
S'FakeGun.jpg'
p870
sg18
g38
sg19
g20
sg21
g194
sbsS'iron ring'
p871
g39
sS"minnick's glasses"
p872
(iGameClasses
Equipment
p873
(dp874
g12
S'The spectacles of a wizard from the High Order of the Ancient Council.'
p875
sg3
(I100
I100
I100
tp876
sg5
S"Minnick's Glasses"
p877
sg16
S'MinnickGlasses.jpg'
p878
sg18
g23
sg19
g20
sg21
g75
sbsS'frisbee'
p879
(iGameClasses
Equipment
p880
(dp881
g12
S'Look at the flick of the wrist!'
p882
sg3
(I3
I0
I5
tp883
sg5
S'Frisbee'
p884
sg16
S'Frisbee.jpg'
p885
sg18
g38
sg19
g20
sg21
g621
sbsS'butter knife'
p886
(iGameClasses
Equipment
p887
(dp888
g12
S'Meant for spreading, not stabbing...'
p889
sg3
(I4
I0
I5
tp890
sg5
S'Butter Knife'
p891
sg16
S'ButterKnife.jpg'
p892
sg18
g38
sg19
g20
sg21
g819
sbsS'guitar'
p893
(iGameClasses
Equipment
p894
(dp895
g12
S'Monster Mash.'
p896
sg3
(I10
I3
I5
tp897
sg5
S'Guitar'
p898
sg16
S'Guitar.jpg'
p899
sg18
g38
sg19
g20
sg21
g621
sbsS'old headphones'
p900
(iGameClasses
Equipment
p901
(dp902
g12
S'Old frayed apple headphones. Good for whipping.'
p903
sg3
(I5
I0
I5
tp904
sg5
S'Old Headphones'
p905
sg16
S'OldHeadphones.jpg'
p906
sg18
g38
sg19
g20
sg21
(I1
I5
I1
tp907
sbsS'old car keys'
p908
(iGameClasses
Equipment
p909
(dp910
g12
S'Fun for babies. Not for Batman.'
p911
sg3
(I7
I0
I15
tp912
sg5
S'Old Car Keys'
p913
sg16
g269
sg18
g38
sg19
g20
sg21
g471
sbsS'hulk hands'
p914
(iGameClasses
Equipment
p915
(dp916
g12
S'These pack a serious punch...'
p917
sg3
(I15
I5
I20
tp918
sg5
S'Hulk Hands'
p919
sg16
S'HulkHands.jpg'
p920
sg18
g38
sg19
g20
sg21
g114
sbsS'old ladder'
p921
(iGameClasses
Equipment
p922
(dp923
g12
S'Pretty rickety but would work for climbing.'
p924
sg3
(I14
I8
I-15
tp925
sg5
S'Old Ladder'
p926
sg16
S'OldLadder.jpg'
p927
sg18
g37
sg19
g20
sg21
g75
sbsS'goldfish'
p928
(iGameClasses
Equipment
p929
(dp930
g12
S'Fun fact, not made of real gold.'
p931
sg3
(I1
I1
I1
tp932
sg5
S'Goldfish'
p933
sg16
S'Goldfish.jpg'
p934
sg18
g37
sg19
I4
sg21
g202
sbsS"frank's red hot"
p935
(iGameClasses
Equipment
p936
(dp937
g12
S'I put that...'
p938
sg3
(I3
I0
I2
tp939
sg5
S"Frank's Red Hot"
p940
sg16
S'FranksRed.jpg'
p941
sg18
g37
sg19
I1
sg21
(I0
I4
I1
tp942
sbsS'silicon substrate'
p943
(iGameClasses
Equipment
p944
(dp945
g12
S'A bulk silicon wafer.'
p946
sg3
(I1
I1
I1
tp947
sg5
S'Silicon Substrate'
p948
sg16
S'Substrate.jpg'
p949
sg18
g37
sg19
g20
sg21
g218
sbsS"faraday's cage"
p950
(iGameClasses
Equipment
p951
(dp952
g12
S'Faraday cage.'
p953
sg3
(I20
I75
I15
tp954
sg5
S"Faraday's Cage"
p955
sg16
S'Faraday.jpg'
p956
sg18
g23
sg19
g20
sg21
g218
sbsS'rusty key'
p957
(iGameClasses
Equipment
p958
(dp959
g12
S"You can just about read:\n'By the building where the smallest are seen.'\n'This key will provide for those who are keen'"
p960
sg3
(I1
I1
I1
tp961
sg5
S'Rusty Key'
p962
sg16
S'RustyKey.jpg'
p963
sg18
g37
sg19
g20
sg21
g75
sbsS'wood shield'
p964
(iGameClasses
Equipment
p965
(dp966
g12
S'An old wooden shield used in a play, you think...'
p967
sg3
(I5
I20
I-5
tp968
sg5
S'Wood Shield'
p969
sg16
S'Shield.jpg'
p970
sg18
g37
sg19
g20
sg21
g463
sbsS'paper towels'
p971
(iGameClasses
Equipment
p972
(dp973
g12
S"WHERE'S THE PAPER TOWELS?"
p974
sg3
(I2
I0
I1
tp975
sg5
S'Paper Towels'
p976
sg16
S'PaperTowels.jpg'
p977
sg18
g37
sg19
g20
sg21
g154
sbsS'engineering mug'
p978
(iGameClasses
Equipment
p979
(dp980
g12
S'Do people even have these anymore?'
p981
sg3
(I1
I0
I2
tp982
sg5
S'Engineering Mug'
p983
sg16
S'EngMug.jpg'
p984
sg18
g38
sg19
g20
sg21
g524
sbsS'blazer'
p985
(iGameClasses
Equipment
p986
(dp987
g12
S'Styyyyyylishhhhhh'
p988
sg3
(I0
I4
I1
tp989
sg5
S'Blazer'
p990
sg16
S'Blazer.jpg'
p991
sg18
g9
sg19
g20
sg21
(I5
I6
I1
tp992
sbsS'high vis vest'
p993
(iGameClasses
Equipment
p994
(dp995
g12
S'Safety first, folks.'
p996
sg3
(I0
I5
I3
tp997
sg5
S'High Vis Vest'
p998
sg16
S'HighVis.jpg'
p999
sg18
g9
sg19
g20
sg21
(I2
I6
I1
tp1000
sbsS'big hits shirt'
p1001
(iGameClasses
Equipment
p1002
(dp1003
g12
S'The Shirt of the Hero of Kyvach!'
p1004
sg3
(I10
I5
I5
tp1005
sg5
S'Big Hits Shirt'
p1006
sg16
S'BigHits.jpg'
p1007
sg18
g9
sg19
g20
sg21
g114
sbsS'jar of mayo'
p1008
(iGameClasses
Equipment
p1009
(dp1010
g12
S'Is mayonaise an instrument?'
p1011
sg3
(I3
I0
I5
tp1012
sg5
S'Jar of Mayo'
p1013
sg16
S'Mayo.jpg'
p1014
sg18
g37
sg19
I1
sg21
g170
sbsS'holy bible'
p1015
(iGameClasses
Equipment
p1016
(dp1017
g12
S'King James version...'
p1018
sg3
(I3
I0
I3
tp1019
sg5
S'Holy Bible'
p1020
sg16
S'Bible.jpg'
p1021
sg18
g37
sg19
g20
sg21
(I2
I0
I1
tp1022
sbsS'griffiths electrodynamics'
p1023
(iGameClasses
Equipment
p1024
(dp1025
g12
S'The holy scriptures which govern the fabric of our being'
p1026
sg3
(I0
I10
I5
tp1027
sg5
S'Griffiths Electrodynamics'
p1028
sg16
S'Griffiths.jpg'
p1029
sg18
g37
sg19
g20
sg21
g834
sbsS'skateboard'
p1030
(iGameClasses
Equipment
p1031
(dp1032
g12
S'Cowabunga, dude.'
p1033
sg3
(I9
I0
I10
tp1034
sg5
S'Skateboard'
p1035
sg16
S'Skateboard.jpg'
p1036
sg18
g38
sg19
g20
sg21
g277
sbsS'diary of the fallen'
p1037
(iGameClasses
Equipment
p1038
(dp1039
g12
S'The personal notes of an ancient Hero.'
p1040
sg3
(I25
I20
I30
tp1041
sg5
S'Diary of the Fallen'
p1042
sg16
S'Diary.jpg'
p1043
sg18
g37
sg19
g20
sg21
g285
sbsS'green lantern shirt'
p1044
(iGameClasses
Equipment
p1045
(dp1046
g12
S'Darkest day... Darkest night...'
p1047
sg3
(I15
I15
I10
tp1048
sg5
S'Green Lantern Shirt'
p1049
sg16
S'GLShirt.jpg'
p1050
sg18
g9
sg19
g20
sg21
g834
sbsS'dirty needle'
p1051
(iGameClasses
Equipment
p1052
(dp1053
g12
S"This isn't clean. Someone find me a SharpXchange!"
p1054
sg3
(I7
I0
I5
tp1055
sg5
S'Dirty Needle'
p1056
sg16
S'Needle.jpg'
p1057
sg18
g38
sg19
g20
sg21
g942
sbsS'willy dog'
p1058
(iGameClasses
Equipment
p1059
(dp1060
g12
S'Definitely not vegan'
p1061
sg3
(I1
I0
I2
tp1062
sg5
S'Willy Dog'
p1063
sg16
S'Hotdog.jpg'
p1064
sg18
g38
sg19
I5
sg21
g186
sbsS'crucifix'
p1065
(iGameClasses
Equipment
p1066
(dp1067
g12
S'The Power of Chirst compels you!'
p1068
sg3
(I10
I0
I10
tp1069
sg5
S'Crucifix'
p1070
sg16
S'Crucifix.jpg'
p1071
sg18
g38
sg19
g20
sg21
g1022
sbsS'wrench'
p1072
(iGameClasses
Equipment
p1073
(dp1074
g12
S"It's a wrench. 22mm."
p1075
sg3
(I9
I0
I2
tp1076
sg5
S'Wrench'
p1077
sg16
S'Wrench.jpg'
p1078
sg18
g38
sg19
g20
sg21
(I1
I3
I1
tp1079
sbsS'capstone tools'
p1080
(iGameClasses
Equipment
p1081
(dp1082
g12
S"Shouldn't the 4A06 students be using these?"
p1083
sg3
(I1
I1
I1
tp1084
sg5
S'Capstone Tools'
p1085
sg16
S'CapTools.jpg'
p1086
sg18
g37
sg19
g20
sg21
g218
sbsS'wool sweater'
p1087
(iGameClasses
Equipment
p1088
(dp1089
g12
S'Just like grandma makes.'
p1090
sg3
(I1
I4
I6
tp1091
sg5
S'Wool Sweater'
p1092
sg16
S'WoolSweater.jpg'
p1093
sg18
g9
sg19
g20
sg21
g300
sbsS'solar cell'
p1094
(iGameClasses
Equipment
p1095
(dp1096
g12
S"Harness the power of the Sun!\nI really hope I don't drop this..."
p1097
sg3
(I1
I1
I1
tp1098
sg5
S'Solar Cell'
p1099
sg16
S'SolarCell.jpg'
p1100
sg18
g37
sg19
g20
sg21
g218
sbsa((lp1101
(lp1102
(iGameClasses
Map
p1103
(dp1104
g12
S'PARKING GARAGE:\nYou can only go back up to the Hospital.'
p1105
sS'ENEMY'
p1106
(lp1107
(iGameClasses
Enemy
p1108
(dp1109
g12
S"'Check out this tre flip, pretty tight eh?'"
p1110
sg3
(I15
I15
I40
tp1111
sg5
S'Erik the Sk8r'
p1112
sS'drop'
p1113
S"erik's frosted tips"
p1114
sg63
I00
sS'item'
p1115
NsS'quest'
p1116
I00
sg19
I0
sg21
g277
sS'need'
p1117
Nsg66
I00
sS'Sinfo'
p1118
g20
sS'Dinfo'
p1119
S"Man, that's dumb!"
p1120
sbasg5
S'Parking Garage'
p1121
sS'items'
p1122
(lp1123
g1031
ag271
asS'interact'
p1124
(lp1125
sS'walls'
p1126
(S'f'
p1127
S'b'
p1128
S'l'
p1129
S'r'
p1130
S'd'
p1131
tp1132
sS'coords'
p1133
g277
sS'lore'
p1134
S'The smooth floor down here makes an excellent skate surface.\nRad.\nIf only you learned how to kickflip.'
p1135
sS'travelled'
p1136
I0
sba(iGameClasses
Map
p1137
(dp1138
g12
S'HOSPITAL EAST WING:\nIn front of you is the West Wing. MDCL is to your right.\nThe Parking Garage is below you.'
p1139
sg1106
(lp1140
sg5
S'East Hospital'
p1141
sg1122
(lp1142
g503
ag393
ag533
asg1124
(lp1143
sg1126
(g1129
g1128
tp1144
sg1133
g399
sg1134
S'You smile as you overhear a conversation between a doctor and a family.\nTurns out their child is going to make a full recovery.\nThanks science.'
p1145
sg1136
I0
sbaNaNaa(lp1146
Na(iGameClasses
Map
p1147
(dp1148
g12
S'HOSPITAL WEST WING:\nIn front of your is T-13. To your right is the Health Sci Library.\nThe East Wing of the Hospital is behind you.\nYou can go upstairs.'
p1149
sg1106
(lp1150
sg5
S'West Hospital'
p1151
sg1122
(lp1152
g124
a(iGameClasses
Interact
p1153
(dp1154
g12
S'Would you like to exchange a needle?'
p1155
sg5
S'SharpXChange'
p1156
sg1113
S'clean needle'
p1157
sg1116
I00
sg21
g130
sg1117
S'dirty needle'
p1158
sg1118
S'Needle Accepted!'
p1159
sbasg1124
(lp1160
sg1126
g1129
sg1133
g130
sg1134
S"Doctors and Nurses rush around you.\nYou remember why you didn't want to become a doctor as you\nnearly faint looking at a patient's paper cut in the waiting room.\nAfter a drink from the water fountain you plan what to do."
p1161
sg1136
I0
sba(iGameClasses
Map
p1162
(dp1163
g12
S'2ND FLOOR W WING:\nYou can only go back down the stairs.'
p1164
sg1106
(lp1165
(iGameClasses
Enemy
p1166
(dp1167
g12
S"'Are you interested in a research position?'"
p1168
sg3
(I100
I100
I100
tp1169
sg5
S'Dr. Soleymani'
p1170
sg1113
S"einstein's brain"
p1171
sg63
I00
sg1115
Nsg1116
I00
sg19
I0
sg21
(I0
I1
I2
tp1172
sg1117
Nsg66
I00
sg1118
g20
sg1119
S'NOOO! The Dark Lord will never forgive me!'
p1173
sbasg5
S'2nd Floor W Wing'
p1174
sg1122
(lp1175
sg1124
(lp1176
sg1126
(g1127
g1128
g1129
g1130
S'u'
p1177
tp1178
sg1133
g1172
sg1134
S"The endless number of rooms are mesmerizing.\nYou don't even know which way to go.\nAfter being lost for 2 hours you circle back to where you entered."
p1179
sg1136
I0
sbaNaa(lp1180
(iGameClasses
Map
p1181
(dp1182
g12
S'SECRET ROOM!:\nGo up to climb out.'
p1183
sg1106
(lp1184
sg5
S'Secret Trapdoor!'
p1185
sg1122
(lp1186
sg1124
(lp1187
sg1126
(g1127
g1128
g1129
g1130
g1131
tp1188
sg1133
(I0
I2
I0
tp1189
sg1134
S'You uncover a trapdoor after pulling up a loose floor tile.\nUpon descending you see stacks of failed midterms and assorted books all around you.\nA suit of armor and a chainmail flag with a skull on it are barely visible.\nWho made this place anyway?'
p1190
sg1136
I0
sba(iGameClasses
Map
p1191
(dp1192
g12
S'T-13:\nETB is in front of you. The McMaster Map is to your right.\nThe West Wing of the Hospital is behind you.'
p1193
sg1106
(lp1194
sg5
S'T-13'
p1195
sg1122
(lp1196
g1009
ag164
asg1124
(lp1197
sg1126
(lp1198
g1129
asg1133
g170
sg1134
S"How many bad invigilators does it take to screw in a light bulb?\nI'm not sure but they took my damn Casio FX-911+C..."
p1199
sg1136
I0
sbaNaNaa(lp1200
(iGameClasses
Map
p1201
(dp1202
g12
S'ETB BASEMENT:\nYou can only go back up to the main floor.'
p1203
sg1106
(lp1204
sg5
S'ETB Basement'
p1205
sg1122
(lp1206
g915
asg1124
(lp1207
sg1126
(g1127
g1128
g1129
g1130
g1131
tp1208
sg1133
(I0
I3
I0
tp1209
sg1134
S'After getting lost in a maze of corridors and locked rooms you stumble\nacross a door that is slightly ajar.\nYou open the door to reveal a rather small dark room.\nYou flick on the light switch.'
p1210
sg1136
I0
sba(iGameClasses
Map
p1211
(dp1212
g12
S'ETB:\nTo your right is the Hatch Building. An alleyway is in front of you.\nT-13 is behind you. You can also go upstairs.'
p1213
sg1106
(lp1214
(iGameClasses
Enemy
p1215
(dp1216
g12
S"'Hey, I saw your picture on Instagram!'\n'They let you get away with doing that to the Willy McMaster statue?'"
p1217
sg3
(I10
I5
I10
tp1218
sg5
S'Mitch the TA'
p1219
sg1113
S'phone'
p1220
sg63
I00
sg1115
Nsg1116
I00
sg19
I0
sg21
g431
sg1117
Nsg66
I00
sg1118
g20
sg1119
S"There's my phone."
p1221
sbasg5
S'ETB'
p1222
sg1122
(lp1223
g703
ag425
asg1124
(lp1224
sg1126
g1129
sg1133
g431
sg1134
S'The memories of actually doing something in first year flood your mind.\nGear trains. Python. 3D printing.\nEngineering had such a different meaning in your first year...\nYou plan your next move.'
p1225
sg1136
I0
sba(iGameClasses
Map
p1226
(dp1227
g12
S'2ND FLOOR ETB:\nYou can only go back down the stairs.'
p1228
sg1106
(lp1229
sg5
S'2nd Floor ETB'
p1230
sg1122
(lp1231
sg1124
(lp1232
sg1126
(g1127
g1128
g1129
g1130
g1177
tp1233
sg1133
(I0
I3
I2
tp1234
sg1134
S'You realize you really have never come up here.\nYou see 4th year Eng Phys students hurry out of a long-winded lecture.\nAfter picking a booger.\nYou plan your next move.'
p1235
sg1136
I0
sbaNaa(lp1236
Na(iGameClasses
Map
p1237
(dp1238
g12
S'ALLEY:\nITB is in front of you. ETB is behind you.\nYou can enter Hatch to your right.'
p1239
sg1106
(lp1240
sg5
S'Alley'
p1241
sg1122
(lp1242
g1052
ag936
asg1124
(lp1243
sg1126
g1129
sg1133
g942
sg1134
S'As you head down the narrow path between ITB and ETB you hear car horns blaring down Main Street.\nYou gather up some trash and put it in a garbage can like a good McMasterian.\nThen plan your next move.'
p1244
sg1136
I0
sbaNaNaa(lp1245
(iGameClasses
Map
p1246
(dp1247
g12
S'ITB BASEMENT:\nYou can only go back up to the main floor.'
p1248
sg1106
(lp1249
(iGameClasses
Enemy
p1250
(dp1251
g12
S"'Huge talking to people play.'"
p1252
sg3
(I20
I15
I20
tp1253
sg5
S'Eric the Baller'
p1254
sg1113
S'cold steel katana'
p1255
sg63
I01
sg1115
Nsg1116
I00
sg19
I50
sg21
(I0
I5
I0
tp1256
sg1117
Nsg66
I00
sg1118
g20
sg1119
S'This is sub-optimal.'
p1257
sbasg5
S'ITB Basement'
p1258
sg1122
(lp1259
sg1124
(lp1260
sg1126
(g1127
g1128
g1129
g1130
g1131
tp1261
sg1133
g1256
sg1134
S"As if the upstairs floor plan wasn't bad enough...\nAfter another 3 hours wandering around you are back where you started\nand don't feel like you learned anything..."
p1262
sg1136
I1
sba(iGameClasses
Map
p1263
(dp1264
g12
S'ITB:\nJHE-Annex is to your right. Lot I is in front of you.\nAn alley is behind you. You can go up OR down the stairs.'
p1265
sg1106
(lp1266
(iGameClasses
Enemy
p1267
(dp1268
g12
S"'Hey brother, I really could use some Febreze.'"
p1269
sg3
(I20
I20
I20
tp1270
sg5
S'Paul the Janitor'
p1271
sg1113
S'bleach squirt bottle'
p1272
sg63
I00
sg1115
Nsg1116
I00
sg19
I0
sg21
g455
sg1117
S'febreze'
p1273
sg66
I00
sg1118
S'Rock on brother! Thanks so much!'
p1274
sg1119
S"NOOO, Now I can't go see Black Sabbath!"
p1275
sbasg5
S'ITB'
p1276
sg1122
(lp1277
g821
ag449
asg1124
(lp1278
sg1126
g1129
sg1133
g455
sg1134
S'McMaster, back at it again with the horrible floor plan.\nAfter getting lost for 5 hours you finally reach the lobby\nand decide what to do.'
p1279
sg1136
I0
sba(iGameClasses
Map
p1280
(dp1281
g12
S'2ND FLOOR ITB:\nYou can only go back down the stairs.'
p1282
sg1106
(lp1283
(iGameClasses
Enemy
p1284
(dp1285
g12
S"'My grand invention is almost complete...'"
p1286
sg3
(I100
I100
I100
tp1287
sg5
S'Dr. Nagasaki'
p1288
sg1113
Nsg63
I00
sg1115
Nsg1116
I01
sg19
I0
sg21
g154
sg1117
S'ambifacient lunar waneshaft'
p1289
sg66
I01
sg1118
S"'Yes!'\n'I have been looking for one exactly like that!'\n'Quicky, go to the basement of the Tandem Accelerator!'\n'The High Council is counting on you.'"
p1290
sg1119
S'NOOOO! NOW I WILL NEVER PLEASE THE DARK LORD!'
p1291
sbasg5
S'2nd Floor ITB'
p1292
sg1122
(lp1293
g972
ag148
asg1124
(lp1294
sg1126
(g1127
g1128
g1129
g1130
g1177
tp1295
sg1133
g154
sg1134
S"Walking around up here you don't find much other than lab benches with strange instruments.\nThis place gives you the impression that there must be some high level engineering physics going on..."
p1296
sg1136
I0
sbaNaa(lp1297
Na(iGameClasses
Map
p1298
(dp1299
g12
S'LOT I:\nABB is to your right. Cootes Drive is in front of you.\nITB is to your rear.'
p1300
sg1106
(lp1301
sg5
S'Lot I'
p1302
sg1122
(lp1303
g465
ag909
a(iGameClasses
Interact
p1304
(dp1305
g12
S"A red Dodge Avenger...\nPeering into the window you can't really see much."
p1306
sg5
S'Red Car'
p1307
sg1113
Nsg1116
I00
sg21
g471
sg1117
Nsg1118
S'N/A'
p1308
sba(iGameClasses
Interact
p1309
(dp1310
g12
S"A blue Ford Mustang...\nPeering into the window you can't really see much."
p1311
sg5
S'Blue Car'
p1312
sg1113
S'potato'
p1313
sg1116
I00
sg21
g471
sg1117
S'tire iron'
p1314
sg1118
S'You smash open the window with the tire iron, breaking it in the process.\nYou unlock and open the door...\nTo reveal a potato.'
p1315
sba(iGameClasses
Interact
p1316
(dp1317
g12
S"An old Datsun...\nPeering into the window you can't really see much."
p1318
sg5
S'Old Car'
p1319
sg1113
Nsg1116
I00
sg21
g471
sg1117
Nsg1118
g1308
sba(iGameClasses
Interact
p1320
(dp1321
g12
S"A new Volkswagen...\nPeering into the window you can't really see much."
p1322
sg5
S'New Car'
p1323
sg1113
S'bowling ball'
p1324
sg1116
I00
sg21
g471
sg1117
S'car keys'
p1325
sg1118
S'You open the car and rummage around.\nUnderneath one of the seats you find a bowling ball!'
p1326
sbasg1124
(lp1327
sg1126
g1129
sg1133
g471
sg1134
S"Nope, your car isn't here.\nMaybe you parked in Lot M? Maybe not.\nAfter scoffing at all of the prof Mercedes that are way too nice...\nYou think of what to do."
p1328
sg1136
I0
sbaNaNaa(lp1329
Na(iGameClasses
Map
p1330
(dp1331
g12
S'COOTES DRIVE:\nThode is to your right. Lot I is behind you.'
p1332
sg1106
(lp1333
sg5
S'Cootes Dr.'
p1334
sg1122
(lp1335
sg1124
(lp1336
sg1126
(g1127
g1129
tp1337
sg1133
(I0
I7
I1
tp1338
sg1134
S'You notice a series of pickup trucks for what must be a landscaping or construction company.\nThere is construction gear spread all over the place.\nThe sound of sirens grows louder as an ambulance suddenly rushes by.\nYou collect yourself and consider what to do next.'
p1339
sg1136
I0
sbaNaNaa(lp1340
NaNaNaNaa(lp1341
(lp1342
Na(iGameClasses
Map
p1343
(dp1344
g12
S'MDCL:\nThe East Wing of the Hospital is to your left. Health Sci library is forward.'
p1345
sg1106
(lp1346
sg5
S'MDCL'
p1347
sg1122
(lp1348
g220
asg1124
(lp1349
sg1126
(g1128
g1130
tp1350
sg1133
g226
sg1134
S'After a solid 5 minutes of meditation in the reflection area.\nYou make your next decision feeling refreshed.'
p1351
sg1136
I0
sba(iGameClasses
Map
p1352
(dp1353
g12
S'CLIMBING MDCL:\nYou can continue climbing or go back down...'
p1354
sg1106
(lp1355
sg5
S'Climbing MDCL'
p1356
sg1122
(lp1357
sg1124
(lp1358
sg1126
(g1127
g1128
g1129
g1130
tp1359
sg1133
(I1
I0
I2
tp1360
sg1134
S'You struggle and find yourself on the outer wall of MDCL.'
p1361
sg1136
I0
sba(iGameClasses
Map
p1362
(dp1363
g12
S'MDCL Roof:\nYou can only go back down.'
p1364
sg1106
(lp1365
sg5
S'Roof of MDCL'
p1366
sg1122
(lp1367
(iGameClasses
Interact
p1368
(dp1369
g12
S"It's a mouse scurrying around...\nDid it just stare at you?"
p1370
sg5
S'Mouse'
p1371
sg1113
S'gilded blunderbuss'
p1372
sg1116
I01
sg21
(I1
I0
I3
tp1373
sg1117
S'cheese'
p1374
sg1118
S"The mouse rushes over and takes the cheese.\nIt runs into a small opening it has made in the roof of the building.\nIt returns with something in it's mouth!"
p1375
sbasg1124
(lp1376
sg1126
(g1127
g1128
g1129
g1130
g1177
tp1377
sg1133
g1373
sg1134
S'With all of your might you pull yourself up and onto the roof.\nYou can see the majority of campus from up here!'
p1378
sg1136
I0
sbaa(lp1379
Na(iGameClasses
Map
p1380
(dp1381
g12
S'HEALTH SCIENCES LIBRARY:\nIn front of you is the McMaster Map. To your right is the bus stop.\nMDCL is behind you. The Hospital West Wing is to your left.'
p1382
sg1106
(lp1383
sg5
S'Health Sciences Library'
p1384
sg1122
(lp1385
sg1124
(lp1386
sg1126
(tsg1133
(I1
I1
I1
tp1387
sg1134
S"You are constantly asked to be quiet even though you have yet to make a sound.\nAfter scanning the tables and see no one you recognize you take a seat\nin an armchair and stare out towards the centre of campus.\nYou daydream of a life where these study rooms weren't constantly full."
p1388
sg1136
I0
sbaNaNaa(lp1389
Na(iGameClasses
Map
p1390
(dp1391
g12
S'MCMASTER MAP:\nIn front of you lies the entrance to Hatch. To your right, JHE Field.\nTo your rear lies the Health Sci Library. T-13 is to your left.'
p1392
sg1106
(lp1393
sg5
S'Map of McMaster'
p1394
sg1122
(lp1395
(iGameClasses
Interact
p1396
(dp1397
g12
S"It's the map of McMaster.'\n ________________________________________________\n|Map of McMaster                                 |\n|                                       BATES    |\n|                                                |\n| ETB        JHE         BSB                     |\n|                                                |\n|                                      STATUE    |\n|                                                |\n| HOSPITAL                                       |\n|          MDCL         CHAPEL              MUSC |\n|________________________________________________|"
p1398
sg5
S'McMaster Map'
p1399
sg1113
S"minnick's glasses"
p1400
sg1116
I00
sg21
(I1
I2
I1
tp1401
sg1117
S"minnick's glasses"
p1402
sg1118
S"Through Minnick's glasses the true map is revealled!\nYou read:\n'Harness the sun.'\n ________________________________________________\n|Map of McMaster                                 |\n|                                       BATES    |\n|                                                |\n| ETB        JHE         BSB                     |\n|                                                |\n|                        \\/            STATUE    |\n|                        /\\                      |\n| HOSPITAL                                       |\n|          MDCL         CHAPEL              MUSC |\n|________________________________________________|\nDr. Minnick's glasses glow hot as you quickly swat them off of your face."
p1403
sbasg1124
(lp1404
sg1126
(tsg1133
g1401
sg1134
S'Has anyone even used this thing?\nA lost freshman asks you for directions even though the map is clearly next to you.\nAfter sending them in the wrong direction you plan your next move.'
p1405
sg1136
I0
sbaNaNaa(lp1406
Na(iGameClasses
Map
p1407
(dp1408
g12
S'OUTSIDE HATCH:\nETB to your left. Enter Hatch by going forward.\nThe McMaster Map to your rear. JHE Entrance is to your right.'
p1409
sg1106
(lp1410
sg5
S'In Front of Hatch'
p1411
sg1122
(lp1412
g1073
asg1124
(lp1413
sg1126
(tsg1133
g1079
sg1134
S'You stare at the newly completed building.\nThe sun still shines and you are irritated by the constant drone of the Hamiltonian sirens\nwhich you have yet to grow accustomed to...'
p1414
sg1136
I0
sbaNaNaa(lp1415
Na(iGameClasses
Map
p1416
(dp1417
g12
S'INSIDE HATCH:\nIn front of you lies JHE-Annex. To your right is the JHE lobby.\nTo your rear you can exit.\nTo your left is an alley.'
p1418
sg1106
(lp1419
(iGameClasses
Enemy
p1420
(dp1421
g12
S"'Yo check out my meme page, you ever heard coco jay?'"
p1422
sg3
(I15
I10
I20
tp1423
sg5
S'Mario the Mixologist'
p1424
sg1113
S'stylish watch'
p1425
sg63
I00
sg1115
Nsg1116
I00
sg19
I0
sg21
g347
sg1117
Nsg66
I00
sg1118
g20
sg1119
S'si ya saben como consigo, por que me invitan?'
p1426
sbasg5
S'Inside Hatch'
p1427
sg1122
(lp1428
g341
ag783
asg1124
(lp1429
sg1126
(tsg1133
g347
sg1134
S"That 'fresh building' smell still lingers.\nYou see members of the various clubs rushing from room to room including a man carrying a rocket.\nThe Kipling clock ticks away... only 364 more...\nWho is this Gerald Hatch anyway?"
p1430
sg1136
I0
sba(iGameClasses
Map
p1431
(dp1432
g12
S'2ND FLOOR Hatch:\nIn front of you lies the Eng Phys Office. To your right is 2nd Floor JHE.\nHatch is downstairs.'
p1433
sg1106
(lp1434
sg5
S'2nd Floor Hatch'
p1435
sg1122
(lp1436
sg1124
(lp1437
sg1126
(g1128
g1129
g1177
tp1438
sg1133
(I1
I4
I2
tp1439
sg1134
S"You see various meeting rooms with 1st years occupying them.\nThe MES office is full but nothing seems to be getting done.\nThere's therapy dogs scattered everywhere for Paws and Play.\nYou can't get a session with a real therapist but at least there is this"
p1440
sg1136
I0
sbaNaa(lp1441
Na(iGameClasses
Map
p1442
(dp1443
g12
S'JHE ANNEX:\nHatch is to your rear. ABB in front of you.\nITB is to your left. NRB to your right.\nThe Eng Phys office is up the stairs.'
p1444
sg1106
(lp1445
sg5
S'JHE Annex'
p1446
sg1122
(lp1447
g901
asg1124
(lp1448
sg1126
(tsg1133
g907
sg1134
S'They made a big engineering building, got money, then added more.\nYou wonder why Eng Phys classes get pushed into the rooms in this side of JHE...\nHmm...'
p1449
sg1136
I0
sba(iGameClasses
Map
p1450
(dp1451
g12
S'ENG PHYS OFFICE:\n2nd Floor Abb is infront of you. 2nd Floor Hatch is behind you. You can go down the stairs to JHE Annex.'
p1452
sg1106
(lp1453
(iGameClasses
Enemy
p1454
(dp1455
g12
S"'We have been looking for you.'\n'The Department is not pleased...'\n'But first, the McMaster Police have confiscated my Solar Cell, go get it.'\n'Then, maybe you are truly worthy of continuing this quest.'"
p1456
sg3
(I300
I150
I100
tp1457
sg5
S'Dr. Kleimann'
p1458
sg1113
Nsg63
I00
sg1115
Nsg1116
I01
sg19
I0
sg21
g796
sg1117
S'solar cell'
p1459
sg66
I01
sg1118
S"You sit down and listen to what Dr. Kleimann has to say...\n'You have awoken an ancient force that hasn't stirred in many years'.\n'You didn't think we would find out what you did but we know all.'\n'It had been prophecized that an adventurer would dictate the future of the faculty...'\n'Only The Quantum Order can assist you now, seek out Dr. Minnick. I wish you luck...'"
p1460
sg1119
S'You have betrayed The Order!'
p1461
sbasg5
S'Eng Phys Office'
p1462
sg1122
(lp1463
(iGameClasses
Interact
p1464
(dp1465
g12
S'This heap of computing majesty could block bullets... I think...'
p1466
sg5
S'Lenovo Laptop'
p1467
sg1113
g20
sg1116
I00
sg21
g796
sg1117
S'eng phys usb pen'
p1468
sg1118
S'You plug in the Eng Phs USB Pen.\nYou find all of 2P04 files, who uses FlexPDE anymore? You also find a \nweird exe called the Eng Phys Text Adventure! That sounds like fun.\nYou hear a drumming in your ears, is that coming from the pen?'
p1469
sbag790
asg1124
(lp1470
sg1126
(g1129
g1130
g1177
tp1471
sg1133
g796
sg1134
S'The portrait of Dr. Novog makes you jealous as you realize you could\nnever pull off a hairstyle like that.\nYou scan the display case of past Eng Phys projects.\nThey display these as trophies...\nTrophies which only tell a story of endless grind you think to yourself...'
p1472
sg1136
I0
sbaNaa(lp1473
(iGameClasses
Map
p1474
(dp1475
g12
S'ABB BASEMENT:\nYou can only go back up to the main floor.'
p1476
sg1106
(lp1477
sg5
S'ABB Basement'
p1478
sg1122
(lp1479
g563
a(iGameClasses
Interact
p1480
(dp1481
g12
S'Seems like a regular fridge to me.'
p1482
sg5
S'Fridge'
p1483
sg1113
S'pedrotti cubed'
p1484
sg1116
I01
sg21
g554
sg1117
S'relativistic key'
p1485
sg1118
S"You inspect the inside of the fridge to reveal a small keyhole.\nUpon inserting and turning the key you hear a robotic voice bellow.\n'WORMHOLE ACTIVATED'\nThe compartment bursts open and out flies a book!"
p1486
sba(iGameClasses
Interact
p1487
(dp1488
g12
S"Dr. Haugen's personal optical bench..."
p1489
sg5
S'Optical Bench'
p1490
sg1113
S'relativistic key'
p1491
sg1116
I01
sg21
g554
sg1117
S'femtosecond laser'
p1492
sg1118
S"You place Dr. Haugen's femtosecond laser on the bench and aim it at the fridge.\nTurning the laser on (remembering your laser safety glasses, of course)\nfires the high-intensity beam at the fridge.\nThe room begins to shake and smoke begins to billow out of the cracks of the fridge.\nThe door swings open and a glowing apparition of Albert Einstein emerges!\n'You have come a long way, but your quest is not yet over.'\n'For there still remains a great evil on this campus'\n'Dr. Haugen was entrusted with protecting the contents of my fridge.'\n'I have known of your destiny since your first year here at McMaster.'\n'You will be the one who determines the fate of the faculty.'\n'It is, therefore, my responsibility to prepare you for what lies ahead.'\n'This key opens a compartment in my fridge which holds one of three Quantum Relics.'\n'These items give the holder the power to shape the fate of the entire university.'\n'I cannot tell you much more. Perhaps I have said too much.'\n'Take this. Good Luck.'"
p1493
sbag601
ag548
asg1124
(lp1494
sg1126
(g1127
g1128
g1129
g1130
g1131
tp1495
sg1133
g554
sg1134
S'The Laser lab is pretty darn cool.\nWalking around here you notice a number of PhD students looking rather shifty.\nHmmm...\nYou wonder why that is.'
p1496
sg1136
I0
sba(iGameClasses
Map
p1497
(dp1498
g12
S'ABB:\nThode is in front of you. JHE Annex is behind you.\nThe Nuclear Reactor is to your right. LOT I is to your left.\nYou can go up or down the stairs.'
p1499
sg1106
(lp1500
sg5
S'ABB'
p1501
sg1122
(lp1502
(iGameClasses
Interact
p1503
(dp1504
g12
S"It's a display case full of all sorts of old-time Engineering Physics wizardry."
p1505
sg5
S'Display Case'
p1506
sg1113
S"faraday's cage"
p1507
sg1116
I01
sg21
(I1
I6
I1
tp1508
sg1117
S'rusty key'
p1509
sg1118
S'The rusty key fits perfectly!\nAs you turn the key glowing square forms on the back\nof the display case and opens revealing an old relic...'
p1510
sbasg1124
(lp1511
sg1126
(tsg1133
g1508
sg1134
S'You stare at the electron microscope structure and wonder if it could even see your GPA...\nA tear rolls down your cheek. You collect yourself and plan what to do next.'
p1512
sg1136
I0
sba(iGameClasses
Map
p1513
(dp1514
g12
S'2ND FLOOR ABB:\nThe Eng Phys Office is behind you. You can down the stairs to ABB.'
p1515
sg1106
(lp1516
(iGameClasses
Enemy
p1517
(dp1518
g12
S"'Bring me a Coffee please, I am rather tired.'"
p1519
sg3
(I100
I100
I200
tp1520
sg5
S'Dr. LaPierre'
p1521
sg1113
Nsg63
I00
sg1115
Nsg1116
I01
sg19
I0
sg21
g745
sg1117
S'coffee'
p1522
sg66
I01
sg1118
S'Here. I nice pen for your troubles.\nGo find Dr. Knights, he has more for you to do.'
p1523
sg1119
S"I can't believe you've done this."
p1524
sbasg5
S'2nd Floor ABB'
p1525
sg1122
(lp1526
g739
asg1124
(lp1527
sg1126
(g1127
g1129
g1130
g1177
tp1528
sg1133
g745
sg1134
S'You were told JHE would be your home.\nNope.\nInstead you recall countless hours lectures on the 2nd floor\nas you drifted in and out of daydreams staring out the windows on a spring afternoon...'
p1529
sg1136
I0
sbaNaa(lp1530
(iGameClasses
Map
p1531
(dp1532
g12
S'THODE BASEMENT:\nGo up to head outside.'
p1533
sg1106
(lp1534
(iGameClasses
Enemy
p1535
(dp1536
g12
S"I need to complete Kenrick's design... use my glasses to find what we need!"
p1537
sg3
(I400
I400
I400
tp1538
sg5
S'Dr. Minnick'
p1539
sg1113
Nsg63
I00
sg1115
Nsg1116
I01
sg19
I0
sg21
(I1
I7
I0
tp1540
sg1117
S"faraday's cage"
p1541
sg66
I01
sg1118
S"'Great! Now we can open the window to the electronics world!'\nYou step back and watch as Dr. Minnick adds Faraday's Cage to the oscilloscope.\n'I do not know what this oracle will have to say.'\n'It is just my responsibiliy to give you access to their knowledge.'\nYour vision begins to go blurry as you hear a low whirr grow louder and Kenrick's oscilloscope glows with\nconsiderable intensity!\nYou are shocked as you open your eyes. It seems as if you were dropped into the set of 'Tron'.\nA figure approaches as your vision slowly returns.\nThe figure is revealled to be James Clerk Maxwell!\n'We have waited many years for your coming.'\n'You will be the one to determine the fate of this faculty.'\n'My quantum relic along with the two others will give you the power to have your ring returned to you.'\n'Once you have all three you will be able to access your ring from the statue of McMaster.'\n'Good luck.'"
p1542
sg1119
S"'I'm jealous of stupid people, they have more opportunities to learn!'"
p1543
sbasg5
S'Thode Basement'
p1544
sg1122
(lp1545
(iGameClasses
Interact
p1546
(dp1547
g12
S'Looks like an old dusty workbench.'
p1548
sg5
S'Workbench'
p1549
sg1113
g20
sg1116
I00
sg21
g1540
sg1117
Nsg1118
g20
sbasg1124
(lp1550
sg1126
(g1127
g1128
g1129
g1130
g1131
tp1551
sg1133
g1540
sg1134
S"You feel the laser glares burning into the back of your neck as\nyou hastily walk amongst the rows of desks.\nIs it possible to book a study room down here without finding a phallic object drawn on the whiteboard?\nYou'll never know."
p1552
sg1136
I0
sba(iGameClasses
Map
p1553
(dp1554
g12
S'THODE:\nABB is at your rear. The campus exit is to your right.\nCootes Drive is to your left. You can go up or down the stairs.'
p1555
sg1106
(lp1556
sg5
S'Thode'
p1557
sg1122
(lp1558
g349
ag858
asg1124
(lp1559
sg1126
g1127
sg1133
g355
sg1134
S'Oh the Reactor Cafe.\nYou think of the good old days when you could actually see the reactor from the Cafe...\nAfter overhearing someone ask whether keV is bigger than MeV you first contemplate your existence,\nthen contemplate your next move...'
p1560
sg1136
I0
sba(iGameClasses
Map
p1561
(dp1562
g12
S'2ND FLOOR THODE:\nYou can go up or down the stairs.'
p1563
sg1106
(lp1564
sg5
S'2nd Floor Thode'
p1565
sg1122
(lp1566
g754
asg1124
(lp1567
sg1126
(g1127
g1128
g1129
g1130
tp1568
sg1133
g760
sg1134
S"As you enter Club Thode the smell of feet enters your nostrils.\nWho goes barefoot in a library? C'mon.\nThe memory of countless hours spent slamming together a report made of nonsense, caffeine,\nand hope makes you light headed...\nComing to your senses... You plan your next move."
p1569
sg1136
I1
sba(iGameClasses
Map
p1570
(dp1571
g12
S'3RD FLOOR THODE:\nYou can only go back down the stairs.'
p1572
sg1106
(lp1573
(iGameClasses
Enemy
p1574
(dp1575
g12
S'I would really like a cricket to continue my research...'
p1576
sg3
(I10
I10
I10
tp1577
sg5
S'Connor the Biologist'
p1578
sg1113
Nsg63
I01
sg1115
Nsg1116
I00
sg19
I15
sg21
(I1
I7
I3
tp1579
sg1117
S'cricket'
p1580
sg66
I00
sg1118
S'Thanks!'
p1581
sg1119
S"'I can't believe you've done this."
p1582
sbasg5
S'3rd Floor Thode'
p1583
sg1122
(lp1584
sg1124
(lp1585
sg1126
(g1127
g1128
g1129
g1130
g1177
tp1586
sg1133
g1579
sg1134
S"After hauling up another set of stairs you realize you probably shouldn't\nhave given up on your Pulse membership...\nThe sounds of sobbing can be heard from all around you.\nAfter you dispense all of your tissues to passing I-Sci's you plan your next move."
p1587
sg1136
I1
sbaa(lp1588
NaNaNaNaa(lp1589
(lp1590
(iGameClasses
Map
p1591
(dp1592
g12
S'CHAPEL UNDERCROFT:\nYou can only go back up to the main floor.'
p1593
sg1106
(lp1594
(iGameClasses
Enemy
p1595
(dp1596
g12
S"'Mussst eeaaat funnnndingg... Er, I mean braaains.'"
p1597
sg3
(I20
I10
I1
tp1598
sg5
S'Undead Grad Student'
p1599
sg1113
S'horrible assignment'
p1600
sg63
I00
sg1115
Nsg1116
I00
sg19
I0
sg21
g599
sg1117
Nsg66
I00
sg1118
g20
sg1119
S'My 12 year post-grad was for nothiiiiiingggggg!'
p1601
sbasg5
S'Chapel Undercroft'
p1602
sg1122
(lp1603
g593
asg1124
(lp1604
sg1126
(g1127
g1128
g1129
g1130
g1131
tp1605
sg1133
g599
sg1134
S'You struggle down the dimly lit stairway into the undercroft.\nThe distinct smell of mould enters your nose as you travel further into the musty basement.\nThe faint glow of candles cause the shadows of ancient statues to flicker on the walls of the room...\nYou plan your next move.'
p1606
sg1136
I0
sba(iGameClasses
Map
p1607
(dp1608
g12
S'MCMASTER CHAPEL:\nThe Bus Stop is in front of you back out the door. There is a set of stairs going up.\nAs well as an old stairway leading downward.'
p1609
sg1106
(lp1610
(iGameClasses
Enemy
p1611
(dp1612
g12
S"'You need prayer. Recharge at the altar.'"
p1613
sg3
(I10
I10
I10
tp1614
sg5
S'Father Frobenius'
p1615
sg1113
S'crucifix'
p1616
sg63
I00
sg1115
Nsg1116
I00
sg19
I0
sg21
g1022
sg1117
Nsg66
I00
sg1118
g20
sg1119
S'I am slain!'
p1617
sbasg5
S'The Chapel'
p1618
sg1122
(lp1619
g1016
ag1066
asg1124
(lp1620
sg1126
(g1130
g1129
g1128
tp1621
sg1133
g1022
sg1134
S"The low drone of the organ draws you in.\nThe pews are relatively empty and the lighting quite dim.\nYou think it would be in your best interest\nto pray especially with exam season just around the corner...\nIt can't hurt, right? It'd probably work better than those healing stones\non your desk."
p1622
sg1136
I0
sba(iGameClasses
Map
p1623
(dp1624
g12
S'2ND FLOOR CHAPEL:\nYou can only go back down the stairs.'
p1625
sg1106
(lp1626
sg5
S'Upstairs Chapel'
p1627
sg1122
(lp1628
g250
ag196
ag929
asg1124
(lp1629
sg1126
(g1127
g1128
g1129
g1130
g1177
tp1630
sg1133
g202
sg1134
S'The combination of ringing bells and echoes from the organ is deafening.\nYou can barely collect your thoughts.\nThe cobwebs and dust give you the impression this place has been ill-travelled\nand long forgotten.'
p1631
sg1136
I1
sbaNaa(lp1632
Na(iGameClasses
Map
p1633
(dp1634
g12
S'BUS STOP:\nHealth Sciences Library to your left. JHE field in front of you.\nThe chapel is behind you. Art Museum to your right.'
p1635
sg1106
(lp1636
(iGameClasses
Enemy
p1637
(dp1638
g12
S"'Is that even your bus pass?'"
p1639
sg3
(I10
I10
I5
tp1640
sg5
S'Larry the bus driver'
p1641
sg1113
S'huge shirt'
p1642
sg63
I00
sg1115
Nsg1116
I00
sg19
I0
sg21
g316
sg1117
Nsg66
I00
sg1118
g20
sg1119
S'That was definitely not your bus pass!'
p1643
sbasg5
S'The Bus Stop'
p1644
sg1122
(lp1645
g310
ag630
ag637
asg1124
(lp1646
sg1126
(tsg1133
g316
sg1134
S'Students gather around to catch the next bus.\nYou get pushed and shoved as they desperately clammer on-board.\nYou overhear an argument between a student and the Bus Driver when suddenly the altercation\nturns to blows and pours onto the sidewalk.'
p1647
sg1136
I0
sbaNaNaa(lp1648
Na(iGameClasses
Map
p1649
(dp1650
g12
S'JHE FIELD:\nBSB Field is to your right. McMaster map to your left.\nThe Bus Stop is at your rear. The entrance to JHE is in front of you.'
p1651
sg1106
(lp1652
(iGameClasses
Enemy
p1653
(dp1654
g12
S"'Man, you were a RIOT at the Phoenix last night!'"
p1655
sg3
(I5
I2
I10
tp1656
sg5
S'Brian the hipster'
p1657
sg1113
S'guitar'
p1658
sg63
I00
sg1115
Nsg1116
I00
sg19
I0
sg21
g621
sg1117
Nsg66
I00
sg1118
g20
sg1119
S"That's not vegan."
p1659
sbasg5
S'JHE Field'
p1660
sg1122
(lp1661
g615
ag880
ag894
asg1124
(lp1662
sg1126
(tsg1133
g621
sg1134
S'The morning sun warms your face as you scoff at a hipster slack-lining.\nStudents lie in the grass around the field even though everybody knows\nnothing gets done studying outside.\nAfter narrowly dodging a frisbee you plan what to do.'
p1663
sg1136
I0
sbaNaNaa(lp1664
Na(iGameClasses
Map
p1665
(dp1666
g12
S'FRONT OF JHE:\nBSB is to your right. Hatch to your left.\nJHE field is to your rear. Enter JHE by going forward.'
p1667
sg1106
(lp1668
sg5
S'Starting Location'
p1669
sg1122
(lp1670
g228
a(iGameClasses
Interact
p1671
(dp1672
g12
S"It's a garbage can."
p1673
sg5
S'Garbage Can'
p1674
sg1113
S'vomit'
p1675
sg1116
I00
sg21
g234
sg1117
S'msp430'
p1676
sg1118
S'You throw the MSP430 in... Yes, you have chosen wisely.'
p1677
sba(iGameClasses
Interact
p1678
(dp1679
g12
S"Welcome to The Great ENG PHYS Text Adventure!\n\nHere are the rules of the realm:\nYour orientation never changes. When you enter you will be facing the\nentrance of JHE and you will always face that way.\n\nThe commands which allow you to interact with your environment are:\nforward = f, backward = b, left = l, right = r, up = u, down = d\ntalk (person name) -talk to someone near you\nattack (person name) -attacks someone\ninspect (item name) -let's you interact with interactables and gives stats of items, can't inspect people\nequip (item name) -you pick up an item, drops any item you have in that slot\ndrop (item name) -drops an item in your inventory\neat (item name) -eat an item\nstats -will show your stats\nsearch - will search the area for things to interact with.\ninventory -will show your current inventory.\n\nBe sure to type the ENTIRE name of what you want to interact with.\nThat's it! Good Luck!"
p1680
sg5
S'Rules Sign'
p1681
sg1113
g20
sg1116
I00
sg21
g234
sg1117
g20
sg1118
g20
sbasg1124
(lp1682
sg1126
(tsg1133
g234
sg1134
S"You hear a booming voice that sounds oddly like a game developer. \ntype: 'inspect rules sign!'\nYou see the Iron Ring out front of JHE shining in the morning sun.\nThe campus is bustling with student life.\nThere are people heading in all directions with Kipling pranks\nstill scattered about JHE."
p1683
sg1136
I0
sbaNaNaa(lp1684
(iGameClasses
Map
p1685
(dp1686
g12
S'JHE BASEMENT:\nYou can only go back up to the main floor.'
p1687
sg1106
(lp1688
(iGameClasses
Enemy
p1689
(dp1690
g12
S"'I need a snack that smiles back!'"
p1691
sg3
(I17
I12
I15
tp1692
sg5
S'Zack the Snack'
p1693
sg1113
S'fanny pack'
p1694
sg63
I01
sg1115
Nsg1116
I00
sg19
I25
sg21
(I2
I4
I0
tp1695
sg1117
S'goldfish'
p1696
sg66
I00
sg1118
S'Whoa thats whack! Check out this fanny pack.'
p1697
sg1119
S'Why are you the way you are?'
p1698
sbasg5
S'JHE Basement'
p1699
sg1122
(lp1700
sg1124
(lp1701
sg1126
(g1127
g1128
g1129
g1130
g1131
tp1702
sg1133
g1695
sg1134
S'You see the remnants of failed clubs and the shattered dreams of past engineers...\nThis place is a bit chilly.'
p1703
sg1136
I1
sba(iGameClasses
Map
p1704
(dp1705
g12
S'JHE LOBBY:\nTo your right you can exit towards BSB. To your left you can head into Hatch.\nForward is the Nuclear Research building. Behind you lies the exit.\nThere are also stairs going up and down.'
p1706
sg1106
(lp1707
sg5
S'Inside JHE'
p1708
sg1122
(lp1709
g364
asg1124
(lp1710
sg1126
(tsg1133
g370
sg1134
S'JHE lobby is alive.\nStudents rushing all around as the smell of burnt coffee and sorrow tickles your nose.\nYou scan the faces around you but see no one familiar.\nThere is a confused air about this place as Kipling was just last night.\nMany engineers happy. Many more still grinding.'
p1711
sg1136
I0
sba(iGameClasses
Map
p1712
(dp1713
g12
S'2ND FLOOR JHE:\nTo the left is 2nd Floor Hatch. You can go down the stairs to JHE Lobby.'
p1714
sg1106
(lp1715
(iGameClasses
Enemy
p1716
(dp1717
g12
S"'I would like to improve my already impressive dad strength.'\n'Bring me a dumbbell.'"
p1718
sg3
(I250
I150
I100
tp1719
sg5
S'Dr. Preston'
p1720
sg1113
Nsg63
I00
sg1115
Nsg1116
I01
sg19
I0
sg21
g834
sg1117
S'dumbbell'
p1721
sg66
I01
sg1118
S"'Yes! Now I can get the pump I've been after!'\n'Go look for Dr. Buijs he has much more to tell than I.'"
p1722
sg1119
S'HOW DID YOU OVERCOME MY DAD STRENGTH?!'
p1723
sbasg5
S'2nd Floor JHE'
p1724
sg1122
(lp1725
g828
ag1024
ag1045
asg1124
(lp1726
sg1126
(g1127
g1128
g1130
g1177
tp1727
sg1133
g834
sg1134
S'You spend 20 minutes staring at the 1970 graduating class wondering if you could ever pull off a moustache like that...\nAfter realizing the cool lecture halls were only given to first years.\nYou shake your fist and plan your next move.'
p1728
sg1136
I0
sbaNaa(lp1729
(iGameClasses
Map
p1730
(dp1731
g12
S'BASEMENT OF NRB:\nYou can only go back up to the main floor.'
p1732
sg1106
(lp1733
(iGameClasses
Enemy
p1734
(dp1735
g12
S"Hello, although I've turned to the dark side to do Physics Labs\n I'm still a great guy. Did I mention I worked at CERN!?"
p1736
sg3
(I100
I75
I100
tp1737
sg5
S'Dan Fitzgreen'
p1738
sg1113
Nsg63
I00
sg1115
Nsg1116
I01
sg19
I0
sg21
g664
sg1117
g20
sg66
I01
sg1118
S"'Been a lot stirring around the faculty since last night.'\n'I used to be an adventurous student like you before the High Council and I decided to part ways.'\n'I know what you seek and I am here to help.'\n'You need to fire up that old reactor in the basement of the Tandem Accelerator.'\n'It needs some sort of high power instrument to bring it to life...'\n'I think Dr. Nagasaki has been working on something like that, he is probably somewhere in ITB.'\n'He will likely need this...'"
p1739
sg1119
S"I'm moving to the physics department"
p1740
sbasg5
S'NRB Basement'
p1741
sg1122
(lp1742
g658
asg1124
(lp1743
sg1126
(g1127
g1128
g1129
g1130
g1131
tp1744
sg1133
g664
sg1134
S'You head down the stairs to the basement...\nThe forgotten dreams of PhD students linger in the air.\nThere is an endless amount of engineering wizardry in the rooms around you.'
p1745
sg1136
I0
sba(iGameClasses
Map
p1746
(dp1747
g12
S'NUCLEAR RESEARCH BUILDING:\nTo your left lies the JHE-Annex. The Reactor is in front of you.\nThe Police Station is to your right. JHE lobby is behind you.\nThere are stairs going down.'
p1748
sg1106
(lp1749
(iGameClasses
Enemy
p1750
(dp1751
g12
S"'I've been looking for you.'\n'I have a lot to tell you, but first we must test your loyalty.'\n'There is a traitor amongst the Eng Phys faculty!'\n'His name is Chris and he was last seen in the Tandem Accelerator.'\n'Bring me what he has stolen!'"
p1752
sg3
(I250
I150
I100
tp1753
sg5
S'Dr. Buijs'
p1754
sg1113
Nsg63
I00
sg1115
Nsg1116
I01
sg19
I0
sg21
g501
sg1117
S'capstone tools'
p1755
sg66
I01
sg1118
S"'Ah you have returned.'\nYou sit down and listen to what Dr. Buijs has to say.\n'The Engineering Physics professors are part of an ancient council known as\nThe Quantum Order'\n'It is our duty to ensure the safety of this campus.'\n'It appears that your actions last night have stirred an evil\neven we don't understand.'\n'All that we do know is that some faculty members have been\ntempted by a Dark Lord with the promise of infinite knowledge.'\n'A prophecy from a time long past has foretold that an adventurer's decisions\nwould dictate the future of the faculty.'\n'Perhaps it is you they spoke of. Keep that in mind as you consider your actions.'\n'See Dan Fitzgreen in the basement.'\n'He has hatched a plan that may turn the balances in our favour.'"
p1756
sg1119
S'It is a voltage divider!'
p1757
sbasg5
S'Nuclear Research Building'
p1758
sg1122
(lp1759
g696
ag495
asg1124
(lp1760
sg1126
(tsg1133
g501
sg1134
S"You have barely ever been in here other than to struggle through\n3 hours of waiting for a water level PID controller to reach steady state.\nYou wonder how anyone could get away with a floor plan this confusing.\nPerhaps that's why no terrorists have blown up the reactor because\nthey are all still lost in here..."
p1761
sg1136
I0
sbaNaNaa(lp1762
(iGameClasses
Map
p1763
(dp1764
g12
S'INSIDE THE REACTOR:\nGo up to head outside.'
p1765
sg1106
(lp1766
(iGameClasses
Enemy
p1767
(dp1768
g12
S"What's up folks?"
p1769
sg3
(I420
I420
I420
tp1770
sg5
S'Dr. Novog'
p1771
sg1113
Nsg63
I00
sg1115
Nsg1116
I01
sg19
I0
sg21
(I2
I6
I0
tp1772
sg1117
S'pink donut'
p1773
sg66
I01
sg1118
S"'Alright folks, here's the scoop.'\n'I could only talk to you via the fusion network because the integrity of faculty\ncommunication has been compromised.'\n'The Engineering Physics professors are actually members of an Ancient Council known as The Quantum Order.'\n'For years we have kept McMast-'\n'An assassin?'\n'Hmm... I see, things are worse than we thought.'\n'We have known of this uprising within the faculty for some time but\nwere unaware of just how strong they have grown.'\n'As you have heard, a prophecy foretold of an adventurer dictating the future of the faculty.'\n'This evil group wants nothing more than to take advantage of your power and influence for their own plans.'\n'The choices you make will be yours and yours alone, however, the Quantum Order\nurges that you consider the consequences of your actions.'\n'It is our duty to assist you in realizing your ability but what comes of your power is out of our hands.'\n'You must contact the oracles who foretold of your coming, they will give you the knowledge you require.'\n'Each member of the Quantum Order only knows of the location one Oracle.'\n'For that reason I can only help you so much.'\nDr. Novog pushes a button on a nearby control panel.\nA crane arm descends into the Reactor pool to retrieve a crate from its depths.\n'Take this incantation and find the ancient mirror in the basement of Mills Library... it is your time.'"
p1774
sg1119
g20
sbasg5
S'Inside the Reactor'
p1775
sg1122
(lp1776
sg1124
(lp1777
sg1126
(g1127
g1128
g1129
g1130
g1131
tp1778
sg1133
g1772
sg1134
S'The hum of air conditioning drowns your thoughts.\nYou lose yourself staring into the faint blue glow of the pool as you slowly approach its edge.'
p1779
sg1136
I0
sba(iGameClasses
Map
p1780
(dp1781
g12
S'NUCLEAR REACTOR:\nRight is the GO station. Left is ABB.\n NRB is at your rear. The campus exit lies in front of you.\nGo down to enter.'
p1782
sg1106
(lp1783
sg5
S'Nuclear Reactor'
p1784
sg1122
(lp1785
g994
asg1124
(lp1786
sg1126
(tsg1133
g1000
sg1134
S"As you approach you wonder if that steam is really radioactive?\nIt can't be.\nThe ominous structure draws you closer as you consider what it would be\nlike to swim in that sweet blue pool..."
p1787
sg1136
I0
sbaNaNaa(lp1788
Na(iGameClasses
Map
p1789
(dp1790
g12
S'CAMPUS EXIT:\nHead to Thode by going left. Head down Cootes trail if you go right.\nThe Reactor is behind you.'
p1791
sg1106
(lp1792
sg5
S'Campus Exit'
p1793
sg1122
(lp1794
g433
asg1124
(lp1795
sg1126
g1127
sg1133
g439
sg1134
S'A faint glow can be seen in the distance.\nWarning signs litter the trail as you squint to get a better look.\nA chill is sent down your spine as you see the flickering stretched shadows of\nfighting dance on the road ahead.\nYou cannot go straight... yet.'
p1796
sg1136
I0
sbaNaNaa(lp1797
NaNaNaNaa(lp1798
(lp1799
Na(iGameClasses
Map
p1800
(dp1801
g12
S'ART MUSEUM:\nThe exit lies in front of you.'
p1802
sg1106
(lp1803
sg5
S'Inside the Art Museum'
p1804
sg1122
(lp1805
g577
a(iGameClasses
Interact
p1806
(dp1807
g12
S'An old oil painting of the founding fathers of McMaster.\nDated:April 20th, 1887'
p1808
sg5
S'Old Painting'
p1809
sg1113
S"minnick's glasses"
p1810
sg1116
I00
sg21
g583
sg1117
S"minnick's glasses"
p1811
sg1118
S"Through Dr. Minnick's glasses a glowing green inscription is revealed!\n'In the hall where we eternally meet,\nThe second clue lies beneath your feet.'\nWhile reading the secret message Dr. Minnick's glasses get increasingly hotter and you quickly swat them off your face."
p1812
sbasg1124
(lp1813
sg1126
(g1130
g1129
g1128
tp1814
sg1133
g583
sg1134
S'Who knew McMaster had such a beautiful gallery.\nYou tilt your head endlessly until the art sort of makes sense.\nAfter telling yourself you could totally make every piece in the place had you been given\na chance you put your pinky out.\nThen contemplate your next move.'
p1815
sg1136
I0
sbaNaNaa(lp1816
Na(iGameClasses
Map
p1817
(dp1818
g12
S'OUTSIDE ART MUSEUM:\nYou can enter the museum to your rear. Bus Stop is to your left.\nWilly-dog stand to your right. BSB field lies in front of you.'
p1819
sg1106
(lp1820
sg5
S'Outside the Art Museum'
p1821
sg1122
(lp1822
g585
asg1124
(lp1823
sg1126
(tsg1133
g591
sg1134
S'Standing out front of the art museum you feel you are already being critiqued.\nAfter narrowly escaping a conversation with an arts student\nabout their installation piece of a dirty coffee table...\nYou plan your next move.'
p1824
sg1136
I0
sbaNaNaa(lp1825
Na(iGameClasses
Map
p1826
(dp1827
g12
S'BSB FIELD:\nThe turning circle is to your right. JHE field is to your left.\nEntrance to BSB is in front of you. The Art Museum is to your rear.'
p1828
sg1106
(lp1829
(iGameClasses
Enemy
p1830
(dp1831
g12
S"'I heard some jebroni took the 3W Textbook and hid in Bridges cafe.'\n'Full send, dude!'"
p1832
sg3
(I10
I15
I5
tp1833
sg5
S'Andreas the Nerd'
p1834
sg1113
S'visor glasses'
p1835
sg63
I00
sg1115
Nsg1116
I00
sg19
I0
sg21
g308
sg1117
Nsg66
I00
sg1118
g20
sg1119
S'Dude, that was definitely a full send'
p1836
sbasg5
S'BSB Field'
p1837
sg1122
(lp1838
g570
a(iGameClasses
Interact
p1839
(dp1840
g12
S"You can't even tell time on an analog clock.\nHow are you supposed to use this?"
p1841
sg5
S'Sun Dial'
p1842
sg1113
S'rusty key'
p1843
sg1116
I01
sg21
g308
sg1117
S"minnick's glasses"
p1844
sg1118
S"Through Dr. Minnick's glasses, you see a green glowing handprint appears\non the face of the sundial!\nYou place your hand on it and a compartment opens."
p1845
sbag302
asg1124
(lp1846
sg1126
(tsg1133
g308
sg1134
S'You look up to see the flags flapping happily in the morning breeze.\nThat sundial at their feet ticking to the tune of celestial magic.\nAfter swatting Neil Degrasse quotes from your thoughts...\nYou consider what to do next.'
p1847
sg1136
I0
sbaNaNaa(lp1848
(iGameClasses
Map
p1849
(dp1850
g12
S'QUANTUM TUNNEL:\nGo up to return to the main floor of BSB'
p1851
sg1106
(lp1852
(iGameClasses
Enemy
p1853
(dp1854
g12
S'I am NOT going to finish this assignment... if only I had one to copy.'
p1855
sg3
(I10
I10
I10
tp1856
sg5
S'Liam the Gamer'
p1857
sg1113
Nsg63
I01
sg1115
Nsg1116
I01
sg19
I15
sg21
g407
sg1117
S'horrible assignment'
p1858
sg66
I01
sg1118
S'Nice! Take this swordfish. I needed 45 cooking for that.'
p1859
sg1119
g20
sbasg5
S'The Quantum Tunnel'
p1860
sg1122
(lp1861
g843
ag401
asg1124
(lp1862
sg1126
(g1127
g1128
g1129
g1130
g1131
tp1863
sg1133
g407
sg1134
S"What other faculty spends thousands of dollars on furniture for a\nliteral custodial closet in the BSB basement?\nYou guessed it...\nEng Phys. Gotta love em'"
p1864
sg1136
I0
sba(iGameClasses
Map
p1865
(dp1866
g12
S'BSB:\nBSB field is at your rear. Exit BSB to your right.\nThe entrance to JHE is to your left. The Quantum Tunnel is down the stairs.'
p1867
sg1106
(lp1868
sg5
S'BSB'
p1869
sg1122
(lp1870
g1038
ag279
asg1124
(lp1871
sg1126
(tsg1133
g285
sg1134
S"You were told JHE would be your home but after picking Eng Phys\nyou didn't realize how wrong you were.\nAt least the cafe is better than JHE's.\nA shudder runs through your body as you draw nearer to the electronics labs.\nWiping a cold sweat from your brow you plan ahead."
p1872
sg1136
I0
sba(iGameClasses
Map
p1873
(dp1874
g12
S'2ND FLOOR BSB:\nYou can only go back down the stairs.'
p1875
sg1106
(lp1876
sg5
S'2nd Floor BSB'
p1877
sg1122
(lp1878
g680
asg1124
(lp1879
sg1126
(g1127
g1128
g1129
g1130
g1177
tp1880
sg1133
g686
sg1134
S'Despite the horrible numbering of floors the layout of the building is great.\nNot a complaint with this one.'
p1881
sg1136
I0
sbaNaa(lp1882
Na(iGameClasses
Map
p1883
(dp1884
g12
S'JHE/BSB JUNCTION:\nEnter JHE to your left. General Sciences building to your right.\nBSB is behind you. The Police station is in front of you.'
p1885
sg1106
(lp1886
(iGameClasses
Enemy
p1887
(dp1888
g12
S"'The oscilloscope is the window into the electronic world.'"
p1889
sg3
(I100
I100
I200
tp1890
sg5
S'Kenrick'
p1891
sg1113
S"kenrick's oscilloscope"
p1892
sg63
I00
sg1115
Nsg1116
I00
sg19
I0
sg21
g486
sg1117
Nsg66
I00
sg1118
g20
sg1119
S"Oh no! My window! The Dark Lord will know I've failed him!"
p1893
sbasg5
S'Between JHE and BSB'
p1894
sg1122
(lp1895
(iGameClasses
Interact
p1896
(dp1897
g12
S'Under closer inspection you notice the book is a different kind of stone\nthan the rest...\nIf only you could get up there for a closer look...'
p1898
sg5
S'Coat of Arms'
p1899
sg1113
S'old scroll'
p1900
sg1116
I01
sg21
g486
sg1117
S'old ladder'
p1901
sg1118
S'With some effort you climb the rickety ladder and remove the book from the wall.\nReaching into the hole you pull out an old scroll!'
p1902
sbag480
asg1124
(lp1903
sg1126
(tsg1133
g486
sg1134
S"You look up and see the McMaster coat of arms engraved into the side of BSB.\nThis little pathway has been well worn and you wonder why they don't connect JHE and BSB anyway.\nAn underground (quantum) tunnel would save some hardship on a rainy day..."
p1904
sg1136
I0
sbaNaNaa(lp1905
Na(iGameClasses
Map
p1906
(dp1907
g12
S'POLICE STATION:\nThe path between JHE & BSB behind you. The GO station lies ahead of you.\nThe Nuclear Research Building is to your left. The Tandem Accelerator is to your right.'
p1908
sg1106
(lp1909
(iGameClasses
Enemy
p1910
(dp1911
g12
S"'Give me your student card!'"
p1912
sg3
(I50
I25
I10
tp1913
sg5
S'Bill the MAC Cop'
p1914
sg1113
S'solar cell'
p1915
sg63
I00
sg1115
Nsg1116
I00
sg19
I0
sg21
g122
sg1117
Nsg66
I00
sg1118
g20
sg1119
S"We aren't able to arrest you anyway!"
p1916
sbasg5
S'Police Station'
p1917
sg1122
(lp1918
g116
ag651
asg1124
(lp1919
sg1126
(tsg1133
g122
sg1134
S'Thoughts of getting kicked out of res parties fill your head.\nThose special constables are punks.\nYou mutter the lyrics of a certain N.W.A hit. After avoiding a campus P.D cruiser\nscreaming around the blind corner, you think of what to do next.'
p1920
sg1136
I0
sbaNaNaa(lp1921
Na(iGameClasses
Map
p1922
(dp1923
g12
S'GO STATION:\nThe Reactor is to your left. Keyes is to your right.\nCootes Trail is in front of you. The Police Station is behind you.'
p1924
sg1106
(lp1925
(iGameClasses
Enemy
p1926
(dp1927
g12
S"'Have you got the LON-CAPA Python code?'"
p1928
sg3
(I5
I1
I10
tp1929
sg5
S'Steven the first-year'
p1930
sg1113
S'engineering mug'
p1931
sg63
I00
sg1115
Nsg1116
I00
sg19
I0
sg21
g524
sg1117
Nsg66
I00
sg1118
g20
sg1119
S"I'm a failure at home and at school!"
p1932
sbasg5
S'GO Station'
p1933
sg1122
(lp1934
g518
ag979
asg1124
(lp1935
sg1126
(tsg1133
g524
sg1134
S'The rush of people and buses around you is disorienting.\nYou nearly get hit by 3 buses and 2 MAC Cop cars as\nyou play a strange game of real-life frogger.\nReaching a bench you sit down, catch your breath, and plan what to do next.'
p1936
sg1136
I0
sbaNaNaa(lp1937
Na(iGameClasses
Map
p1938
(dp1939
g12
S'COOTES TRAIL:\nCampus exit is to your left. GO station to your rear.\nThe Bridge to Lot M is to your right.'
p1940
sg1106
(lp1941
sg5
S'Cootes Trail'
p1942
sg1122
(lp1943
g172
ag257
a(iGameClasses
Interact
p1944
(dp1945
g12
S'This patch of dirt looks out of place...'
p1946
sg5
S'Uneven Earth'
p1947
sg1113
S'declaration of independence'
p1948
sg1116
I01
sg21
g178
sg1117
S'shovel'
p1949
sg1118
S"You begin digging and find an old box!\nYou open it up and read a note...\n'In the eldest of halls. The attic holds all.'"
p1950
sbag236
asg1124
(lp1951
sg1126
g1127
sg1133
g178
sg1134
S'The flickering light through the trees dances off of the trail ahead of you.\nYou smile as you see a squirrel gathering nuts,\nprobably for his little squirrel family.\nWith this new positive outlook on life you plan your next move.'
p1952
sg1136
I0
sbaNaNaa(lp1953
NaNaNaNaa(lp1954
(lp1955
(iGameClasses
Map
p1956
(dp1957
g12
S'MILLS BASEMENT:\nYou can only go back up to Mills.'
p1958
sg1106
(lp1959
sg5
S'Mills Basement'
p1960
sg1122
(lp1961
g540
a(iGameClasses
Interact
p1962
(dp1963
g12
S"It's an old mirror from a time long past."
p1964
sg5
S'Ancient Mirror'
p1965
sg1113
S'gamma glove'
p1966
sg1116
I01
sg21
g546
sg1117
S'ancient incantation'
p1967
sg1118
S"You mutter the incantation... Suddenly, you see the reflection of Richard Feynman himself standing behind you!\n'You have come a long way. The way of the physicist is strong with you.'\n'Here, take this it is one of the 3 Quantum Relics.\n'You will need all 3 to acquire your Iron Ring.'\n'Trust your instincts and when the time comes you will know what to do."
p1968
sbasg1124
(lp1969
sg1126
(g1127
g1128
g1129
g1130
g1131
tp1970
sg1133
g546
sg1134
S'Jeez has anyone ever been down here?\nThe rows of bookshelves seem to go on forever...\nIf only you could possess all of the knowledge they hold.'
p1971
sg1136
I0
sba(iGameClasses
Map
p1972
(dp1973
g12
S'MILLS LIBRARY:\nThe Willy Dog Stand is in front of you. MUSC is to your right.\nYou can go downstairs.'
p1974
sg1106
(lp1975
sg5
S'Mills Library'
p1976
sg1122
(lp1977
g326
a(iGameClasses
Interact
p1978
(dp1979
g12
S"It's a guide to the Bruce trail."
p1980
sg5
S'Blue Book'
p1981
sg1113
g20
sg1116
I00
sg21
g332
sg1117
g20
sg1118
g20
sba(iGameClasses
Interact
p1982
(dp1983
g12
S"Flipping through you read:\n'The mitochondria is the powerhouse of the cell.'"
p1984
sg5
S'Red Book'
p1985
sg1113
g20
sg1116
I00
sg21
g332
sg1117
g20
sg1118
g20
sbasg1124
(lp1986
sg1126
(g1129
g1128
tp1987
sg1133
g332
sg1134
S'This is definitely not Thode.\nYou wonder if anything gets done in this library.\nAll of the debauchery taking place on the 6th floor sends a shudder through your body.\nYou notice a stack of books...'
p1988
sg1136
I0
sbaNaNaa(lp1989
Na(iGameClasses
Map
p1990
(dp1991
g12
S'WILLY DOG STAND:\nThe turning circle lies in front of you. Mills library at your rear.\nThe Archway to your right. The Art Museum is to your left.'
p1992
sg1106
(lp1993
sg5
S'The Willy Dog stand'
p1994
sg1122
(lp1995
g180
ag1059
asg1124
(lp1996
sg1126
(tsg1133
g186
sg1134
S"Oh, that sweet sweet aroma.\nMany drunken nights flash through your head.\nThat Willy dog cart is more of a staple to McMaster students than the Archway next to it.\nWas it named Willy Dog after Sir William McMaster?\nYou'll never know..."
p1997
sg1136
I0
sbaNaNaa(lp1998
Na(iGameClasses
Map
p1999
(dp2000
g12
S'TURNING CIRCLE:\nWilly Dog stand is to your rear. BSB-field is to your left.\nThe Willy McMaster Statue is to your right. Head down the road if you go forward.'
p2001
sg1106
(lp2002
(iGameClasses
Enemy
p2003
(dp2004
g12
g1912
sg3
(I50
I25
I10
tp2005
sg5
S'Will the MAC Cop'
p2006
sg1113
S'fake gun'
p2007
sg63
I00
sg1115
Nsg1116
I00
sg19
I0
sg21
g194
sg1117
Nsg66
I00
sg1118
g20
sg1119
g1916
sbasg5
S'Turning Circle'
p2008
sg1122
(lp2009
g188
ag264
ag865
asg1124
(lp2010
sg1126
(tsg1133
g194
sg1134
S'The circle thing with the three trees in it is looking pretty nice\nin the morning sun.\nStudents rush all around.\nThe aroma from the Willy Dog stand is making you pretty hungry...'
p2011
sg1136
I0
sbaNaNaa(lp2012
Na(iGameClasses
Map
p2013
(dp2014
g12
S'A ROAD:\nEnter BSB to your left. Hamilton Hall to your right.\nThe turning circle is behind you. General Sciences building in front of you.'
p2015
sg1106
(lp2016
sg5
S'Campus Road'
p2017
sg1122
(lp2018
g318
ag357
asg1124
(lp2019
sg1126
(tsg1133
g324
sg1134
S"A lost first year's parent drives by in a mini-van\nclearly ignoring the 'no access' sign.\nYou thank your astrology sign for making sure they looked up and saw you."
p2020
sg1136
I0
sbaNaNaa(lp2021
Na(iGameClasses
Map
p2022
(dp2023
g12
S'GENERAL SCIENCES BUILDING:\nThe Phoenix is to your right. The junction between JHE & BSB is to your left.\nThe Tandem Accelerator is in front of you. Exit to your rear.'
p2024
sg1106
(lp2025
(iGameClasses
Enemy
p2026
(dp2027
g12
S"'I've been trying to develop a new LED...'\n'But I need some silicon, find me a Silicon Substrate please!'"
p2028
sg3
(I150
I50
I50
tp2029
sg5
S'Dr. Kitai'
p2030
sg1113
Nsg63
I00
sg1115
Nsg1116
I01
sg19
I0
sg21
g106
sg1117
S'silicon substrate'
p2031
sg66
I01
sg1118
S"'I've been looking for one just like this, how did you get it?'\n'Maybe you are th-'\n'Nevermind... just be on the lookout for Dr. Kleiman.'"
p2032
sg1119
S"'It was only a midterm, don't off yourself.'"
p2033
sbasg5
S'General Sciences'
p2034
sg1122
(lp2035
g717
ag100
asg1124
(lp2036
sg1126
(tsg1133
g106
sg1134
S"Have you ever been in here?\nI haven't.\nYou see a group of people huddled around a pentagram-wearing goat heads.\nMaybe? I seriously don't know what goes on in here."
p2037
sg1136
I0
sbaNaNaa(lp2038
(iGameClasses
Map
p2039
(dp2040
g12
S'TANDEM BASEMENT:\nYou can only go back up the stairs.'
p2041
sg1106
(lp2042
sg5
S'Tandem Basement'
p2043
sg1122
(lp2044
(iGameClasses
Interact
p2045
(dp2046
g12
S"It's an old broken reactor."
p2047
sg5
S'Broken Reactor'
p2048
sg1113
S'pink donut'
p2049
sg1116
I01
sg21
(I4
I5
I0
tp2050
sg1117
S'flux capacitor'
p2051
sg1118
S"After some elbow grease and a bit of luck you manage to complete the reactor.\nThere is a low whirr as the device starts and begins to glow with a\npink hue.\nYou feel like ancient mechanisms beyond your comprehension are coming to life.\nWithin the pink glow you see an apparition of Dr. Novog!\n'What's up folks! This is the only channel safe for communication\n'Come meet me in the basement of the Nuclear Reactor ASAP and bring that Pink Donut!'\nAs the aparition fades a hooded figure emerges from behind a lab bench.\n'The Dark Lord demands that donut!'\nThe assassin lunges for you but is quickly met by your blow.\nAs they fall to the ground you notice an insignia on their robe that tickles your 'that's familiar' bone...\nYou pull back their hood to reveal the face of an Eng Phys PhD student!\nYou don't remember their name... But you know they are in the faculty..."
p2052
sbasg1124
(lp2053
sg1126
(g1127
g1128
g1129
g1130
g1131
tp2054
sg1133
g2050
sg1134
S"An old basement with all sorts of technological wizardry you don't recognize.\nIt seems like this place has been untouched for some time.\nLooking around you get the impression that not a lot of people come down here."
p2055
sg1136
I0
sba(iGameClasses
Map
p2056
(dp2057
g12
S'TANDEM ACCELERATOR:\nThe General Sciences Building is behind you. The Police station is to your left.\nA trail is to your right. Keyes is in front of you.'
p2058
sg1106
(lp2059
(iGameClasses
Enemy
p2060
(dp2061
g12
S"'The tools should be coming any day now.'"
p2062
sg3
(I50
I75
I50
tp2063
sg5
S'Chris'
p2064
sg1113
S'capstone tools'
p2065
sg63
I00
sg1115
Nsg1116
I00
sg19
I0
sg21
g146
sg1117
Nsg66
I00
sg1118
g20
sg1119
S'I was going to quit anyway!'
p2066
sbasg5
S'Tandem Accelerator'
p2067
sg1122
(lp2068
g140
asg1124
(lp2069
sg1126
(tsg1133
g146
sg1134
S'Turns out the Tandem Accelerator is NOT a rad place to ride a 2-person bike...\nBummed out you remind yourself you graduated and consider what to do next.'
p2070
sg1136
I0
sbaNaNaa(lp2071
Na(iGameClasses
Map
p2072
(dp2073
g12
S'MARY KEYES:\nYou can head to the Bridge if you go forward. The GO station is to your left.\nThe Tandem Accelerator is at your rear. Bates is to your right.'
p2074
sg1106
(lp2075
sg5
S'Keyes'
p2076
sg1122
(lp2077
g813
ag887
asg1124
(lp2078
sg1126
(tsg1133
g819
sg1134
S"A snack station that's open 'til midnight.\nWhat a life saver indeed.\nYou quickly thank the engineering gods for Mary Keyes and fight yourself\nfrom ordering chicken fingers & fries super combo..."
p2079
sg1136
I0
sbaNaNaa(lp2080
Na(iGameClasses
Map
p2081
(dp2082
g12
S'THE BRIDGE:\nLot M is to your right. Keyes is at your rear.\nHead down Cootes trail if you go left.'
p2083
sg1106
(lp2084
sg5
S'The Bridge'
p2085
sg1122
(lp2086
g850
asg1124
(lp2087
sg1126
g1127
sg1133
g856
sg1134
S'You narrowly avoid a GO bus\npick yourself up and brush yourself off.\nThen plan your next move.'
p2088
sg1136
I0
sbaNaNaa(lp2089
NaNaNaNaa(lp2090
(lp2091
(iGameClasses
Map
p2092
(dp2093
g12
S'CUSTODIAL CLOSET:\nYou can only go up to go back to MUSC.'
p2094
sg1106
(lp2095
sg5
S'Custodial Closet'
p2096
sg1122
(lp2097
g473
ag334
ag204
asg1124
(lp2098
sg1126
(g1127
g1128
g1129
g1130
g1131
tp2099
sg1133
g210
sg1134
S'You enter the custodial closet and a formidable stench fills your nostrils...\nEw.'
p2100
sg1136
I0
sba(iGameClasses
Map
p2101
(dp2102
g12
S'MUSC:\nMills is to your left. The Archway is in front of you.\nA custodial closet is down the stairs.'
p2103
sg1106
(lp2104
sg5
S'McMaster Student Centre'
p2105
sg1122
(lp2106
g798
ag156
asg1124
(lp2107
sg1126
(g1130
g1128
tp2108
sg1133
g162
sg1134
S'The Student Centre is alive.\nAfter counting the number of jean jackets in the Starbucks line like the Count from Sesame Street\nyou snap back to reality.\n(Oops there goes gravity).\nYou notice a Starbucks employee arguing with his manager before throwing their apron to the ground.'
p2109
sg1136
I0
sbaNaNaa(lp2110
Na(iGameClasses
Map
p2111
(dp2112
g12
S'ARCHWAY:\nMUSC at your rear. Statue of Willy in front of you.\nEntrance to University Hall is to your right. The Willy Dog stand is to your left.'
p2113
sg1106
(lp2114
sg5
S'The McMaster Archway'
p2115
sg1122
(lp2116
g805
a(iGameClasses
Interact
p2117
(dp2118
g12
S'It appears the hole was caused by some sort of laser...'
p2119
sg5
S'Old Lamp'
p2120
sg1113
g20
sg1116
I00
sg21
g811
sg1117
g20
sg1118
g20
sbasg1124
(lp2121
sg1126
(tsg1133
g811
sg1134
S"Probably the most beautiful structure at Mac.\nYou notice a hole that appears to have melted through the glass of the lamp underneath...\nYou snap a quick selfie in front of the Archway for the 'gram."
p2122
sg1136
I0
sbaNaNaa(lp2123
Na(iGameClasses
Map
p2124
(dp2125
g12
S'WILLIAM MCMASTER STATUE:\nHamilton Hall is in front of you. The Archway is behind you.\nTurning Circle is to your left.'
p2126
sg1106
(lp2127
(iGameClasses
Enemy
p2128
(dp2129
g12
S'Take the power you hold in your Iron Ring and destroy all of the professors!'
p2130
sg3
(I175
I125
I200
tp2131
sg5
S'Dr. Cassidy'
p2132
sg1113
g20
sg63
I00
sg1115
Nsg1116
I00
sg19
I0
sg21
(I5
I2
I1
tp2133
sg1117
g20
sg66
I01
sg1118
g20
sg1119
S"Dr. Cassidy falls to the ground.\nThe spirit of Sir William McMaster approaches and puts his hand on your shoulder.\n'You have chosen wisely.'\n'Dr. Cassidy had been driven mad in his quest for ultimate power.'\n'You have ensured the safety of McMaster and remained true to your values.'\n'McMaster University is an institution meant to allow all facets of learning coexist in harmony.'\n'No faculty should rule over the rest.'\n'For your actions, I believe you are a worthy engineer.'\n'Here is your Iron Ring, continue to wear it with pride.'"
p2134
sba(iGameClasses
Enemy
p2135
(dp2136
g12
S"'You must rid the university of the evil Dr. Cassidy has planned!'"
p2137
sg3
(I175
I125
I100
tp2138
sg5
S'Sir William McMaster'
p2139
sg1113
S'iron ring'
p2140
sg63
I00
sg1115
Nsg1116
I00
sg19
I0
sg21
g2133
sg1117
g20
sg66
I00
sg1118
g20
sg1119
S"The spirit of Sir William McMaster bursts with a fiercely bright explosion.\nYou look down to see your Iron Ring as well as the deed to McMaster!\nDr. Cassidy quickly picks up the deed and turns to you.\n'Excellent!' he says coupled with maniacal laughter.\n'Too fulfill your true destiny, take the power you hold in your Iron Ring and destroy all of the professors'\n'Only after they are gone can Engineering Physics truly reign supreme!'"
p2141
sbasg5
S'Statue of Sir William McMaster'
p2142
sg1122
(lp2143
sg1124
(lp2144
sg1126
g1130
sg1133
g2133
sg1134
S'You approach the statue and notice the mysterious Hooded Man beneath the tree.\nHe notices you approach and stops the incantation he was reciting.\nHe motions for you to come closer.'
p2145
sg1136
I0
sbaNaNaa(lp2146
Na(iGameClasses
Map
p2147
(dp2148
g12
S'HAMILTON HALL:\nThe Phoenix is in front of you. A road is to your left.\nThe Willy McMaster Statue is to your rear.'
p2149
sg1106
(lp2150
sg5
S'Hamilton Hall'
p2151
sg1122
(lp2152
g1088
ag294
asg1124
(lp2153
sg1126
g1130
sg1133
g300
sg1134
S"You think about helping some first years in the Math help centre.\nThen you don't.\nThey should learn to fight through it if they're going to make it through the\nnext 4 years."
p2154
sg1136
I0
sbaNaNaa(lp2155
(iGameClasses
Map
p2156
(dp2157
g12
S'BRIDGES CAFE:\nYou can only go back up to the Phoenix.'
p2158
sg1106
(lp2159
(iGameClasses
Enemy
p2160
(dp2161
g12
S"'Did I mention I'm vegan?'"
p2162
sg3
(I15
I1
I5
tp2163
sg5
S'Jana the vegan'
p2164
sg1113
S'3w textbook'
p2165
sg63
I00
sg1115
Nsg1116
I00
sg19
I0
sg21
g138
sg1117
Nsg66
I00
sg1118
g20
sg1119
S'I was going to bring it back I swear!'
p2166
sbasg5
S'Bridges'
p2167
sg1122
(lp2168
g132
asg1124
(lp2169
sg1126
(g1127
g1128
g1129
g1130
g1131
tp2170
sg1133
g138
sg1134
S'You feel guilty walking in here after you performed a\nbeat down on a double big mac combo in a drunken stupor only hours earlier.\nAfter pledging to be more vegan in the future, you plan what to do next.'
p2171
sg1136
I0
sba(iGameClasses
Map
p2172
(dp2173
g12
S'THE PHOENIX:\nGeneral Sciences Building is to your left. Hamilton Hall is to your rear.\nThe trail to Bates is in front of you. You can also go down the stairs to Bridges Cafe.'
p2174
sg1106
(lp2175
(iGameClasses
Enemy
p2176
(dp2177
g12
S"'Wait... I recognize you... you have a $420E69 tab!'"
p2178
sg3
(I15
I20
I10
tp2179
sg5
S'Megan the Bartender'
p2180
sg1113
S'meow mix'
p2181
sg63
I00
sg1115
Nsg1116
I00
sg19
I0
sg21
g422
sg1117
Nsg66
I00
sg1118
g20
sg1119
S'Nuuuuuuuuuuuu'
p2182
sba(iGameClasses
Enemy
p2183
(dp2184
g12
S"'Whoever took the 3W Textbook from the QT shall feel my eternal wrath...'"
p2185
sg3
(I200
I100
I50
tp2186
sg5
S'Dr. Knights'
p2187
sg1113
Nsg63
I00
sg1115
Nsg1116
I01
sg19
I0
sg21
g422
sg1117
S'3w textbook'
p2188
sg66
I01
sg1118
S"'I've been looking all over for that, have a cold one on me!'\n'But before you go you should know that a difficult road lies ahead.'\n'It will not be easy to have your Iron Ring returned to you'\n'Dr. Haugen should be the one you seek next.'"
p2189
sg1119
S"'What are you doing?!'"
p2190
sbasg5
S'The Phoenix'
p2191
sg1122
(lp2192
g836
ag416
asg1124
(lp2193
sg1126
g1130
sg1133
g422
sg1134
S"Upon entering, a rush of memories from last night enter your mind.\nPeople's faces are a blur but you somewhat recall '16 tequila shots' as something you said.\nYou see a mysterious Hooded Man as he beckons you to come over."
p2194
sg1136
I0
sba(iGameClasses
Map
p2195
(dp2196
g12
S'PHOENIX LOFT:\nYou can only go back down the stairs.'
p2197
sg1106
(lp2198
sg5
S'The Pheonix Loft'
p2199
sg1122
(lp2200
g965
ag457
asg1124
(lp2201
sg1126
(g1127
g1128
g1129
g1130
g1177
tp2202
sg1133
g463
sg1134
S'The history up here is incredible. So many relics from a time long past.\nFrom old costumes from plays to furniture.\nAfter a quick Shakespearean sonnet you think of what to do next.'
p2203
sg1136
I1
sbaNaa(lp2204
Na(iGameClasses
Map
p2205
(dp2206
g12
S'TRAIL TO PHOENIX:\nBates lies in front of you. The Phoenix at your rear.\nThe Tandem Accelerator is to your left.'
p2207
sg1106
(lp2208
(iGameClasses
Enemy
p2209
(dp2210
g12
S"'MHhmgh, Soouh whatu we getta druuuunk'"
p2211
sg3
(I10
I5
I1
tp2212
sg5
S'Phil the drunk'
p2213
sg1113
S'vomit'
p2214
sg63
I00
sg1115
Nsg1116
I00
sg19
I0
sg21
g447
sg1117
S"phil's braces"
p2215
sg66
I00
sg1118
S"'UHhhh i thinka im gonna- im gon-'\nPhil vomits."
p2216
sg1119
S'mhmh spooky ghost urggh ectoplasm noooooo'
p2217
sbasg5
S'Trail'
p2218
sg1122
(lp2219
g623
ag441
asg1124
(lp2220
sg1126
g1130
sg1133
g447
sg1134
S"Longboarding down this trail going Mach 16 was a blast and a half.\nDodging deer and first years like it's some sort of cube runner.\nNice."
p2221
sg1136
I0
sbaNaNaa(lp2222
Na(iGameClasses
Map
p2223
(dp2224
g12
S'BATES:\nLOT M lies in front of you. Keyes is to your left.\nThe trail to the Phoenix is behind you.'
p2225
sg1106
(lp2226
sg5
S'Bates'
p2227
sg1122
(lp2228
g986
a(iGameClasses
Interact
p2229
(dp2230
g12
S'Old RCA TV with VHS slot...'
p2231
sg5
S'RCA TV'
p2232
sg1113
g20
sg1116
I00
sg21
g992
sg1117
S'tarzan vhs'
p2233
sg1118
S"You put the VHS into the slot and press play...\nThe opening scenes to Tarzan begin but suddenly the screen goes black and a message\nis displayed!\n'DrOWN I Need EveryThing graBs'"
p2234
sbasg1124
(lp2235
sg1126
g1130
sg1133
g992
sg1134
S'Memories of ridiculous res parties fill your mind.\nYou also recall the landfill of a room that was more of a circus attraction\nthan a living space.\nOh how distant first year seems...'
p2236
sg1136
I0
sbaNaNaa(lp2237
Na(iGameClasses
Map
p2238
(dp2239
g12
S'LOT M:\nTo your left is the bridge. Bates is behind you.'
p2240
sg1106
(lp2241
(iGameClasses
Enemy
p2242
(dp2243
g12
S"'Righteous! Could you help me get into my car?\nI lost my keys and can't find my car.\nI REALLY need what is in there.'"
p2244
sg3
(I14
I20
I5
tp2245
sg5
S'Rod the climber'
p2246
sg1113
S'delicious meal'
p2247
sg63
I00
sg1115
Nsg1116
I00
sg19
I0
sg21
g83
sg1117
S'bowling ball'
p2248
sg66
I00
sg1118
S'Thanks!\nNow I can learn to bowl that perfect strike.\nTake this, I just cooked it up.'
p2249
sg1119
S'Ouch!'
p2250
sbasg5
S'Lot M'
p2251
sg1122
(lp2252
g762
ag710
ag379
ag77
asg1124
(lp2253
sg1126
(g1127
g1130
tp2254
sg1133
g83
sg1134
S'After 3 days of hiking you arrive at Lot M.\nAfter 2 more days of looking for your car you give up and contemplate what to do next.'
p2255
sg1136
I0
sbaNaNaa(lp2256
NaNaNaNaa(lp2257
(lp2258
NaNaNaNaa(lp2259
(iGameClasses
Map
p2260
(dp2261
g12
S'SECRET ROOM:\nYou can only climb up and out.'
p2262
sg1106
(lp2263
sg5
S'Secret Room'
p2264
sg1122
(lp2265
(iGameClasses
Interact
p2266
(dp2267
g12
S"You blow the dust off, open it, and read:\n'The ability to peer into history would be a most formidable power.'\n'I have potentially produced a piece of the puzzle but without a\n'device capable of maintaining the field density long enough I fear\n'it will never become a reality.'\n'Thus I have decided to hide my invention until the time comes where\nsomeone can realize my dream.'\n'If you are reading this, find the place where you can see\ncampus in its entirety.'\n'If you ARE the hero, the next steps shall be revealed.'\n-M. Faraday"
p2268
sg5
S'Old Journal'
p2269
sg1113
g20
sg1116
I00
sg21
(I6
I1
I0
tp2270
sg1117
g20
sg1118
g20
sbasg1124
(lp2271
sg1126
(g1127
g1128
g1129
g1130
g1131
tp2272
sg1133
g2270
sg1134
S"You inspect the floorboards and find one is loose.\nUpon lifting it you reveal a secret room!\nYou climb down and find yourself surrounded by stacks of ancient books and\nforgotten items from McMaster's past."
p2273
sg1136
I0
sba(iGameClasses
Map
p2274
(dp2275
g12
S'UNIVERSITY HALL:\nThe exit is to your left.'
p2276
sg1106
(lp2277
sg5
S'Inside University Hall'
p2278
sg1122
(lp2279
g1002
asg1124
(lp2280
sg1126
(g1130
g1128
g1127
tp2281
sg1133
(I6
I1
I1
tp2282
sg1134
S'The glares from portraits of old white founding fathers intimidate you.\nThe memories of failing midterms in their presence sends you into an almost trance-like state.\nYou notice that the portrait of Keyes totally looks like Stephen Fry.\nAfter talking yourself out of stealing a piece of Mac history you plan your next move.'
p2283
sg1136
I0
sba(iGameClasses
Map
p2284
(dp2285
g12
S'2ND FLOOR UH:\nYou can only go back down the stairs.'
p2286
sg1106
(lp2287
sg5
S'2nd Floor UH'
p2288
sg1122
(lp2289
(iGameClasses
Interact
p2290
(dp2291
g12
S'Looks like a set of glasses with multiple coloured lenses...'
p2292
sg5
S'Tri-Coloured Glasses'
p2293
sg1113
Nsg1116
I00
sg21
(I6
I1
I2
tp2294
sg1117
S'declaration of independence'
p2295
sg1118
S"Its a cipher...\nOn the back of the declaration you can see different coded messages using the coloured lenses...\nRED:'Lithium Carbon Boron Mangnesium(-g)'\nBLUE:'Jerry likes presents.'\nGREEN:'Guardians of De Galaxy character.'"
p2296
sbasg1124
(lp2297
sg1126
(g1127
g1128
g1129
g1130
g1177
tp2298
sg1133
g2294
sg1134
S'You make your way up the rickety staircase into a room from a time long past.\nYou notice a dust covered table with some old instruments and clutter thrown about.'
p2299
sg1136
I0
sbaNaa(lp2300
NaNaNaNaa(lp2301
NaNaNaNaa(lp2302
NaNaNaNaa(lp2303
NaNaNaNaa(lp2304
NaNaNaNaa(lp2305
NaNaNaNaa(lp2306
NaNaNaNaatp2307
a(dp2308
S'dr. soleymani'
p2309
g1166
sS'dr. knights'
p2310
g2183
sS'bill the mac cop'
p2311
g1910
sS'dr. kleimann'
p2312
g1454
sS'mario the mixologist'
p2313
g1420
sS'sir william mcmaster'
p2314
g2135
sS'will the mac cop'
p2315
g2003
sS'eric the baller'
p2316
g1250
sS'dan fitzgreen'
p2317
g1734
sS'dr. buijs'
p2318
g1750
sS'kenrick'
p2319
g1887
sS'dr. haugen'
p2320
(iGameClasses
Enemy
p2321
(dp2322
g12
S"'Hello, as you are likely aware, there has been a disturbance...'\n'You losing your Iron Ring was no accident, it was taken from you.'\n'The Quantum Order is an ancient fold whose goal is to protect the\nUniversity from certain doom and misuse of our knowledge.'\n'There has been an item of importance stolen from us and we need it returned immediately.'\n'Especially if you are to find your Iron Ring.'\n'The council has received intelligence that Dr. Soleymani has stolen Einstein's brain from the McMaster vault.'\n'You must retrieve it at once, she can be found somewhere in the hospital.'\n'Do not underestimate her! She has been tempted by a Dark Lord.'\n'The Quantum Order requires that you defeat her and return the brain at once!'"
p2323
sg3
(I250
I100
I999
tp2324
sg5
S'Dr. Haugen'
p2325
sg1113
Nsg63
I00
sg1115
Nsg1116
I01
sg19
I200
sg21
g554
sg1117
S"einstein's brain"
p2326
sg66
I01
sg1118
S"'Oh my! You've returned! I knew you could do it!'\n'Quickly, hand it over!'\nYou hand Dr. Haugen the brain and he opens the fridge placing it inside.\n'Now, we just need to mount my laser onto my bench-'\nSuddenly a rabid Grad Student bursts into the lab!\n'Hand over the brain, the Dark Lord demands it!' he says.\n'If you strike me down, I will become more powerful than\nyou could possibly imagine' Dr. Haugen replies.\nThe Grad Student lunges at Dr. Haugen who disappears entirely!\nJust before the perplexed Grad Student turns towards you he is met by your blow\nand falls to the floor."
p2327
sg1119
S'Oh my!'
p2328
sbsS'chris'
p2329
g2060
sS'dr. preston'
p2330
g1716
sS'dr. nagasaki'
p2331
g1284
sS'connor the biologist'
p2332
g1574
sS'dr. novog'
p2333
g1767
sS'mitch the ta'
p2334
g1215
sS'rod the climber'
p2335
g2242
sS'jana the vegan'
p2336
g2160
sS'steven the first-year'
p2337
g1926
sS'dr. minnick'
p2338
g1535
sS'brian the hipster'
p2339
g1653
sS'father frobenius'
p2340
g1611
sS'paul the janitor'
p2341
g1267
sS'dr. kitai'
p2342
g2026
sS'hooded man'
p2343
(iGameClasses
Enemy
p2344
(dp2345
g12
S"'I knew you could do it.'\n'I knew you were the one the prophecy spoke of.'\n'For too long the Quantum Order has kept me in isolation...'\n'They thought I was poisoning the minds of students and did not agree\nwith my methods.'\n'But now you have brought the Quantum Relics which will give me the power\nto shape the faculty as I see fit!'\nThe Hooded Man pulls back his hood to reveal the familiar face you only recall from legend!\nIt is Dr. Cassidy himself!"
p2346
sg3
(I999
I999
I999
tp2347
sg5
S'Hooded Man'
p2348
sg1113
g20
sg63
I01
sg1115
Nsg1116
I00
sg19
I999
sg21
g2133
sg1117
Nsg66
I01
sg1118
g20
sg1119
g20
sbsS'liam the gamer'
p2349
g1853
sS'zack the snack'
p2350
g1689
sS'larry the bus driver'
p2351
g1637
sS'megan the bartender'
p2352
g2176
sS'dr. lapierre'
p2353
g1517
sS'brendan fallon'
p2354
(iGameClasses
Enemy
p2355
(dp2356
g12
S"What's up dude? I'm here to bless up your shit.\nDo you have my lunch box?"
p2357
sg3
(I9999
I9999
I9999
tp2358
sg5
S'Brendan Fallon'
p2359
sg1113
S'green bang bong'
p2360
sg63
I01
sg1115
Nsg1116
I00
sg19
I999
sg21
g146
sg1117
S"brendan fallon's lunchbox"
p2361
sg66
I00
sg1118
S'THANKS! TOKE UP MY DUDES!'
p2362
sg1119
g20
sbsS'phil the drunk'
p2363
g2209
sS'undead grad student'
p2364
g1595
sS'erik the sk8r'
p2365
g1108
sS'andreas the nerd'
p2366
g1830
sS'dr. cassidy'
p2367
g2128
sa(dp2368
S'red book'
p2369
g1982
sS'workbench'
p2370
g1546
sS'rules sign'
p2371
g1678
sS'old car'
p2372
g1316
sS'red car'
p2373
g1304
sS'fridge'
p2374
g1480
sS'old painting'
p2375
g1806
sS'optical bench'
p2376
g1487
sS'garbage can'
p2377
g1671
sS'uneven earth'
p2378
g1944
sS'lenovo laptop'
p2379
g1464
sS'new car'
p2380
g1320
sS'mouse'
p2381
g1368
sS'coat of arms'
p2382
g1896
sS'rca tv'
p2383
g2229
sS'sharpxchange'
p2384
g1153
sS'tri-coloured glasses'
p2385
g2290
sS'mcmaster map'
p2386
g1396
sS'blue car'
p2387
g1309
sS'blue book'
p2388
g1978
sS'broken reactor'
p2389
g2045
sS'sun dial'
p2390
g1839
sS'old lamp'
p2391
g2117
sS'old journal'
p2392
g2266
sS'display case'
p2393
g1503
sS'ancient mirror'
p2394
g1962
sa(dp2395
S'secret spaces'
p2396
I0
sS'the dark lord'
p2397
I0
sS'create chaos'
p2398
I0
sS'preston get dumbbell'
p2399
I0
sS'kitai get silicon substrate'
p2400
I0
sS'knights get book'
p2401
I0
sS'lapierre get coffee'
p2402
I0
sS'talk to mysterious man'
p2403
I0
sS'minnick get oscilloscope'
p2404
I0
sS'maxwell portal'
p2405
I0
sS'feynman mirror'
p2406
I0
sS'EPTA all the way down'
p2407
I1
sS'kleimann get solar cell'
p2408
I0
sS'einstein fridge'
p2409
I0
sS'university man'
p2410
I0
sS'dan fix reactor'
p2411
I0
sS'get key to display case'
p2412
I0
sS'buijs kill chris'
p2413
I0
sS'haugen kill soleymani'
p2414
I0
sS'restored order'
p2415
I0
sS'novog get donut'
p2416
I0
sS'end game start'
p2417
I0
sa(dp2418
S'playername'
p2419
g6
sS'layersdeep'
p2420
I0
sS'timestart'
p2421
F1546481670.998
sS'savepath'
p2422
S'D:\\Files\\bflaw\\Documents\\GitHub\\EngPhysAdventure\\cache\\'
p2423
sS'gamestart'
p2424
F1546404248.337
sS'commandcount'
p2425
I689
sS'log'
p2426
(lp2427
S'loadgame'
p2428
aS'r'
p2429
ag2429
ag2429
aS'f'
p2430
aS'talk hooded man'
p2431
aS'l'
p2432
ag2432
ag2432
ag2432
ag2432
ag2432
aS'b'
p2433
aS'u'
p2434
aS'equip silicon subtrate'
p2435
aS'd'
p2436
ag2429
ag2429
ag2429
ag2430
ag2429
aS'talk dr. kitai'
p2437
ag2430
ag2430
ag2430
ag2429
ag2429
ag2430
ag2429
ag2432
ag2430
ag2429
aS'equip cheese'
p2438
ag2433
ag2433
ag2433
aS'bl'
p2439
ag2432
ag2432
ag2432
ag2432
ag2432
ag2433
ag2433
ag2429
ag2433
ag2429
ag2430
ag2430
ag2432
ag2432
ag2432
ag2430
ag2433
ag2429
ag2429
ag2430
aS'equip coffee'
p2440
ag2432
ag2430
ag2430
ag2434
aS'talk dr. lapiere'
p2441
ag2436
ag2433
ag2430
ag2429
ag2433
ag2432
ag2430
ag2434
ag2436
ag2433
ag2429
ag2429
ag2433
ag2432
aS'equip cheese'
p2442
ag2432
ag2433
ag2433
ag2433
ag2429
ag2433
ag2430
ag2432
ag2432
ag2433
ag2433
ag2432
ag2429
ag2434
ag2434
aS'inspect mouse'
p2443
aS'inspect gilded blunderbuss'
p2444
aS'equip gilded blunderbuss'
p2445
ag2436
ag2430
ag2436
ag2430
ag2429
ag2429
ag2429
ag2430
ag2430
ag2430
ag2429
ag2436
aS'attack jana the vegan'
p2446
aS'equip 3w textbook'
p2447
ag2434
aS'talk dr. nights'
p2448
aS'll'
p2449
ag2432
ag2432
ag2432
ag2432
ag2432
ag2430
ag2430
ag2430
aS'equip old ladder'
p2450
ag2433
ag2433
ag2429
ag2429
ag2433
ag2429
aS'inspect coat of arms'
p2451
ag2432
ag2432
ag2432
ag2433
ag2433
ag2433
ag2430
ag2436
aS'equip okons chainmail'
p2452
aS'equip dairy of the fallen'
p2453
ag2434
ag2429
ag2429
ag2429
ag2430
aS'eat banan wires'
p2454
ag2430
ag2430
ag2429
aS'attack chris'
p2455
ag2432
aS'attack bill the mac cop'
p2456
ag2433
ag2433
aS'drop diary of the fallen'
p2457
ag2433
ag2433
ag2432
ag2433
ag2432
ag2430
ag2432
ag2433
aS'equip dumbbell'
p2458
ag2430
ag2430
ag2429
ag2430
ag2429
ag2432
ag2430
ag2434
aS'talk dr. preston'
p2459
ag2436
ag2430
ag2429
ag2429
aS'equip capstone tools'
p2460
ag2432
ag2432
aS'talk dr. buijs'
p2461
ag2436
aS'talk dan fitzgreen'
p2462
aS'equip ambifancient lundar waneshaft'
p2463
ag2434
ag2432
ag2432
ag2434
aS'talk dr. nagaski'
p2464
aS'equip flux capacitor'
p2465
ag2436
ag2429
ag2429
ag2429
ag2429
ag2436
aS'inspect broken reactor'
p2466
aS'equip pink donut'
p2467
ag2434
ag2432
ag2432
ag2430
ag2436
aS'talk dr. novog'
p2468
aS'equip ancient incantation'
p2469
ag2434
ag2433
ag2429
aS'search'
p2470
aS'inspect tony hawk shirt'
p2471
ag2429
ag2429
ag2433
ag2433
ag2429
ag2433
ag2433
ag2432
ag2433
ag2436
aS'inspect ancient mirror'
p2472
aS'equip gamma glove'
p2473
ag2434
ag2430
ag2430
aS'stats'
p2474
aS'inventory'
p2475
ag2430
ag2432
ag2430
ag2433
aS'equip diary of the fallen'
p2476
ag2430
aS'attack kenrick'
p2477
ag2433
aS'drop diary of the fallen'
p2478
ag2430
ag2430
aS'equip solar cell'
p2479
ag2432
ag2434
ag2432
ag2434
aS'talk dr. kleimann'
p2480
ag2436
ag2429
ag2433
ag2429
ag2430
ag2433
aS"equip kenrick's oscilliscope"
p2481
ag2433
aS'talk dr. minnick'
p2482
aS"equip minnick's glasses"
p2483
ag2433
aS'inspect sun dial'
p2484
aS'equip rusty key'
p2485
ag2432
ag2432
ag2430
ag2430
ag2430
ag2430
aS'inspect dispplay case'
p2486
aS"equip farady's cage"
p2487
ag2430
ag2436
aS'talk dr. minnick'
p2488
aS'equip gauss eye'
p2489
ag2434
ag2433
ag2433
ag2429
ag2432
ag2432
ag2433
ag2433
ag2433
ag2433
ag2434
aS'attack dr. soleymani'
p2490
aS"equip einstein's brain"
p2491
ag2436
ag2430
ag2429
ag2430
ag2430
ag2430
ag2430
ag2436
aS'talk dr. haugen'
p2492
aS'equpi femtosecond laser'
p2493
aS'inspect optical bench'
p2494
aS'equip relativistic key'
p2495
aS'inspect fridge'
p2496
aS'equip pedrottie cubed'
p2497
ag2434
aS'stats'
p2498
aS'inventory'
p2499
ag2433
ag2429
ag2429
ag2429
ag2433
ag2429
ag2433
ag2433
aS'savegame'
p2500
aS'talk hooded man'
p2501
aS'talk dr. cassidy'
p2502
aS'search'
p2503
aS'attack sir william mcmaster'
p2504
aS'eqiup iron ring'
p2505
aS'inspect iron ring'
p2506
aS'stats'
p2507
aS'0l'
p2508
ag2432
ag2432
ag2430
ag2434
ag2436
ag2436
ag2434
ag2429
ag2429
ag2432
ag2432
ag2432
ag2434
ag2430
ag2434
aS'attack dr. preston'
p2509
ag2436
ag2434
ag2432
ag2430
aS'attack dr. kleimann'
p2510
ag2430
aS'attack dr. lapierre'
p2511
ag2436
ag2430
ag2432
ag2429
ag2436
aS'attack dr. minnick'
p2512
ag2434
ag2433
ag2432
ag2430
ag2432
ag2433
ag2433
ag2434
aS'attack dr. nagaski'
p2513
ag2436
ag2429
ag2429
aS'attack dr. buijs'
p2514
ag2436
aS'attack dan fitzgreen'
p2515
ag2434
ag2430
ag2436
aS'attack dr. novog'
p2516
ag2434
ag2433
ag2429
ag2429
ag2433
aS'savegame'
p2517
aS'attack dr. kitai'
p2518
ag2429
aS'attack dr. knights'
p2519
aS'--END OF LOG--'
p2520
aS'Stepcount: 286'
p2521
aS'Command Count: 373'
p2522
aS'Run Time: 887.019999981'
p2523
aS'--Character STATS--'
p2524
aS'(5, 4, 1)'
p2525
aS'(1175, 1300, 1375)'
p2526
aS'55'
p2527
aS'HEAD: Gauss Eye'
p2528
aS'BODY: Okons Chainmail'
p2529
aS'HAND: Iron Ring'
p2530
aS'OFF-HAND: Pedrotti Cubed'
p2531
aS'---THEY WON---'
p2532
aS'search'
p2533
aS'savegame'
p2534
ag2432
ag2432
ag2433
ag2436
aS"equip brendan fallon's lunchbox"
p2535
aS'equip pedrotti cubed'
p2536
ag2434
aS'inspect pedrotti cubed'
p2537
aS'drop pedrotti cubed'
p2538
ag2436
aS"equip brendan fallon's lunchbox"
p2539
ag2434
ag2432
ag2432
ag2432
ag2432
ag2430
ag2430
ag2429
ag2429
ag2429
ag2433
ag2433
ag2429
ag2430
ag2429
ag2429
ag2433
ag2433
ag2433
ag2432
ag2432
ag2432
ag2432
ag2432
ag2429
ag2429
ag2433
ag2429
ag2429
ag2429
ag2429
ag2429
ag2430
ag2430
ag2430
ag2432
ag2432
ag2432
ag2429
ag2429
ag2433
ag2433
ag2429
ag2429
ag2429
ag2430
ag2429
ag2432
ag2432
ag2433
ag2429
ag2433
ag2433
ag2432
ag2430
ag2429
ag2430
ag2429
aS'savgame'
p2540
aS'attack dr. cassidy'
p2541
ag2430
ag2432
ag2432
ag2432
ag2432
ag2432
aS'attack mitch the ta'
p2542
aS'inspect phone'
p2543
ag2434
ag2434
ag2436
ag2436
ag2434
ag2433
ag2434
ag2436
ag2434
ag2433
ag2436
ag2434
ag2436
ag2433
ag2434
ag2436
aS'attack erik the sk8r'
p2544
aS"inspect erik's frosted tips"
p2545
ag2434
ag2433
ag2432
ag2429
aS'inventory'
p2546
ag2434
ag2434
ag2436
ag2436
ag2429
ag2430
ag2429
aS'attack larry the buss driver'
p2547
ag2433
aS'attack father frobenius'
p2548
ag2436
aS'attack undead grad student'
p2549
ag2434
ag2430
ag2430
ag2430
ag2433
ag2429
ag2430
aS"drop brendan fallon's lunchbox"
p2550
ag2432
ag2433
ag2433
ag2433
ag2436
aS'equpi horrible assignment'
p2551
ag2434
ag2430
ag2430
ag2432
ag2429
ag2429
ag2430
ag2436
aS'savegame'
p2552
aS'talk liam the gamer'
p2553
aS'inspect swordfish'
p2554
ag2434
aS"equip brendan Fallon's lunchbox"
p2555
ag2433
aS'attack andreas the nerd'
p2556
ag2433
ag2432
ag2433
ag2430
ag2429
ag2433
ag2436
ag2434
ag2430
ag2429
ag2433
ag2434
ag2436
ag2436
ag2434
ag2429
ag2434
ag2436
ag2434
ag2430
ag2434
ag2436
ag2432
ag2430
aS'attack will the mac cop'
p2557
ag2429
ag2430
ag2429
ag2433
ag2429
ag2433
ag2429
ag2434
ag2436
ag2436
ag2434
ag2432
ag2430
ag2430
ag2434
ag2436
ag2430
aS'attack megan the bartender'
p2558
ag2436
ag2434
ag2430
aS'attack phil the drunk'
p2559
ag2430
ag2430
aS'attack rod the climber'
p2560
ag2433
ag2433
ag2430
ag2430
ag2432
ag2433
ag2433
ag2433
ag2434
ag2436
ag2433
ag2433
ag2432
ag2430
ag2430
ag2430
ag2430
aS'attack steven the first-year'
p2561
ag2430
ag2432
ag2430
ag2433
ag2433
ag2433
ag2433
ag2433
ag2433
ag2429
ag2430
ag2430
ag2433
ag2433
ag2429
ag2429
ag2429
ag2433
ag2429
ag2432
ag2433
ag2433
ag2436
aS'inspect shovel'
p2562
ag2434
ag2432
ag2432
ag2430
ag2430
ag2430
ag2432
aS'stats'
p2563
aS'inventory'
p2564
aS'drop iron ring'
p2565
ag2433
ag2429
ag2433
ag2433
ag2433
ag2436
aS'equip ancient mirror'
p2566
ag2434
ag2430
ag2430
ag2430
ag2432
ag2430
ag2430
ag2430
ag2432
ag2429
ag2430
aS'inspect uneven earth'
p2567
aS'inventory'
p2568
ag2429
ag2433
ag2433
ag2429
ag2433
ag2433
ag2433
ag2433
ag2433
ag2436
aS'equip shovel'
p2569
ag2434
aS'inventory'
p2570
ag2430
ag2430
ag2430
ag2430
ag2432
ag2432
ag2430
ag2430
ag2430
aS'inspect uneven earth'
p2571
aS'inspect declaration of independence '
p2572
ag2433
ag2433
ag2433
ag2433
aS'equip iron ring'
p2573
ag2432
aS'inspect rules sign'
p2574
ag2432
ag2432
ag2430
ag2430
aS'attack paul the janitor'
p2575
aS'inspect bleach squirt bottle'
p2576
ag2429
ag2433
aS'attack mario the mixologist'
p2577
ag2433
ag2429
ag2433
aS'attack brian the hipster'
p2578
ag2429
ag2432
aS'inspect guitar'
p2579
ag2429
ag2433
aS'savegame'
p2580
asS'stepcount'
p2581
I555
sS'version'
p2582
F0.27
sS'versionname'
p2583
S'Alpha v0.27 - Dev Update'
p2584
sS'runtime'
p2585
F1583.4029998779297
sa.