(lp0
(iGameClasses
Character
p1
(dp2
S'stats'
p3
(I0
I0
I0
tp4
sS'name'
p5
S'Brendan Fallon'
p6
sS'inv'
p7
(dp8
S'body'
p9
(iGameClasses
Equipment
p10
(dp11
S'info'
p12
S'Nothing is Equipped'
p13
sg3
(I0
I0
I0
tp14
sg5
S'EMPTY'
p15
sS'image'
p16
S'EMPTY.png'
p17
sS'worn'
p18
g9
sS'health'
p19
I-101
sS'location'
p20
(lp21
I2
aI4
aI1
asbsS'head'
p22
(iGameClasses
Equipment
p23
(dp24
g12
g13
sg3
(I0
I0
I0
tp25
sg5
g15
sg16
g17
sg18
g22
sg19
I-101
sg20
g21
sbsS'off-hand'
p26
(iGameClasses
Equipment
p27
(dp28
g12
g13
sg3
(I0
I0
I0
tp29
sg5
g15
sg16
g17
sg18
g26
sg19
I-101
sg20
g21
sbsS'hand'
p30
(iGameClasses
Equipment
p31
(dp32
g12
g13
sg3
(I0
I0
I0
tp33
sg5
g15
sg16
g17
sg18
g30
sg19
I-101
sg20
g21
sbssS'emptyinv'
p34
(dp35
g9
g10
sg22
g23
sg26
g27
sg30
g31
ssS'maxhealth'
p36
I100
sS'alive'
p37
I01
sS'basestats'
p38
(lp39
I0
aI0
aI0
asg19
I100
sg20
g21
sS'spoke'
p40
I00
sba(dp41
S'cheese'
p42
(iGameClasses
Equipment
p43
(dp44
g12
S'Not just cheddar, the smelly kind.'
p45
sg3
(I1
I1
I1
tp46
sg5
S'Cheese'
p47
sg16
S'Cheese.jpg'
p48
sg18
S'off-hand'
p49
sg19
I5
sg20
(I5
I7
I1
tp50
sbsS'delicious meal'
p51
(iGameClasses
Equipment
p52
(dp53
g12
S'A beautiful, home-cooked, meal.'
p54
sg3
(I1
I1
I1
tp55
sg5
S'Delicious Meal'
p56
sg16
S'Meal.jpg'
p57
sg18
g49
sg19
I25
sg20
(NNNtp58
sbsS'shovel'
p59
(iGameClasses
Equipment
p60
(dp61
g12
S'Call a spade a spade.'
p62
sg3
(I15
I0
I5
tp63
sg5
S'Shovel'
p64
sg16
S'Shovel.jpg'
p65
sg18
g30
sg19
S''
p66
sg20
(I5
I0
I0
tp67
sbsS'bowling ball'
p68
(iGameClasses
Equipment
p69
(dp70
g12
S'Heavy.'
p71
sg3
(I20
I15
I-5
tp72
sg5
S'Bowling Ball'
p73
sg16
S'BowlingBall.jpg'
p74
sg18
g30
sg19
g66
sg20
g58
sbsS'led of power'
p75
(iGameClasses
Equipment
p76
(dp77
g12
S'An LED with the power output of a neutron star, ok maybe not.'
p78
sg3
(I21
I0
I20
tp79
sg5
S'LED of Power'
p80
sg16
S'LED.jpg'
p81
sg18
g30
sg19
g66
sg20
(I4
I4
I1
tp82
sbsS'green bang bong'
p83
(iGameClasses
Equipment
p84
(dp85
g12
S"The sacred glass flute providing righteous tokes since '69."
p86
sg3
(I420
I420
I420
tp87
sg5
S'Green Bang Bong'
p88
sg16
S'GBB.jpg'
p89
sg18
g49
sg19
g66
sg20
(I2
I4
I1
tp90
sbsS'gas mask'
p91
(iGameClasses
Equipment
p92
(dp93
g12
S'No one cared who I was till I put on the mask.'
p94
sg3
(I3
I6
I5
tp95
sg5
S'Gas Mask'
p96
sg16
S'GasMask.jpg'
p97
sg18
g22
sg19
g66
sg20
(I3
I5
I1
tp98
sbsS'surgical mask'
p99
(iGameClasses
Equipment
p100
(dp101
g12
S"Don't touch me I'm sterile!"
p102
sg3
(I0
I2
I3
tp103
sg5
S'Surgical Mask'
p104
sg16
S'SurgicalMask.jpg'
p105
sg18
g22
sg19
g66
sg20
(I0
I1
I1
tp106
sbsS'tofu'
p107
(iGameClasses
Equipment
p108
(dp109
g12
S"Vegan's delight."
p110
sg3
(I1
I0
I5
tp111
sg5
S'Tofu'
p112
sg16
S'Carrot.jpg'
p113
sg18
g30
sg19
I2
sg20
(I5
I4
I0
tp114
sbsS'jar of horse radish'
p115
(iGameClasses
Equipment
p116
(dp117
g12
S'Apparently not an instrument...'
p118
sg3
(I2
I0
I4
tp119
sg5
S'Jar of Horse Radish'
p120
sg16
S'HRaddish.jpg'
p121
sg18
g49
sg19
I3
sg20
(I4
I5
I1
tp122
sbsS'gilded blunderbuss'
p123
(iGameClasses
Equipment
p124
(dp125
g12
S'A beautiful firearm with infinite ammo.'
p126
sg3
(I200
I5
I50
tp127
sg5
S'Gilded Blunderbuss'
p128
sg16
S'Blunderbuss.jpg'
p129
sg18
g30
sg19
g66
sg20
g58
sbsS'squash racket'
p130
(iGameClasses
Equipment
p131
(dp132
g12
S"Dr. Buijs' Racket? Voltage Divider!"
p133
sg3
(I5
I0
I8
tp134
sg5
S'Squash Racket'
p135
sg16
S'Racket.jpg'
p136
sg18
g30
sg19
g66
sg20
(I5
I0
I1
tp137
sbsS'tarzan vhs'
p138
(iGameClasses
Equipment
p139
(dp140
g12
S'If only I had a VCR...'
p141
sg3
(I0
I2
I6
tp142
sg5
S'Tarzan VHS'
p143
sg16
S'Tarzan.jpg'
p144
sg18
g49
sg19
I3
sg20
(I0
I2
I1
tp145
sbsS'bike helmet'
p146
(iGameClasses
Equipment
p147
(dp148
g12
S'One of those fast Tour de France ones.'
p149
sg3
(I0
I8
I10
tp150
sg5
S'Bike Helmet'
p151
sg16
S'BikeHelmet.jpg'
p152
sg18
g22
sg19
g66
sg20
(I3
I7
I1
tp153
sbsS'empty bottle'
p154
(iGameClasses
Equipment
p155
(dp156
g12
S'Dasani, more like Dishonest! Amirite?!'
p157
sg3
(I1
I0
I1
tp158
sg5
S'Empty Bottle'
p159
sg16
S'EmptyBottle.jpg'
p160
sg18
g30
sg19
g66
sg20
(I4
I1
I1
tp161
sbsS'hard hat'
p162
(iGameClasses
Equipment
p163
(dp164
g12
S"You don't really want to look like a Civil kid. But at least it protects your head."
p165
sg3
(I1
I10
I5
tp166
sg5
S'Hard Hat'
p167
sg16
S'HardHat.jpg'
p168
sg18
g22
sg19
g66
sg20
(I4
I2
I1
tp169
sbsS'priest gown'
p170
(iGameClasses
Equipment
p171
(dp172
g12
S'Wearing this gives people the impression you are a holy person...'
p173
sg3
(I1
I5
I3
tp174
sg5
S'Priest Gown'
p175
sg16
S'Gown.jpg'
p176
sg18
g9
sg19
g66
sg20
(I2
I0
I2
tp177
sbsS'used plunger'
p178
(iGameClasses
Equipment
p179
(dp180
g12
S'Used. Lovely...'
p181
sg3
(I10
I0
I10
tp182
sg5
S'Used Plunger'
p183
sg16
S'Plunger.jpg'
p184
sg18
g30
sg19
g66
sg20
g67
sbsS'dumbbell'
p185
(iGameClasses
Equipment
p186
(dp187
g12
S'The pump is the greatest feeling in the world.'
p188
sg3
(I5
I0
I2
tp189
sg5
S'Dumbbell'
p190
sg16
S'Dumbbell.jpg'
p191
sg18
g49
sg19
g66
sg20
(I1
I0
I1
tp192
sbsS'febreze'
p193
(iGameClasses
Equipment
p194
(dp195
g12
S'Kills 99.9% of odour at the source!'
p196
sg3
(I6
I0
I10
tp197
sg5
S'Febreze'
p198
sg16
S'Ferbreze.jpg'
p199
sg18
g30
sg19
I-4
sg20
g192
sbsS'msp430'
p200
(iGameClasses
Equipment
p201
(dp202
g12
S'A literal piece of garbage.'
p203
sg3
(I-5
I0
I-5
tp204
sg5
S'MSP430'
p205
sg16
S'MSP430.jpg'
p206
sg18
g30
sg19
I-5
sg20
(I2
I3
I1
tp207
sbsS'declaration of independence'
p208
(iGameClasses
Equipment
p209
(dp210
g12
S"I'm going to steal the Declaration of Independence..."
p211
sg3
(I1
I1
I1
tp212
sg5
S'Declaration of Independence'
p213
sg16
S'DOI.jpg'
p214
sg18
g49
sg19
g66
sg20
g58
sbsS'horrible assignment'
p215
(iGameClasses
Equipment
p216
(dp217
g12
S'A barely legible report on Fourier analysis.'
p218
sg3
(I3
I0
I0
tp219
sg5
S'Horrible Assignment'
p220
sg16
S'BadAss.jpg'
p221
sg18
g49
sg19
g66
sg20
g58
sbsS'pope hat'
p222
(iGameClasses
Equipment
p223
(dp224
g12
S'Does the Pope where a silly hat? Now you do.'
p225
sg3
(I0
I3
I2
tp226
sg5
S'Pope Hat'
p227
sg16
S'PopeHat.jpg'
p228
sg18
g22
sg19
g66
sg20
g177
sbsS'bottle opener'
p229
(iGameClasses
Equipment
p230
(dp231
g12
S'I wish I had a bottle of wine right about now...'
p232
sg3
(I0
I5
I15
tp233
sg5
S'Bottle Opener'
p234
sg16
S'BottleOpener.jpg'
p235
sg18
g49
sg19
g66
sg20
g153
sbsS'car keys'
p236
(iGameClasses
Equipment
p237
(dp238
g12
S"Volkswagen car keys with an 'R' on the keychain.\nHmm..."
p239
sg3
(I5
I0
I5
tp240
sg5
S'Car Keys'
p241
sg16
S'CarKeys.jpg'
p242
sg18
g49
sg19
g66
sg20
g169
sbsS"erik's frosted tips"
p243
(iGameClasses
Equipment
p244
(dp245
g12
S'Ever wanted to look rad as hell? Now you can!'
p246
sg3
(I0
I3
I20
tp247
sg5
S"Erik's Frosted Tips"
p248
sg16
S'FrostedTips.jpg'
p249
sg18
g22
sg19
g66
sg20
g58
sbsS'pedrotti cubed'
p250
(iGameClasses
Equipment
p251
(dp252
g12
S"'Property of Harold Haugen, one of the 3 Quantum Relics' is inscribed on the first page."
p253
sg3
(I50
I150
I250
tp254
sg5
S'Pedrotti Cubed'
p255
sg16
S'Pedrotti.jpg'
p256
sg18
g49
sg19
g66
sg20
g58
sbsS'puke'
p257
(iGameClasses
Equipment
p258
(dp259
g12
S'Ew, literally a pool of vomit'
p260
sg3
(I1
I0
I-10
tp261
sg5
S'Puke'
p262
sg16
S'Puke.jpg'
p263
sg18
g9
sg19
I-2
sg20
g58
sbsS'adderall'
p264
(iGameClasses
Equipment
p265
(dp266
g12
S'Speed up, my dude!'
p267
sg3
(I0
I0
I50
tp268
sg5
S'Adderall'
p269
sg16
S'Adderall.jpg'
p270
sg18
g49
sg19
I2
sg20
(I5
I3
I1
tp271
sbsS'visor glasses'
p272
(iGameClasses
Equipment
p273
(dp274
g12
S'Damn, you are now travelling waaaay to fast. Slow down dude!'
p275
sg3
(I1
I5
I35
tp276
sg5
S'Visor Glasses'
p277
sg16
S'FastGlasses.jpg'
p278
sg18
g22
sg19
g66
sg20
(lp279
I2
aI3
aI1
asbsS'plastic bag'
p280
(iGameClasses
Equipment
p281
(dp282
g12
S'The audacity of some people to leave their filth around.'
p283
sg3
(I0
I1
I-10
tp284
sg5
S'Plastic Bag'
p285
sg16
S'PBag.jpg'
p286
sg18
g22
sg19
g66
sg20
(I2
I1
I1
tp287
sbsS'broken wine bottle'
p288
(iGameClasses
Equipment
p289
(dp290
g12
S'A broken wine bottle from 1996, good year.'
p291
sg3
(I10
I0
I5
tp292
sg5
S'Broken Wine Bottle'
p293
sg16
S'WineBottle.jpg'
p294
sg18
g30
sg19
g66
sg20
(I4
I3
I1
tp295
sbsS'jar of peanut butter'
p296
(iGameClasses
Equipment
p297
(dp298
g12
S'Death paste to those who are allergic... Could prove effective...'
p299
sg3
(I0
I5
I5
tp300
sg5
S'Jar of Peanut Butter'
p301
sg16
S'Peanut.jpg'
p302
sg18
g49
sg19
I5
sg20
(I4
I0
I1
tp303
sbsS'toilet seat'
p304
(iGameClasses
Equipment
p305
(dp306
g12
S'How do you even wear this?'
p307
sg3
(I0
I3
I2
tp308
sg5
S'Toilet Seat'
p309
sg16
S'Toilet.jpg'
p310
sg18
g9
sg19
g66
sg20
g67
sbsS'vh sauce'
p311
(iGameClasses
Equipment
p312
(dp313
g12
S'Sweet and sour. Nice.'
p314
sg3
(I1
I2
I1
tp315
sg5
S'VH Sauce'
p316
sg16
S'VHSauce.jpg'
p317
sg18
g49
sg19
I1
sg20
(I1
I4
I1
tp318
sbsS'banana'
p319
(iGameClasses
Equipment
p320
(dp321
g12
S'High in potassium.'
p322
sg3
(I5
I0
I5
tp323
sg5
S'Banana'
p324
sg16
S'Banana.jpg'
p325
sg18
g30
sg19
I2
sg20
(I1
I7
I1
tp326
sbsS'ice-cold pint'
p327
(iGameClasses
Equipment
p328
(dp329
g12
S'Ale of the Gods.'
p330
sg3
(I3
I0
I-5
tp331
sg5
S'Ice-Cold Pint'
p332
sg16
S'Pint.jpg'
p333
sg18
g49
sg19
I2
sg20
g295
sbsS'pencil'
p334
(iGameClasses
Equipment
p335
(dp336
g12
S'HB2. Sharpened.'
p337
sg3
(I2
I0
I5
tp338
sg5
S'Pencil'
p339
sg16
S'Pencil.jpg'
p340
sg18
g30
sg19
g66
sg20
g90
sbsS'coffee'
p341
(iGameClasses
Equipment
p342
(dp343
g12
S'The fuel of thinkers.'
p344
sg3
(I3
I0
I9
tp345
sg5
S'Coffee'
p346
sg16
S'Coffee.jpg'
p347
sg18
g49
sg19
I1
sg20
(NNNtp348
sbsS'epipen'
p349
(iGameClasses
Equipment
p350
(dp351
g12
S"Epinephrine Autoinjector 0.3mg. Replace if discolored. Store at 68C.\nIncase of alergic reaction remove the top...wait, why are you reading \nthis label? Isn't there something else you should be doing? "
p352
sg3
(I7
I0
I5
tp353
sg5
S'EpiPen'
p354
sg16
S'EpiPen.jpg'
p355
sg18
g49
sg19
I-2
sg20
g50
sbsS'cold steel katana'
p356
(iGameClasses
Equipment
p357
(dp358
g12
S'This could probably kill a buffalo fish...'
p359
sg3
(I18
I5
I20
tp360
sg5
S'Cold Steel Katana'
p361
sg16
S'Katana.jpg'
p362
sg18
g30
sg19
g66
sg20
g58
sbsS'mop'
p363
(iGameClasses
Equipment
p364
(dp365
g12
S"I'm going to clean up this town."
p366
sg3
(I6
I0
I4
tp367
sg5
S'Mop'
p368
sg16
S'Mop.jpg'
p369
sg18
g30
sg19
g66
sg20
(I0
I0
I1
tp370
sbsS'swordfish'
p371
(iGameClasses
Equipment
p372
(dp373
g12
S"I'd better be careful eating this!"
p374
sg3
(I10
I5
I5
tp375
sg5
S'Swordfish'
p376
sg16
S'Swordfish.jpg'
p377
sg18
g49
sg19
I12
sg20
g58
sbsS'ancient incantation'
p378
(iGameClasses
Equipment
p379
(dp380
g12
S'An old tattered scroll with an incantation written in Latin.'
p381
sg3
(I1
I1
I1
tp382
sg5
S'Ancient Incantation'
p383
sg16
S'Incantation.jpg'
p384
sg18
g49
sg19
g66
sg20
g58
sbsS'meow mix'
p385
(iGameClasses
Equipment
p386
(dp387
g12
S'I love chicken, I love liver...'
p388
sg3
(I5
I0
I5
tp389
sg5
S'Meow Mix'
p390
sg16
S'MeowMix.jpg'
p391
sg18
g49
sg19
I1
sg20
g58
sbsS'gauss eye'
p392
(iGameClasses
Equipment
p393
(dp394
g12
S'You can feel the electromagnetic energy emanating from it, one of the 3 quantum relics'
p395
sg3
(I100
I100
I100
tp396
sg5
S'Gauss Eye'
p397
sg16
S'GaussEye.jpg'
p398
sg18
g22
sg19
g66
sg20
g58
sbsS'phone'
p399
(iGameClasses
Equipment
p400
(dp401
g12
S"This thing has been dropped Graham's number times."
p402
sg3
(I5
I6
I9
tp403
sg5
S'Phone'
p404
sg16
S'Phone.jpg'
p405
sg18
g49
sg19
g66
sg20
g58
sbsS'casio'
p406
(iGameClasses
Equipment
p407
(dp408
g12
S"This one can do integrals. That's illegal."
p409
sg3
(I1
I5
I10
tp410
sg5
S'Casio'
p411
sg16
S'Casio.jpg'
p412
sg18
g49
sg19
g66
sg20
(I2
I7
I1
tp413
sbsS'vomit'
p414
(iGameClasses
Equipment
p415
(dp416
g12
S'Literally spew.'
p417
sg3
(I0
I0
I1
tp418
sg5
S'Vomit'
p419
sg16
S'Vomit.jpg'
p420
sg18
g49
sg19
I-1
sg20
g58
sbsS'bleach squirt bottle'
p421
(iGameClasses
Equipment
p422
(dp423
g12
S"Probably wouldn't be nice to get sprayed with."
p424
sg3
(I15
I5
I20
tp425
sg5
S'Bleach Squirt Bottle'
p426
sg16
S'Bleach.jpg'
p427
sg18
g30
sg19
I-10
sg20
g58
sbsS'drumstick'
p428
(iGameClasses
Equipment
p429
(dp430
g12
S"'Property of E-Smooth'"
p431
sg3
(I0
I10
I15
tp432
sg5
S'Drumstick'
p433
sg16
S'Drumstick.jpg'
p434
sg18
g49
sg19
g66
sg20
(I5
I4
I2
tp435
sbsS"wendy's bag"
p436
(iGameClasses
Equipment
p437
(dp438
g12
S'Fully equipped with grease stains.'
p439
sg3
(I1
I0
I-5
tp440
sg5
S"Wendy's Bag"
p441
sg16
S'WendyBag.jpg'
p442
sg18
g22
sg19
g66
sg20
(I0
I6
I1
tp443
sbsS'empty bucket'
p444
(iGameClasses
Equipment
p445
(dp446
g12
S'The smell of cheap soap still lingers.'
p447
sg3
(I0
I10
I1
tp448
sg5
S'Empty Bucket'
p449
sg16
S'Bucket.jpg'
p450
sg18
g22
sg19
g66
sg20
g67
sbsS'old scroll'
p451
(iGameClasses
Equipment
p452
(dp453
g12
S"It reads:\n'A permanent title is too much to bear.'\n'My secret cache, is under there.'"
p454
sg3
(I0
I0
I0
tp455
sg5
S'Old Scroll'
p456
sg16
S'OldScroll.jpg'
p457
sg18
g49
sg19
g66
sg20
g58
sbsS'pid control system'
p458
(iGameClasses
Equipment
p459
(dp460
g12
S'A PID control system. Kp = 69, my dude.'
p461
sg3
(I45
I0
I10
tp462
sg5
S'PID control system'
p463
sg16
S'PID.jpg'
p464
sg18
g22
sg19
g66
sg20
g58
sbsS'voltage divider'
p465
(iGameClasses
Equipment
p466
(dp467
g12
S'It is a Voltage Divider!'
p468
sg3
(I20
I25
I20
tp469
sg5
S'Voltage Divider'
p470
sg16
S'VDivider.jpg'
p471
sg18
g49
sg19
g66
sg20
g58
sbsS'santa hat'
p472
(iGameClasses
Equipment
p473
(dp474
g12
S'Happy Holidays!'
p475
sg3
(I0
I3
I2
tp476
sg5
S'Santa Hat'
p477
sg16
S'SantaHat.jpg'
p478
sg18
g22
sg19
g66
sg20
g370
sbsS'banana wires'
p479
(iGameClasses
Equipment
p480
(dp481
g12
S'Alligator clips added for extra whippage.'
p482
sg3
(I8
I0
I8
tp483
sg5
S'Banana Wires'
p484
sg16
S'BanWires.jpg'
p485
sg18
g30
sg19
I3
sg20
(I3
I3
I1
tp486
sbsS'party hat'
p487
(iGameClasses
Equipment
p488
(dp489
g12
S'A nice hat from a cracker.'
p490
sg3
(I0
I5
I3
tp491
sg5
S'Party Hat'
p492
sg16
S'PartyHat.jpg'
p493
sg18
g22
sg19
g66
sg20
(I3
I6
I1
tp494
sbsS'potato'
p495
(iGameClasses
Equipment
p496
(dp497
g12
S'A most versatile vegetable.\nGood for breakfast, lunch, and dinner.'
p498
sg3
(I1
I1
I1
tp499
sg5
S'Potato'
p500
sg16
S'Potato.jpg'
p501
sg18
g49
sg19
I5
sg20
g58
sbsS'shampoo'
p502
(iGameClasses
Equipment
p503
(dp504
g12
S'Yeah, I could use a shower...'
p505
sg3
(I4
I0
I3
tp506
sg5
S'Shampoo'
p507
sg16
S'Shampoo.jpg'
p508
sg18
g49
sg19
g66
sg20
g370
sbsS'candlestick'
p509
(iGameClasses
Equipment
p510
(dp511
g12
S'Lumiere is up to no good.'
p512
sg3
(I7
I0
I5
tp513
sg5
S'Candlestick'
p514
sg16
S'Candlestick.jpg'
p515
sg18
g30
sg19
g66
sg20
(I4
I0
I0
tp516
sbsS'gamma glove'
p517
(iGameClasses
Equipment
p518
(dp519
g12
S'Shorter than it really is due to length contraction, one of the 3 Quantum Relics'
p520
sg3
(I250
I100
I20
tp521
sg5
S'Gamma Glove'
p522
sg16
S'GammaGauntlet.jpg'
p523
sg18
g30
sg19
g66
sg20
g58
sbsS'clean needle'
p524
(iGameClasses
Equipment
p525
(dp526
g12
S"No more spreadin' disease!"
p527
sg3
(I9
I0
I9
tp528
sg5
S'Clean Needle'
p529
sg16
S'CleanNeedle.jpg'
p530
sg18
g30
sg19
g66
sg20
g58
sbsS'laser safety glasses'
p531
(iGameClasses
Equipment
p532
(dp533
g12
S'Protection from the UV, my dude.'
p534
sg3
(I0
I3
I5
tp535
sg5
S'Laser Safety Glasses'
p536
sg16
S'LSGlasses.jpg'
p537
sg18
g22
sg19
g66
sg20
(I1
I6
I0
tp538
sbsS'goggles'
p539
(iGameClasses
Equipment
p540
(dp541
g12
S'Got PPE?'
p542
sg3
(I2
I0
I2
tp543
sg5
S'Goggles'
p544
sg16
S'Goggles.jpg'
p545
sg18
g22
sg19
g66
sg20
(I3
I2
I1
tp546
sbsS'priceless painting'
p547
(iGameClasses
Equipment
p548
(dp549
g12
S'This painting is supposed to be worth millions...'
p550
sg3
(I1
I10
I5
tp551
sg5
S'Priceless Painting'
p552
sg16
S'Painting.jpg'
p553
sg18
g49
sg19
g66
sg20
(I3
I0
I1
tp554
sbsS'paint brush'
p555
(iGameClasses
Equipment
p556
(dp557
g12
S'You can feel the emotions of a failed arts student coursing through this thing.'
p558
sg3
(I5
I0
I5
tp559
sg5
S'Paint Brush'
p560
sg16
S'Brush.jpg'
p561
sg18
g49
sg19
g66
sg20
(I3
I1
I1
tp562
sbsS'old candle'
p563
(iGameClasses
Equipment
p564
(dp565
g12
S"Seems like it's had some use."
p566
sg3
(I0
I2
I2
tp567
sg5
S'Old Candle'
p568
sg16
S'OldCandle.jpg'
p569
sg18
g49
sg19
g66
sg20
(I2
I0
I0
tp570
sbsS"haugen's clothes"
p571
(iGameClasses
Equipment
p572
(dp573
g12
S'OH My. The clothes of the gentle dolphin now gone.\nFeels kinda wet.'
p574
sg3
(I5
I10
I10
tp575
sg5
S"Haugen's Clothes"
p576
sg16
S'HaugenShirt.jpg'
p577
sg18
g9
sg19
I10
sg20
g58
sbsS'3w textbook'
p578
(iGameClasses
Equipment
p579
(dp580
g12
S'Text book that probably has useful information if you could read it. Too bad it has never been in the QT'
p581
sg3
(I5
I5
I10
tp582
sg5
S'3W Textbook'
p583
sg16
S'3WText.jpg'
p584
sg18
g49
sg19
g66
sg20
g58
sbsS'fireball hat'
p585
(iGameClasses
Equipment
p586
(dp587
g12
S"Kind of like the hat you bought in first year and thought you'd wear forever..."
p588
sg3
(I0
I3
I1
tp589
sg5
S'Fireball Hat'
p590
sg16
S'EngHat.jpg'
p591
sg18
g22
sg19
g66
sg20
(I2
I2
I1
tp592
sbsS'raybans'
p593
(iGameClasses
Equipment
p594
(dp595
g12
S'GQ Teen says Raybans, Board Shorts, Vans, and a Muscle Tee.'
p596
sg3
(I0
I1
I3
tp597
sg5
S'Raybans'
p598
sg16
S'Raybans.jpg'
p599
sg18
g22
sg19
g66
sg20
(I5
I5
I1
tp600
sbsS'pee bottle'
p601
(iGameClasses
Equipment
p602
(dp603
g12
S'It is literally a bottle of urine.'
p604
sg3
(I4
I0
I0
tp605
sg5
S'Pee Bottle'
p606
sg16
S'PeeBottle.jpg'
p607
sg18
g30
sg19
g66
sg20
g287
sbsS'huge shirt'
p608
(iGameClasses
Equipment
p609
(dp610
g12
S'This shirt is WAY too big'
p611
sg3
(I0
I5
I5
tp612
sg5
S'Huge Shirt'
p613
sg16
S'HugeShirt.jpg'
p614
sg18
g9
sg19
g66
sg20
g58
sbsS'joint of destiny'
p615
(iGameClasses
Equipment
p616
(dp617
g12
S"A tighly rolled spliff filled with Devil's lettuce... for real."
p618
sg3
(I420
I420
I420
tp619
sg5
S'Joint of Destiny'
p620
sg16
S'Joint.jpg'
p621
sg18
g49
sg19
g66
sg20
g58
sbsS'tony hawk shirt'
p622
(iGameClasses
Equipment
p623
(dp624
g12
S'A shirt personally made by tony hawk!'
p625
sg3
(I5
I5
I5
tp626
sg5
S'Tony Hawk Shirt'
p627
sg16
S'TonyHAwkShirt.jpg'
p628
sg18
g9
sg19
g66
sg20
g98
sbsS"phil's braces"
p629
(iGameClasses
Equipment
p630
(dp631
g12
S'Bark AND the bite.'
p632
sg3
(I3
I2
I1
tp633
sg5
S"Phil's Braces"
p634
sg16
S'PhilBraces.jpg'
p635
sg18
g22
sg19
g66
sg20
(I2
I5
I0
tp636
sbsS"kenrick's oscilloscope"
p637
(iGameClasses
Equipment
p638
(dp639
g12
S'The window into the electronics world...'
p640
sg3
(I0
I150
I50
tp641
sg5
S"Kenrick's Oscilloscope"
p642
sg16
S'Oscilloscope.jpg'
p643
sg18
g49
sg19
g66
sg20
g58
sbsS'femtosecond laser'
p644
(iGameClasses
Equipment
p645
(dp646
g12
S"Haugen's personal femtosecond laser."
p647
sg3
(I125
I0
I999
tp648
sg5
S'Femtosecond Laser'
p649
sg16
S'Laser.jpg'
p650
sg18
g30
sg19
g66
sg20
g58
sbsS'cricket'
p651
(iGameClasses
Equipment
p652
(dp653
g12
S'Makes the sound commonly heard at 2W lectures.'
p654
sg3
(I1
I1
I1
tp655
sg5
S'Cricket'
p656
sg16
S'Cricket.jpg'
p657
sg18
g49
sg19
I3
sg20
(I3
I3
I2
tp658
sbsS'flux capacitor'
p659
(iGameClasses
Equipment
p660
(dp661
g12
S'If only I could go back to 1985...'
p662
sg3
(I1
I1
I1
tp663
sg5
S'Flux Capacitor'
p664
sg16
S'FluxCapacitor.jpg'
p665
sg18
g30
sg19
g66
sg20
g58
sbsS'okons chainmail'
p666
(iGameClasses
Equipment
p667
(dp668
g12
S'The sacred chainmail forged by the legend himself'
p669
sg3
(I25
I50
I25
tp670
sg5
S'Okons Chainmail'
p671
sg16
S'OkonMail.jpg'
p672
sg18
g9
sg19
g66
sg20
(I0
I2
I0
tp673
sbsS'hazmat suit'
p674
(iGameClasses
Equipment
p675
(dp676
g12
S'Protection from all sorts of McCrindle farts...'
p677
sg3
(I0
I10
I5
tp678
sg5
S'Hazmat Suit'
p679
sg16
S'Hazmat.jpg'
p680
sg18
g9
sg19
g66
sg20
(I2
I5
I1
tp681
sbsS'pizza box'
p682
(iGameClasses
Equipment
p683
(dp684
g12
S'Fully equipped with crusted cheese.'
p685
sg3
(I1
I5
I1
tp686
sg5
S'Pizza Box'
p687
sg16
S'PizzaBox.jpg'
p688
sg18
g9
sg19
g66
sg20
(I0
I3
I1
tp689
sbsS'tire iron'
p690
(iGameClasses
Equipment
p691
(dp692
g12
S'Is this even a real tool? Or just a murder weapon...'
p693
sg3
(I11
I0
I3
tp694
sg5
S'Tire Iron'
p695
sg16
S'TireIron.jpg'
p696
sg18
g30
sg19
g66
sg20
g50
sbsS'ukelele'
p697
(iGameClasses
Equipment
p698
(dp699
g12
S'Wasting away again in Margaritaville...'
p700
sg3
(I6
I0
I5
tp701
sg5
S'Ukelele'
p702
sg16
S'Ukelele.jpg'
p703
sg18
g30
sg19
g66
sg20
g82
sbsS'fanny pack'
p704
(iGameClasses
Equipment
p705
(dp706
g12
S'Made for style. Not for carrying.'
p707
sg3
(I3
I8
I15
tp708
sg5
S'Fanny Pack'
p709
sg16
S'FannyPack.jpg'
p710
sg18
g9
sg19
g66
sg20
g58
sbsS"einstein's brain"
p711
(iGameClasses
Equipment
p712
(dp713
g12
S"Feel's kind of weird walking around with this..."
p714
sg3
(I1
I1
I1
tp715
sg5
S"Einstein's Brain"
p716
sg16
S'Brain.jpg'
p717
sg18
g49
sg19
I10
sg20
g58
sbsS"brendan fallon's lunchbox"
p718
(iGameClasses
Equipment
p719
(dp720
g12
S'The Lunch Box of an Ancient Hero. Full of samosas'
p721
sg3
(I5
I10
I5
tp722
sg5
S"Brendan Fallon's Lunchbox"
p723
sg16
S'Lunchbox.jpg'
p724
sg18
g49
sg19
g66
sg20
g348
sbsS'eng phys usb pen'
p725
(iGameClasses
Equipment
p726
(dp727
g12
S'It would be amazing if this thing actually worked.\nIf I had a laptop I could plug it in and find all of 2P04.'
p728
sg3
(I5
I0
I5
tp729
sg5
S'Eng Phys USB Pen'
p730
sg16
S'PhysPen.jpg'
p731
sg18
g30
sg19
g66
sg20
(NNNtp732
sbsS'ambifacient lunar waneshaft'
p733
(iGameClasses
Equipment
p734
(dp735
g12
S'The design consists simply of six hydrocoptic marzlevanes,\nthey fit to the ambifacient lunar waneshaft so that side fumbling is effectively prevented'
p736
sg3
(I1
I1
I1
tp737
sg5
S'Ambifacient Lunar Waneshaft'
p738
sg16
S'Dumbness.jpg'
p739
sg18
g49
sg19
g66
sg20
g58
sbsS'space pop'
p740
(iGameClasses
Equipment
p741
(dp742
g12
S'Get ready to go to space pop city.'
p743
sg3
(I4
I0
I10
tp744
sg5
S'Space Pop'
p745
sg16
S'SpacePop.jgp'
p746
sg18
g30
sg19
I1
sg20
(I1
I7
I2
tp747
sbsS'hockey pads'
p748
(iGameClasses
Equipment
p749
(dp750
g12
S"IM NOT WEARIN' HOCKEY PADS!"
p751
sg3
(I3
I13
I5
tp752
sg5
S'Hockey Pads'
p753
sg16
S'HockeyPads.jpg'
p754
sg18
g9
sg19
g66
sg20
g50
sbsS'pink donut'
p755
(iGameClasses
Equipment
p756
(dp757
g12
S'This is what fusion is all about?'
p758
sg3
(I1
I1
I1
tp759
sg5
S'Pink Donut'
p760
sg16
S'PinkDonut.jpg'
p761
sg18
g49
sg19
I2
sg20
g58
sbsS'relativistic key'
p762
(iGameClasses
Equipment
p763
(dp764
g12
S'You can feel the power radiating from this thing.'
p765
sg3
(I1
I1
I1
tp766
sg5
S'Relativistic Key'
p767
sg16
S'Relativistickey.jpg'
p768
sg18
g30
sg19
g66
sg20
g58
sbsS'stylish watch'
p769
(iGameClasses
Equipment
p770
(dp771
g12
S'If only you learned how to tell time on an analog clock...'
p772
sg3
(I0
I15
I20
tp773
sg5
S'Stylish Watch'
p774
sg16
S'watch.jpg'
p775
sg18
g49
sg19
g66
sg20
g58
sbsS'solar ray'
p776
(iGameClasses
Equipment
p777
(dp778
g12
S'The literal power of the Sun!'
p779
sg3
(I100
I20
I50
tp780
sg5
S'Solar Ray'
p781
sg16
S'SolarRay.jpg'
p782
sg18
g30
sg19
g66
sg20
g58
sbsS'starbucks apron'
p783
(iGameClasses
Equipment
p784
(dp785
g12
S'If you put this on do you immediately know how to make a frappe?'
p786
sg3
(I1
I5
I5
tp787
sg5
S'Starbucks Apron'
p788
sg16
S'Apron.jpg'
p789
sg18
g9
sg19
g66
sg20
g137
sbsS'maroon jumpsuit'
p790
(iGameClasses
Equipment
p791
(dp792
g12
S'Overalls of the Maroons'
p793
sg3
(I1
I8
I5
tp794
sg5
S'Maroon Jumpsuit'
p795
sg16
S'MaroonSuit.jpg'
p796
sg18
g9
sg19
g66
sg20
(I5
I1
I1
tp797
sbsS'needa pita'
p798
(iGameClasses
Equipment
p799
(dp800
g12
S'Better have gotten black olives on that'
p801
sg3
(I2
I0
I1
tp802
sg5
S'Needa Pita'
p803
sg16
S'Pita.jpg'
p804
sg18
g30
sg19
I5
sg20
(I4
I6
I1
tp805
sbsS'lamp'
p806
(iGameClasses
Equipment
p807
(dp808
g12
S'I love lamp.'
p809
sg3
(I8
I0
I4
tp810
sg5
S'Lamp'
p811
sg16
S'Lamp.jpg'
p812
sg18
g30
sg19
g66
sg20
(I0
I5
I1
tp813
sbsS'redsuit'
p814
(iGameClasses
Equipment
p815
(dp816
g12
S'Overalls of drunks... I mean engineers'
p817
sg3
(I5
I5
I5
tp818
sg5
S'Redsuit'
p819
sg16
S'Redsuit.jpg'
p820
sg18
g9
sg19
g66
sg20
(I2
I4
I2
tp821
sbsS'cold beer'
p822
(iGameClasses
Equipment
p823
(dp824
g12
S'A freshly brewed pint from Andy Knights himself.'
p825
sg3
(I15
I0
I20
tp826
sg5
S'Cold Beer'
p827
sg16
S'ColdBeer.jpg'
p828
sg18
g49
sg19
I2
sg20
g58
sbsS'eng phys shirt'
p829
(iGameClasses
Equipment
p830
(dp831
g12
S'Rolling Rock baby! Premium Stream my ass... More like premium pain...'
p832
sg3
(I0
I7
I5
tp833
sg5
S'Eng Phys Shirt'
p834
sg16
S'EngPhysShirt.jpg'
p835
sg18
g9
sg19
g66
sg20
(I3
I3
I0
tp836
sbsS'pvc pipe'
p837
(iGameClasses
Equipment
p838
(dp839
g12
S'Probably part of a PID project...'
p840
sg3
(I9
I2
I10
tp841
sg5
S'PVC Pipe'
p842
sg16
S'PVCPipe.jpg'
p843
sg18
g30
sg19
g66
sg20
(I4
I7
I1
tp844
sbsS'couch cushion'
p845
(iGameClasses
Equipment
p846
(dp847
g12
S'I hope I find I pillow fight.'
p848
sg3
(I4
I10
I1
tp849
sg5
S'Couch Cushion'
p850
sg16
S'CCushion.jpg'
p851
sg18
g49
sg19
g66
sg20
g326
sbsS'fake gun'
p852
(iGameClasses
Equipment
p853
(dp854
g12
S'Is this seriously what at the MAC cops carry...'
p855
sg3
(I5
I0
I5
tp856
sg5
S'Fake Gun'
p857
sg16
S'FakeGun.jpg'
p858
sg18
g30
sg19
g66
sg20
g58
sbsS'iron ring'
p859
(iGameClasses
Equipment
p860
(dp861
g12
S'The One Ring to Rule them ALL.'
p862
sg3
(I1000
I1000
I1000
tp863
sg5
S'Iron Ring'
p864
sg16
S'IronRing.jpg'
p865
sg18
g30
sg19
I-1000
sg20
g58
sbsS"minnick's glasses"
p866
(iGameClasses
Equipment
p867
(dp868
g12
S'The spectacles of a wizard from the High Order of the Ancient Council.'
p869
sg3
(I100
I100
I100
tp870
sg5
S"Minnick's Glasses"
p871
sg16
S'MinnickGlasses.jpg'
p872
sg18
g22
sg19
g66
sg20
g58
sbsS'frisbee'
p873
(iGameClasses
Equipment
p874
(dp875
g12
S'Look at the flick of the wrist!'
p876
sg3
(I3
I0
I5
tp877
sg5
S'Frisbee'
p878
sg16
S'Frisbee.jpg'
p879
sg18
g30
sg19
g66
sg20
g592
sbsS'butter knife'
p880
(iGameClasses
Equipment
p881
(dp882
g12
S'Meant for spreading, not stabbing...'
p883
sg3
(I4
I0
I5
tp884
sg5
S'Butter Knife'
p885
sg16
S'ButterKnife.jpg'
p886
sg18
g30
sg19
g66
sg20
g805
sbsS'guitar'
p887
(iGameClasses
Equipment
p888
(dp889
g12
S'Monster Mash.'
p890
sg3
(I10
I3
I5
tp891
sg5
S'Guitar'
p892
sg16
S'Guitar.jpg'
p893
sg18
g30
sg19
g66
sg20
g58
sbsS'old headphones'
p894
(iGameClasses
Equipment
p895
(dp896
g12
S'Old frayed apple headphones. Good for whipping.'
p897
sg3
(I5
I0
I5
tp898
sg5
S'Old Headphones'
p899
sg16
S'OldHeadphones.jpg'
p900
sg18
g30
sg19
g66
sg20
(I1
I5
I1
tp901
sbsS'old car keys'
p902
(iGameClasses
Equipment
p903
(dp904
g12
S'Fun for babies. Not for Batman.'
p905
sg3
(I7
I0
I15
tp906
sg5
S'Old Car Keys'
p907
sg16
g242
sg18
g30
sg19
g66
sg20
g443
sbsS'hulk hands'
p908
(iGameClasses
Equipment
p909
(dp910
g12
S'These pack a serious punch...'
p911
sg3
(I15
I5
I20
tp912
sg5
S'Hulk Hands'
p913
sg16
S'HulkHands.jpg'
p914
sg18
g30
sg19
g66
sg20
g279
sbsS'old ladder'
p915
(iGameClasses
Equipment
p916
(dp917
g12
S'Pretty rickety but would work for climbing.'
p918
sg3
(I14
I8
I-15
tp919
sg5
S'Old Ladder'
p920
sg16
S'OldLadder.jpg'
p921
sg18
g49
sg19
g66
sg20
(I0
I7
I1
tp922
sbsS'goldfish'
p923
(iGameClasses
Equipment
p924
(dp925
g12
S'Fun fact, not made of real gold.'
p926
sg3
(I1
I1
I1
tp927
sg5
S'Goldfish'
p928
sg16
S'Goldfish.jpg'
p929
sg18
g49
sg19
I4
sg20
g177
sbsS"frank's red hot"
p930
(iGameClasses
Equipment
p931
(dp932
g12
S'I put that...'
p933
sg3
(I3
I0
I2
tp934
sg5
S"Frank's Red Hot"
p935
sg16
S'FranksRed.jpg'
p936
sg18
g49
sg19
I1
sg20
(I0
I4
I1
tp937
sbsS'silicon substrate'
p938
(iGameClasses
Equipment
p939
(dp940
g12
S'A bulk silicon wafer.'
p941
sg3
(I1
I1
I1
tp942
sg5
S'Silicon Substrate'
p943
sg16
S'Substrate.jpg'
p944
sg18
g49
sg19
g66
sg20
(I0
I3
I2
tp945
sbsS"faraday's cage"
p946
(iGameClasses
Equipment
p947
(dp948
g12
S'Faraday cage.'
p949
sg3
(I20
I75
I15
tp950
sg5
S"Faraday's Cage"
p951
sg16
S'Faraday.jpg'
p952
sg18
g22
sg19
g66
sg20
g58
sbsS'rusty key'
p953
(iGameClasses
Equipment
p954
(dp955
g12
S"You can just about read:\n'By the building where the smallest are seen.'\n'This key will provide for those who are keen'"
p956
sg3
(I1
I1
I1
tp957
sg5
S'Rusty Key'
p958
sg16
S'RustyKey.jpg'
p959
sg18
g49
sg19
g66
sg20
g58
sbsS'wood shield'
p960
(iGameClasses
Equipment
p961
(dp962
g12
S'An old wooden shield used in a play, you think...'
p963
sg3
(I5
I20
I-5
tp964
sg5
S'Wood Shield'
p965
sg16
S'Shield.jpg'
p966
sg18
g49
sg19
g66
sg20
g435
sbsS'paper towels'
p967
(iGameClasses
Equipment
p968
(dp969
g12
S"WHERE'S THE PAPER TOWELS?"
p970
sg3
(I2
I0
I1
tp971
sg5
S'Paper Towels'
p972
sg16
S'PaperTowels.jpg'
p973
sg18
g49
sg19
g66
sg20
(I0
I5
I2
tp974
sbsS'engineering mug'
p975
(iGameClasses
Equipment
p976
(dp977
g12
S'Do people even have these anymore?'
p978
sg3
(I1
I0
I2
tp979
sg5
S'Engineering Mug'
p980
sg16
S'EngMug.jpg'
p981
sg18
g30
sg19
g66
sg20
g58
sbsS'blazer'
p982
(iGameClasses
Equipment
p983
(dp984
g12
S'Styyyyyylishhhhhh'
p985
sg3
(I0
I4
I1
tp986
sg5
S'Blazer'
p987
sg16
S'Blazer.jpg'
p988
sg18
g9
sg19
g66
sg20
(I5
I6
I1
tp989
sbsS'high vis vest'
p990
(iGameClasses
Equipment
p991
(dp992
g12
S'Safety first, folks.'
p993
sg3
(I0
I5
I3
tp994
sg5
S'High Vis Vest'
p995
sg16
S'HighVis.jpg'
p996
sg18
g9
sg19
g66
sg20
(I2
I6
I1
tp997
sbsS'big hits shirt'
p998
(iGameClasses
Equipment
p999
(dp1000
g12
S'The Shirt of the Hero of Kyvach!'
p1001
sg3
(I10
I5
I5
tp1002
sg5
S'Big Hits Shirt'
p1003
sg16
S'BigHits.jpg'
p1004
sg18
g9
sg19
g66
sg20
g279
sbsS'jar of mayo'
p1005
(iGameClasses
Equipment
p1006
(dp1007
g12
S'Is mayonaise an instrument?'
p1008
sg3
(I3
I0
I5
tp1009
sg5
S'Jar of Mayo'
p1010
sg16
S'Mayo.jpg'
p1011
sg18
g49
sg19
I1
sg20
g145
sbsS'holy bible'
p1012
(iGameClasses
Equipment
p1013
(dp1014
g12
S'King James version...'
p1015
sg3
(I3
I0
I3
tp1016
sg5
S'Holy Bible'
p1017
sg16
S'Bible.jpg'
p1018
sg18
g49
sg19
g66
sg20
(I2
I0
I1
tp1019
sbsS'griffiths electrodynamics'
p1020
(iGameClasses
Equipment
p1021
(dp1022
g12
S'The holy scriptures which govern the fabric of our being'
p1023
sg3
(I0
I10
I5
tp1024
sg5
S'Griffiths Electrodynamics'
p1025
sg16
S'Griffiths.jpg'
p1026
sg18
g49
sg19
g66
sg20
g821
sbsS'skateboard'
p1027
(iGameClasses
Equipment
p1028
(dp1029
g12
S'Cowabunga, dude.'
p1030
sg3
(I9
I0
I10
tp1031
sg5
S'Skateboard'
p1032
sg16
S'Skateboard.jpg'
p1033
sg18
g30
sg19
g66
sg20
(I0
I0
I0
tp1034
sbsS'diary of the fallen'
p1035
(iGameClasses
Equipment
p1036
(dp1037
g12
S'The personal notes of an ancient Hero.'
p1038
sg3
(I25
I20
I30
tp1039
sg5
S'Diary of the Fallen'
p1040
sg16
S'Diary.jpg'
p1041
sg18
g49
sg19
g66
sg20
g673
sbsS'green lantern shirt'
p1042
(iGameClasses
Equipment
p1043
(dp1044
g12
S'Darkest day... Darkest night...'
p1045
sg3
(I15
I15
I10
tp1046
sg5
S'Green Lantern Shirt'
p1047
sg16
S'GLShirt.jpg'
p1048
sg18
g9
sg19
g66
sg20
g58
sbsS'dirty needle'
p1049
(iGameClasses
Equipment
p1050
(dp1051
g12
S"This isn't clean. Someone find me a SharpXchange!"
p1052
sg3
(I7
I0
I5
tp1053
sg5
S'Dirty Needle'
p1054
sg16
S'Needle.jpg'
p1055
sg18
g30
sg19
g66
sg20
g937
sbsS'willy dog'
p1056
(iGameClasses
Equipment
p1057
(dp1058
g12
S'Definitely not vegan'
p1059
sg3
(I1
I0
I2
tp1060
sg5
S'Willy Dog'
p1061
sg16
S'Hotdog.jpg'
p1062
sg18
g30
sg19
I5
sg20
g161
sbsS'crucifix'
p1063
(iGameClasses
Equipment
p1064
(dp1065
g12
S'The Power of Chirst compels you!'
p1066
sg3
(I10
I0
I10
tp1067
sg5
S'Crucifix'
p1068
sg16
S'Crucifix.jpg'
p1069
sg18
g30
sg19
g66
sg20
g58
sbsS'wrench'
p1070
(iGameClasses
Equipment
p1071
(dp1072
g12
S"It's a wrench. 22mm."
p1073
sg3
(I9
I0
I2
tp1074
sg5
S'Wrench'
p1075
sg16
S'Wrench.jpg'
p1076
sg18
g30
sg19
g66
sg20
(I1
I3
I1
tp1077
sbsS'capstone tools'
p1078
(iGameClasses
Equipment
p1079
(dp1080
g12
S"Shouldn't the 4A06 students be using these?"
p1081
sg3
(I1
I1
I1
tp1082
sg5
S'Capstone Tools'
p1083
sg16
S'CapTools.jpg'
p1084
sg18
g49
sg19
g66
sg20
g58
sbsS'wool sweater'
p1085
(iGameClasses
Equipment
p1086
(dp1087
g12
S'Just like grandma makes.'
p1088
sg3
(I1
I4
I6
tp1089
sg5
S'Wool Sweater'
p1090
sg16
S'WoolSweater.jpg'
p1091
sg18
g9
sg19
g66
sg20
g271
sbsS'solar cell'
p1092
(iGameClasses
Equipment
p1093
(dp1094
g12
S"Harness the power of the Sun!\nI really hope I don't drop this..."
p1095
sg3
(I1
I1
I1
tp1096
sg5
S'Solar Cell'
p1097
sg16
S'SolarCell.jpg'
p1098
sg18
g49
sg19
g66
sg20
g58
sbsa((lp1099
(lp1100
(iGameClasses
Map
p1101
(dp1102
g12
S'PARKING GARAGE:\nYou can only go back up to the Hospital.'
p1103
sS'ENEMY'
p1104
(lp1105
(iGameClasses
Enemy
p1106
(dp1107
g12
S"'Check out this tre flip, pretty tight eh?'"
p1108
sg3
(I15
I15
I40
tp1109
sg5
S'Erik the Sk8r'
p1110
sS'drop'
p1111
S"erik's frosted tips"
p1112
sg37
I01
sS'item'
p1113
NsS'quest'
p1114
I00
sg19
I20
sg20
g1034
sS'need'
p1115
Nsg40
I00
sS'Sinfo'
p1116
g66
sS'Dinfo'
p1117
S"Man, that's dumb!"
p1118
sbasg5
S'Parking Garage'
p1119
sS'items'
p1120
(lp1121
g1028
asS'interact'
p1122
(lp1123
sS'walls'
p1124
(S'f'
p1125
S'b'
p1126
S'l'
p1127
S'r'
p1128
S'd'
p1129
tp1130
sS'coords'
p1131
g1034
sS'lore'
p1132
S'The smooth floor down here makes an excellent skate surface.\nRad.\nIf only you learned how to kickflip.'
p1133
sS'travelled'
p1134
I1
sba(iGameClasses
Map
p1135
(dp1136
g12
S'HOSPITAL EAST WING:\nIn front of you is the West Wing. MDCL is to your right.\nThe Parking Garage is below you.'
p1137
sg1104
(lp1138
sg5
S'East Hospital'
p1139
sg1120
(lp1140
g473
ag364
ag503
asg1122
(lp1141
sg1124
(g1127
g1126
tp1142
sg1131
g370
sg1132
S'You smile as you overhear a conversation between a doctor and a family.\nTurns out their child is going to make a full recovery.\nThanks science.'
p1143
sg1134
I1
sbaNaNaa(lp1144
Na(iGameClasses
Map
p1145
(dp1146
g12
S'HOSPITAL WEST WING:\nIn front of your is T-13. To your right is the Health Sci Library.\nThe East Wing of the Hospital is behind you.\nYou can go upstairs.'
p1147
sg1104
(lp1148
sg5
S'West Hospital'
p1149
sg1120
(lp1150
g100
a(iGameClasses
Interact
p1151
(dp1152
g12
S'Would you like to exchange a needle?'
p1153
sg5
S'SharpXChange'
p1154
sg1111
S'clean needle'
p1155
sg1114
I00
sg20
g106
sg1115
S'dirty needle'
p1156
sg1116
S'Needle Accepted!'
p1157
sbasg1122
(lp1158
sg1124
g1127
sg1131
g106
sg1132
S"Doctors and Nurses rush around you.\nYou remember why you didn't want to become a doctor as you\nnearly faint looking at a patient's paper cut in the waiting room.\nAfter a drink from the water fountain you plan what to do."
p1159
sg1134
I1
sba(iGameClasses
Map
p1160
(dp1161
g12
S'2ND FLOOR W WING:\nYou can only go back down the stairs.'
p1162
sg1104
(lp1163
(iGameClasses
Enemy
p1164
(dp1165
g12
S"'Are you interested in a research position?'"
p1166
sg3
(I100
I100
I100
tp1167
sg5
S'Dr. Soleymani'
p1168
sg1111
S"einstein's brain"
p1169
sg37
I01
sg1113
Nsg1114
I00
sg19
I75
sg20
(I0
I1
I2
tp1170
sg1115
Nsg40
I00
sg1116
g66
sg1117
S'NOOO! The Dark Lord will never forgive me!'
p1171
sbasg5
S'2nd Floor W Wing'
p1172
sg1120
(lp1173
sg1122
(lp1174
sg1124
(g1125
g1126
g1127
g1128
S'u'
p1175
tp1176
sg1131
g1170
sg1132
S"The endless number of rooms are mesmerizing.\nYou don't even know which way to go.\nAfter being lost for 2 hours you circle back to where you entered."
p1177
sg1134
I1
sbaNaa(lp1178
(iGameClasses
Map
p1179
(dp1180
g12
S'SECRET ROOM!:\nGo up to climb out.'
p1181
sg1104
(lp1182
sg5
S'Secret Trapdoor!'
p1183
sg1120
(lp1184
g667
ag1036
asg1122
(lp1185
sg1124
(g1125
g1126
g1127
g1128
g1129
tp1186
sg1131
g673
sg1132
S'You uncover a trapdoor after pulling up a loose floor tile.\nUpon descending you see stacks of failed midterms and assorted books all around you.\nA suit of armor and a chainmail flag with a skull on it are barely visible.\nWho made this place anyway?'
p1187
sg1134
I1
sba(iGameClasses
Map
p1188
(dp1189
g12
S'T-13:\nETB is in front of you. The McMaster Map is to your right.\nThe West Wing of the Hospital is behind you.'
p1190
sg1104
(lp1191
sg5
S'T-13'
p1192
sg1120
(lp1193
g1006
ag139
asg1122
(lp1194
sg1124
(lp1195
g1127
ag1129
asg1131
g145
sg1132
S"How many bad invigilators does it take to screw in a light bulb?\nI'm not sure but they took my damn Casio FX-911+C..."
p1196
sg1134
I1
sbaNaNaa(lp1197
(iGameClasses
Map
p1198
(dp1199
g12
S'ETB BASEMENT:\nYou can only go back up to the main floor.'
p1200
sg1104
(lp1201
sg5
S'ETB Basement'
p1202
sg1120
(lp1203
g909
asg1122
(lp1204
sg1124
(g1125
g1126
g1127
g1128
g1129
tp1205
sg1131
(I0
I3
I0
tp1206
sg1132
S'After getting lost in a maze of corridors and locked rooms you stumble\nacross a door that is slightly ajar.\nYou open the door to reveal a rather small dark room.\nYou flick on the light switch.'
p1207
sg1134
I1
sba(iGameClasses
Map
p1208
(dp1209
g12
S'ETB:\nTo your right is the Hatch Building. An alleyway is in front of you.\nT-13 is behind you. You can also go upstairs.'
p1210
sg1104
(lp1211
(iGameClasses
Enemy
p1212
(dp1213
g12
S"'Hey, I saw your picture on Instagram!'\n'They let you get away with doing that to the Willy McMaster statue?'"
p1214
sg3
(I10
I5
I10
tp1215
sg5
S'Mitch the TA'
p1216
sg1111
S'phone'
p1217
sg37
I01
sg1113
Nsg1114
I00
sg19
I25
sg20
g689
sg1115
Nsg40
I00
sg1116
g66
sg1117
S"There's my phone."
p1218
sbasg5
S'ETB'
p1219
sg1120
(lp1220
g683
asg1122
(lp1221
sg1124
g1127
sg1131
g689
sg1132
S'The memories of actually doing something in first year flood your mind.\nGear trains. Python. 3D printing.\nEngineering had such a different meaning in your first year...\nYou plan your next move.'
p1222
sg1134
I0
sba(iGameClasses
Map
p1223
(dp1224
g12
S'2ND FLOOR ETB:\nYou can only go back down the stairs.'
p1225
sg1104
(lp1226
sg5
S'2nd Floor ETB'
p1227
sg1120
(lp1228
g939
asg1122
(lp1229
sg1124
(g1125
g1126
g1127
g1128
g1175
tp1230
sg1131
g945
sg1132
S'You realize you really have never come up here.\nYou see 4th year Eng Phys students hurry out of a long-winded lecture.\nAfter picking a booger.\nYou plan your next move.'
p1231
sg1134
I1
sbaNaa(lp1232
Na(iGameClasses
Map
p1233
(dp1234
g12
S'ALLEY:\nITB is in front of you. ETB is behind you.\nYou can enter Hatch to your right.'
p1235
sg1104
(lp1236
sg5
S'Alley'
p1237
sg1120
(lp1238
g1050
ag931
asg1122
(lp1239
sg1124
g1127
sg1131
g937
sg1132
S'As you head down the narrow path between ITB and ETB you hear car horns blaring down Main Street.\nYou gather up some trash and put it in a garbage can like a good McMasterian.\nThen plan your next move.'
p1240
sg1134
I1
sbaNaNaa(lp1241
(iGameClasses
Map
p1242
(dp1243
g12
S'ITB BASEMENT:\nYou can only go back up to the main floor.'
p1244
sg1104
(lp1245
(iGameClasses
Enemy
p1246
(dp1247
g12
S"'Huge talking to people play.'"
p1248
sg3
(I20
I15
I20
tp1249
sg5
S'Eric the Baller'
p1250
sg1111
S'cold steel katana'
p1251
sg37
I01
sg1113
Nsg1114
I00
sg19
I50
sg20
(I0
I5
I0
tp1252
sg1115
Nsg40
I00
sg1116
g66
sg1117
S'This is sub-optimal.'
p1253
sbasg5
S'ITB Basement'
p1254
sg1120
(lp1255
sg1122
(lp1256
sg1124
(g1125
g1126
g1127
g1128
g1129
tp1257
sg1131
g1252
sg1132
S"As if the upstairs floor plan wasn't bad enough...\nAfter another 3 hours wandering around you are back where you started\nand don't feel like you learned anything..."
p1258
sg1134
I1
sba(iGameClasses
Map
p1259
(dp1260
g12
S'ITB:\nJHE-Annex is to your right. Lot I is in front of you.\nAn alley is behind you. You can go up OR down the stairs.'
p1261
sg1104
(lp1262
(iGameClasses
Enemy
p1263
(dp1264
g12
S"'Hey brother, I really could use some Febreze.'"
p1265
sg3
(I20
I20
I20
tp1266
sg5
S'Paul the Janitor'
p1267
sg1111
S'bleach squirt bottle'
p1268
sg37
I01
sg1113
Nsg1114
I00
sg19
I20
sg20
g813
sg1115
S'febreze'
p1269
sg40
I00
sg1116
S'Rock on brother! Thanks so much!'
p1270
sg1117
S"NOOO, Now I can't go see Black Sabbath!"
p1271
sbasg5
S'ITB'
p1272
sg1120
(lp1273
g807
asg1122
(lp1274
sg1124
g1127
sg1131
g813
sg1132
S'McMaster, back at it again with the horrible floor plan.\nAfter getting lost for 5 hours you finally reach the lobby\nand decide what to do.'
p1275
sg1134
I1
sba(iGameClasses
Map
p1276
(dp1277
g12
S'2ND FLOOR ITB:\nYou can only go back down the stairs.'
p1278
sg1104
(lp1279
(iGameClasses
Enemy
p1280
(dp1281
g12
S"'My grand invention is almost complete...'"
p1282
sg3
(I100
I100
I100
tp1283
sg5
S'Dr. Nagasaki'
p1284
sg1111
S'flux capacitor'
p1285
sg37
I01
sg1113
Nsg1114
I00
sg19
I75
sg20
g974
sg1115
S'ambifacient lunar waneshaft'
p1286
sg40
I00
sg1116
S"'Yes!'\n'I have been looking for one exactly like that!'\n'Quicky, go to the basement of the Tandem Accelerator!'\n'The High Council is counting on you.'"
p1287
sg1117
S'NOOOO! NOW I WILL NEVER PLEASE THE DARK LORD!'
p1288
sbasg5
S'2nd Floor ITB'
p1289
sg1120
(lp1290
g968
asg1122
(lp1291
sg1124
(g1125
g1126
g1127
g1128
g1175
tp1292
sg1131
g974
sg1132
S"Walking around up here you don't find much other than lab benches with strange instruments.\nThis place gives you the impression that there must be some high level engineering physics going on..."
p1293
sg1134
I1
sbaNaa(lp1294
Na(iGameClasses
Map
p1295
(dp1296
g12
S'LOT I:\nABB is to your right. Cootes Drive is in front of you.\nITB is to your rear.'
p1297
sg1104
(lp1298
sg5
S'Lot I'
p1299
sg1120
(lp1300
g437
ag903
a(iGameClasses
Interact
p1301
(dp1302
g12
S"A red Dodge Avenger...\nPeering into the window you can't really see much."
p1303
sg5
S'Red Car'
p1304
sg1111
Nsg1114
I00
sg20
g443
sg1115
Nsg1116
S'N/A'
p1305
sba(iGameClasses
Interact
p1306
(dp1307
g12
S"A blue Ford Mustang...\nPeering into the window you can't really see much."
p1308
sg5
S'Blue Car'
p1309
sg1111
S'potato'
p1310
sg1114
I00
sg20
g443
sg1115
S'tire iron'
p1311
sg1116
S'You smash open the window with the tire iron, breaking it in the process.\nYou unlock and open the door...\nTo reveal a potato.'
p1312
sba(iGameClasses
Interact
p1313
(dp1314
g12
S"An old Datsun...\nPeering into the window you can't really see much."
p1315
sg5
S'Old Car'
p1316
sg1111
Nsg1114
I00
sg20
g443
sg1115
Nsg1116
g1305
sba(iGameClasses
Interact
p1317
(dp1318
g12
S"A new Volkswagen...\nPeering into the window you can't really see much."
p1319
sg5
S'New Car'
p1320
sg1111
S'bowling ball'
p1321
sg1114
I00
sg20
g443
sg1115
S'car keys'
p1322
sg1116
S'You open the car and rummage around.\nUnderneath one of the seats you find a bowling ball!'
p1323
sbasg1122
(lp1324
sg1124
g1127
sg1131
g443
sg1132
S"Nope, your car isn't here.\nMaybe you parked in Lot M? Maybe not.\nAfter scoffing at all of the prof Mercedes that are way too nice...\nYou think of what to do."
p1325
sg1134
I1
sbaNaNaa(lp1326
Na(iGameClasses
Map
p1327
(dp1328
g12
S'COOTES DRIVE:\nThode is to your right. Lot I is behind you.'
p1329
sg1104
(lp1330
sg5
S'Cootes Dr.'
p1331
sg1120
(lp1332
g916
asg1122
(lp1333
sg1124
(g1125
g1127
tp1334
sg1131
g922
sg1132
S'You notice a series of pickup trucks for what must be a landscaping or construction company.\nThere is construction gear spread all over the place.\nThe sound of sirens grows louder as an ambulance suddenly rushes by.\nYou collect yourself and consider what to do next.'
p1335
sg1134
I1
sbaNaNaa(lp1336
NaNaNaNaa(lp1337
(lp1338
Na(iGameClasses
Map
p1339
(dp1340
g12
S'MDCL:\nThe East Wing of the Hospital is to your left. Health Sci library is forward.'
p1341
sg1104
(lp1342
sg5
S'MDCL'
p1343
sg1120
(lp1344
g194
ag186
asg1122
(lp1345
sg1124
(g1126
g1128
tp1346
sg1131
g192
sg1132
S'After a solid 5 minutes of meditation in the reflection area.\nYou make your next decision feeling refreshed.'
p1347
sg1134
I1
sba(iGameClasses
Map
p1348
(dp1349
g12
S'CLIMBING MDCL:\nYou can continue climbing or go back down...'
p1350
sg1104
(lp1351
sg5
S'Climbing MDCL'
p1352
sg1120
(lp1353
sg1122
(lp1354
sg1124
(g1125
g1126
g1127
g1128
tp1355
sg1131
(I1
I0
I2
tp1356
sg1132
S'You struggle and find yourself on the outer wall of MDCL.'
p1357
sg1134
I1
sba(iGameClasses
Map
p1358
(dp1359
g12
S'MDCL Roof:\nYou can only go back down.'
p1360
sg1104
(lp1361
sg5
S'Roof of MDCL'
p1362
sg1120
(lp1363
(iGameClasses
Interact
p1364
(dp1365
g12
S"It's a mouse scurrying around...\nDid it just stare at you?"
p1366
sg5
S'Mouse'
p1367
sg1111
S'gilded blunderbuss'
p1368
sg1114
I00
sg20
(I1
I0
I3
tp1369
sg1115
S'cheese'
p1370
sg1116
S"The mouse rushes over and takes the cheese.\nIt runs into a small opening it has made in the roof of the building.\nIt returns with something in it's mouth!"
p1371
sbasg1122
(lp1372
sg1124
(g1125
g1126
g1127
g1128
g1175
tp1373
sg1131
g1369
sg1132
S'With all of your might you pull yourself up and onto the roof.\nYou can see the majority of campus from up here!'
p1374
sg1134
I1
sbaa(lp1375
Na(iGameClasses
Map
p1376
(dp1377
g12
S'HEALTH SCIENCES LIBRARY:\nIn front of you is the McMaster Map. To your right is the bus stop.\nMDCL is behind you. The Hospital West Wing is to your left.'
p1378
sg1104
(lp1379
sg5
S'Health Sciences Library'
p1380
sg1120
(lp1381
sg1122
(lp1382
sg1124
(tsg1131
(I1
I1
I1
tp1383
sg1132
S"You are constantly asked to be quiet even though you have yet to make a sound.\nAfter scanning the tables and see no one you recognize you take a seat\nin an armchair and stare out towards the centre of campus.\nYou daydream of a life where these study rooms weren't constantly full."
p1384
sg1134
I1
sbaNaNaa(lp1385
Na(iGameClasses
Map
p1386
(dp1387
g12
S'MCMASTER MAP:\nIn front of you lies the entrance to Hatch. To your right, JHE Field.\nTo your rear lies the Health Sci Library. T-13 is to your left.'
p1388
sg1104
(lp1389
sg5
S'Map of McMaster'
p1390
sg1120
(lp1391
(iGameClasses
Interact
p1392
(dp1393
g12
S"It's the map of McMaster.'\n ________________________________________________\n|Map of McMaster                                 |\n|                                       BATES    |\n|                                                |\n| ETB        JHE         BSB                     |\n|                                                |\n|                                      STATUE    |\n|                                                |\n| HOSPITAL                                       |\n|          MDCL         CHAPEL              MUSC |\n|________________________________________________|"
p1394
sg5
S'McMaster Map'
p1395
sg1111
S"minnick's glasses"
p1396
sg1114
I00
sg20
(I1
I2
I1
tp1397
sg1115
S"minnick's glasses"
p1398
sg1116
S"Through Minnick's glasses the true map is revealled!\nYou read:\n'Harness the sun.'\n ________________________________________________\n|Map of McMaster                                 |\n|                                       BATES    |\n|                                                |\n| ETB        JHE         BSB                     |\n|                                                |\n|                        \\/            STATUE    |\n|                        /\\                      |\n| HOSPITAL                                       |\n|          MDCL         CHAPEL              MUSC |\n|________________________________________________|\nDr. Minnick's glasses glow hot as you quickly swat them off of your face."
p1399
sbasg1122
(lp1400
sg1124
(tsg1131
g1397
sg1132
S'Has anyone even used this thing?\nA lost freshman asks you for directions even though the map is clearly next to you.\nAfter sending them in the wrong direction you plan your next move.'
p1401
sg1134
I1
sbaNaNaa(lp1402
Na(iGameClasses
Map
p1403
(dp1404
g12
S'OUTSIDE HATCH:\nETB to your left. Enter Hatch by going forward.\nThe McMaster Map to your rear. JHE Entrance is to your right.'
p1405
sg1104
(lp1406
sg5
S'In Front of Hatch'
p1407
sg1120
(lp1408
g1071
asg1122
(lp1409
sg1124
(tsg1131
g1077
sg1132
S'You stare at the newly completed building.\nThe sun still shines and you are irritated by the constant drone of the Hamiltonian sirens\nwhich you have yet to grow accustomed to...'
p1410
sg1134
I0
sbaNaNaa(lp1411
Na(iGameClasses
Map
p1412
(dp1413
g12
S'INSIDE HATCH:\nIn front of you lies JHE-Annex. To your right is the JHE lobby.\nTo your rear you can exit.\nTo your left is an alley.'
p1414
sg1104
(lp1415
(iGameClasses
Enemy
p1416
(dp1417
g12
S"'Yo check out my meme page, you ever heard coco jay?'"
p1418
sg3
(I15
I10
I20
tp1419
sg5
S'Mario the Mixologist'
p1420
sg1111
S'stylish watch'
p1421
sg37
I01
sg1113
Nsg1114
I00
sg19
I50
sg20
g318
sg1115
Nsg40
I00
sg1116
g66
sg1117
S'si ya saben como consigo, por que me invitan?'
p1422
sbasg5
S'Inside Hatch'
p1423
sg1120
(lp1424
g312
asg1122
(lp1425
sg1124
(tsg1131
g318
sg1132
S"That 'fresh building' smell still lingers.\nYou see members of the various clubs rushing from room to room including a man carrying a rocket.\nThe Kipling clock ticks away... only 364 more...\nWho is this Gerald Hatch anyway?"
p1426
sg1134
I0
sba(iGameClasses
Map
p1427
(dp1428
g12
S'2ND FLOOR Hatch:\nIn front of you lies the Eng Phys Office. To your right is 2nd Floor JHE.\nHatch is downstairs.'
p1429
sg1104
(lp1430
sg5
S'2nd Floor Hatch'
p1431
sg1120
(lp1432
sg1122
(lp1433
sg1124
(g1126
g1127
g1175
tp1434
sg1131
(I1
I4
I2
tp1435
sg1132
S"You see various meeting rooms with 1st years occupying them.\nThe MES office is full but nothing seems to be getting done.\nThere's therapy dogs scattered everywhere for Paws and Play.\nYou can't get a session with a real therapist but at least there is this"
p1436
sg1134
I1
sbaNaa(lp1437
Na(iGameClasses
Map
p1438
(dp1439
g12
S'JHE ANNEX:\nHatch is to your rear. ABB in front of you.\nITB is to your left. NRB to your right.\nThe Eng Phys office is up the stairs.'
p1440
sg1104
(lp1441
sg5
S'JHE Annex'
p1442
sg1120
(lp1443
g895
asg1122
(lp1444
sg1124
(tsg1131
g901
sg1132
S'They made a big engineering building, got money, then added more.\nYou wonder why Eng Phys classes get pushed into the rooms in this side of JHE...\nHmm...'
p1445
sg1134
I0
sba(iGameClasses
Map
p1446
(dp1447
g12
S'ENG PHYS OFFICE:\n2nd Floor Abb is infront of you. 2nd Floor Hatch is behind you. You can go down the stairs to JHE Annex.'
p1448
sg1104
(lp1449
sg5
S'Eng Phys Office'
p1450
sg1120
(lp1451
sg1122
(lp1452
sg1124
(g1127
g1128
g1175
tp1453
sg1131
(I1
I5
I2
tp1454
sg1132
S'The portrait of Dr. Novog makes you jealous as you realize you could\nnever pull off a hairstyle like that.\nYou scan the display case of past Eng Phys projects.\nThey display these as trophies...\nTrophies which only tell a story of endless grind you think to yourself...'
p1455
sg1134
I0
sbaNaa(lp1456
(iGameClasses
Map
p1457
(dp1458
g12
S'ABB BASEMENT:\nYou can only go back up to the main floor.'
p1459
sg1104
(lp1460
sg5
S'ABB Basement'
p1461
sg1120
(lp1462
g532
a(iGameClasses
Interact
p1463
(dp1464
g12
S'Seems like a regular fridge to me.'
p1465
sg5
S'Fridge'
p1466
sg1111
S'pedrotti cubed'
p1467
sg1114
I00
sg20
g538
sg1115
S'relativistic key'
p1468
sg1116
S"You inspect the inside of the fridge to reveal a small keyhole.\nUpon inserting and turning the key you hear a robotic voice bellow.\n'WORMHOLE ACTIVATED'\nThe compartment bursts open and out flies a book!"
p1469
sba(iGameClasses
Interact
p1470
(dp1471
g12
S"Dr. Haugen's personal optical bench..."
p1472
sg5
S'Optical Bench'
p1473
sg1111
S'relativistic key'
p1474
sg1114
I00
sg20
g538
sg1115
S'femtosecond laser'
p1475
sg1116
S"You place Dr. Haugen's femtosecond laser on the bench and aim it at the fridge.\nTurning the laser on (remembering your laser safety glasses, of course)\nfires the high-intensity beam at the fridge.\nThe room begins to shake and smoke begins to billow out of the cracks of the fridge.\nThe door swings open and a glowing apparition of Albert Einstein emerges!\n'You have come a long way, but your quest is not yet over.'\n'For there still remains a great evil on this campus'\n'Dr. Haugen was entrusted with protecting the contents of my fridge.'\n'I have known of your destiny since your first year here at McMaster.'\n'You will be the one who determines the fate of the faculty.'\n'It is, therefore, my responsibility to prepare you for what lies ahead.'\n'This key opens a compartment in my fridge which holds one of three Quantum Relics.'\n'These items give the holder the power to shape the fate of the entire university.'\n'I cannot tell you much more. Perhaps I have said too much.'\n'Take this. Good Luck.'"
p1476
sbasg1122
(lp1477
sg1124
(g1125
g1126
g1127
g1128
g1129
tp1478
sg1131
g538
sg1132
S'The Laser lab is pretty darn cool.\nWalking around here you notice a number of PhD students looking rather shifty.\nHmmm...\nYou wonder why that is.'
p1479
sg1134
I1
sba(iGameClasses
Map
p1480
(dp1481
g12
S'ABB:\nThode is in front of you. JHE Annex is behind you.\nThe Nuclear Reactor is to your right. LOT I is to your left.\nYou can go up or down the stairs.'
p1482
sg1104
(lp1483
sg5
S'ABB'
p1484
sg1120
(lp1485
(iGameClasses
Interact
p1486
(dp1487
g12
S"It's a display case full of all sorts of old-time Engineering Physics wizardry."
p1488
sg5
S'Display Case'
p1489
sg1111
S"faraday's cage"
p1490
sg1114
I00
sg20
(I1
I6
I1
tp1491
sg1115
S'rusty key'
p1492
sg1116
S'The rusty key fits perfectly!\nAs you turn the key glowing square forms on the back\nof the display case and opens revealing an old relic...'
p1493
sbasg1122
(lp1494
sg1124
(tsg1131
g1491
sg1132
S'You stare at the electron microscope structure and wonder if it could even see your GPA...\nA tear rolls down your cheek. You collect yourself and plan what to do next.'
p1495
sg1134
I0
sba(iGameClasses
Map
p1496
(dp1497
g12
S'2ND FLOOR ABB:\nThe Eng Phys Office is behind you. You can down the stairs to ABB.'
p1498
sg1104
(lp1499
(iGameClasses
Enemy
p1500
(dp1501
g12
S"'Bring me a Coffee please, Daniel Parent is failing me as a research student.\n I am rather tired.'"
p1502
sg3
(I100
I100
I200
tp1503
sg5
S'Dr. LaPierre'
p1504
sg1111
Nsg37
I01
sg1113
Nsg1114
I01
sg19
I300
sg20
(I1
I6
I2
tp1505
sg1115
S'coffee'
p1506
sg40
I01
sg1116
S'Here. I nice pen for your troubles.\nGo find Dr. Knights, he has more for you to do.'
p1507
sg1117
S"I can't believe you've done this."
p1508
sbasg5
S'2nd Floor ABB'
p1509
sg1120
(lp1510
sg1122
(lp1511
sg1124
(g1125
g1127
g1128
g1175
tp1512
sg1131
g1505
sg1132
S'You were told JHE would be your home.\nNope.\nInstead you recall countless hours lectures on the 2nd floor\nas you drifted in and out of daydreams staring out the windows on a spring afternoon...'
p1513
sg1134
I0
sbaNaa(lp1514
(iGameClasses
Map
p1515
(dp1516
g12
S'THODE BASEMENT:\nGo up to head outside.'
p1517
sg1104
(lp1518
sg5
S'Thode Basement'
p1519
sg1120
(lp1520
(iGameClasses
Interact
p1521
(dp1522
g12
S'Looks like an old dusty workbench.'
p1523
sg5
S'Workbench'
p1524
sg1111
g66
sg1114
I00
sg20
(I1
I7
I0
tp1525
sg1115
Nsg1116
g66
sbasg1122
(lp1526
sg1124
(g1125
g1126
g1127
g1128
g1129
tp1527
sg1131
g1525
sg1132
S"You feel the laser glares burning into the back of your neck as\nyou hastily walk amongst the rows of desks.\nIs it possible to book a study room down here without finding a phallic object drawn on the whiteboard?\nYou'll never know."
p1528
sg1134
I1
sba(iGameClasses
Map
p1529
(dp1530
g12
S'THODE:\nABB is at your rear. The campus exit is to your right.\nCootes Drive is to your left. You can go up or down the stairs.'
p1531
sg1104
(lp1532
sg5
S'Thode'
p1533
sg1120
(lp1534
g320
ag846
asg1122
(lp1535
sg1124
g1125
sg1131
g326
sg1132
S'Oh the Reactor Cafe.\nYou think of the good old days when you could actually see the reactor from the Cafe...\nAfter overhearing someone ask whether keV is bigger than MeV you first contemplate your existence,\nthen contemplate your next move...'
p1536
sg1134
I1
sba(iGameClasses
Map
p1537
(dp1538
g12
S'2ND FLOOR THODE:\nYou can go up or down the stairs.'
p1539
sg1104
(lp1540
sg5
S'2nd Floor Thode'
p1541
sg1120
(lp1542
g741
asg1122
(lp1543
sg1124
(g1125
g1126
g1127
g1128
tp1544
sg1131
g747
sg1132
S"As you enter Club Thode the smell of feet enters your nostrils.\nWho goes barefoot in a library? C'mon.\nThe memory of countless hours spent slamming together a report made of nonsense, caffeine,\nand hope makes you light headed...\nComing to your senses... You plan your next move."
p1545
sg1134
I1
sba(iGameClasses
Map
p1546
(dp1547
g12
S'3RD FLOOR THODE:\nYou can only go back down the stairs.'
p1548
sg1104
(lp1549
(iGameClasses
Enemy
p1550
(dp1551
g12
S'I would really like a cricket to continue my research...'
p1552
sg3
(I10
I10
I10
tp1553
sg5
S'Connor the Biologist'
p1554
sg1111
Nsg37
I01
sg1113
Nsg1114
I00
sg19
I15
sg20
(I1
I7
I3
tp1555
sg1115
S'cricket'
p1556
sg40
I00
sg1116
S'Thanks!'
p1557
sg1117
S"'I can't believe you've done this."
p1558
sbasg5
S'3rd Floor Thode'
p1559
sg1120
(lp1560
sg1122
(lp1561
sg1124
(g1125
g1126
g1127
g1128
g1175
tp1562
sg1131
g1555
sg1132
S"After hauling up another set of stairs you realize you probably shouldn't\nhave given up on your Pulse membership...\nThe sounds of sobbing can be heard from all around you.\nAfter you dispense all of your tissues to passing I-Sci's you plan your next move."
p1563
sg1134
I1
sbaa(lp1564
NaNaNaNaa(lp1565
(lp1566
(iGameClasses
Map
p1567
(dp1568
g12
S'CHAPEL UNDERCROFT:\nYou can only go back up to the main floor.'
p1569
sg1104
(lp1570
(iGameClasses
Enemy
p1571
(dp1572
g12
S"'Mussst eeaaat funnnndingg... Er, I mean braaains.'"
p1573
sg3
(I20
I10
I1
tp1574
sg5
S'Undead Grad Student'
p1575
sg1111
S'horrible assignment'
p1576
sg37
I01
sg1113
Nsg1114
I00
sg19
I20
sg20
g570
sg1115
Nsg40
I00
sg1116
g66
sg1117
S'My 12 year post-grad was for nothiiiiiingggggg!'
p1577
sbasg5
S'Chapel Undercroft'
p1578
sg1120
(lp1579
g564
asg1122
(lp1580
sg1124
(g1125
g1126
g1127
g1128
g1129
tp1581
sg1131
g570
sg1132
S'You struggle down the dimly lit stairway into the undercroft.\nThe distinct smell of mould enters your nose as you travel further into the musty basement.\nThe faint glow of candles cause the shadows of ancient statues to flicker on the walls of the room...\nYou plan your next move.'
p1582
sg1134
I1
sba(iGameClasses
Map
p1583
(dp1584
g12
S'MCMASTER CHAPEL:\nThe Bus Stop is in front of you back out the door. There is a set of stairs going up.\nAs well as an old stairway leading downward.'
p1585
sg1104
(lp1586
(iGameClasses
Enemy
p1587
(dp1588
g12
S"'You need prayer. Recharge at the altar.'"
p1589
sg3
(I10
I10
I10
tp1590
sg5
S'Father Frobenius'
p1591
sg1111
S'crucifix'
p1592
sg37
I01
sg1113
Nsg1114
I00
sg19
I25
sg20
g1019
sg1115
Nsg40
I00
sg1116
g66
sg1117
S'I am slain!'
p1593
sbasg5
S'The Chapel'
p1594
sg1120
(lp1595
g1013
asg1122
(lp1596
sg1124
(g1128
g1127
g1126
tp1597
sg1131
g1019
sg1132
S"The low drone of the organ draws you in.\nThe pews are relatively empty and the lighting quite dim.\nYou think it would be in your best interest\nto pray especially with exam season just around the corner...\nIt can't hurt, right? It'd probably work better than those healing stones\non your desk."
p1598
sg1134
I1
sba(iGameClasses
Map
p1599
(dp1600
g12
S'2ND FLOOR CHAPEL:\nYou can only go back down the stairs.'
p1601
sg1104
(lp1602
sg5
S'Upstairs Chapel'
p1603
sg1120
(lp1604
g223
ag171
ag924
asg1122
(lp1605
sg1124
(g1125
g1126
g1127
g1128
g1175
tp1606
sg1131
g177
sg1132
S'The combination of ringing bells and echoes from the organ is deafening.\nYou can barely collect your thoughts.\nThe cobwebs and dust give you the impression this place has been ill-travelled\nand long forgotten.'
p1607
sg1134
I1
sbaNaa(lp1608
Na(iGameClasses
Map
p1609
(dp1610
g12
S'BUS STOP:\nHealth Sciences Library to your left. JHE field in front of you.\nThe chapel is behind you. Art Museum to your right.'
p1611
sg1104
(lp1612
(iGameClasses
Enemy
p1613
(dp1614
g12
S"'Is that even your bus pass?'"
p1615
sg3
(I10
I10
I5
tp1616
sg5
S'Larry the bus driver'
p1617
sg1111
S'huge shirt'
p1618
sg37
I01
sg1113
Nsg1114
I00
sg19
I40
sg20
g287
sg1115
Nsg40
I00
sg1116
g66
sg1117
S'That was definitely not your bus pass!'
p1619
sbasg5
S'The Bus Stop'
p1620
sg1120
(lp1621
g281
ag602
asg1122
(lp1622
sg1124
(tsg1131
g287
sg1132
S'Students gather around to catch the next bus.\nYou get pushed and shoved as they desperately clammer on-board.\nYou overhear an argument between a student and the Bus Driver when suddenly the altercation\nturns to blows and pours onto the sidewalk.'
p1623
sg1134
I1
sbaNaNaa(lp1624
Na(iGameClasses
Map
p1625
(dp1626
g12
S'JHE FIELD:\nBSB Field is to your right. McMaster map to your left.\nThe Bus Stop is at your rear. The entrance to JHE is in front of you.'
p1627
sg1104
(lp1628
(iGameClasses
Enemy
p1629
(dp1630
g12
S"'HAHA, you were a RIOT at the Phoenix last night!'"
p1631
sg3
(I5
I2
I10
tp1632
sg5
S'Brian the Weeb'
p1633
sg1111
S'guitar'
p1634
sg37
I01
sg1113
Nsg1114
I00
sg19
I10
sg20
g592
sg1115
Nsg40
I00
sg1116
g66
sg1117
S"That's not vegan."
p1635
sbasg5
S'JHE Field'
p1636
sg1120
(lp1637
g586
ag874
asg1122
(lp1638
sg1124
(tsg1131
g592
sg1132
S'The morning sun warms your face as you scoff at a hipster slack-lining.\nStudents lie in the grass around the field even though everybody knows\nnothing gets done studying outside.\nAfter narrowly dodging a frisbee you plan what to do.'
p1639
sg1134
I1
sbaNaNaa(lp1640
Na(iGameClasses
Map
p1641
(dp1642
g12
S'FRONT OF JHE:\nBSB is to your right. Hatch to your left.\nJHE field is to your rear. Enter JHE by going forward.'
p1643
sg1104
(lp1644
sg5
S'Starting Location'
p1645
sg1120
(lp1646
g201
a(iGameClasses
Interact
p1647
(dp1648
g12
S"It's a garbage can."
p1649
sg5
S'Garbage Can'
p1650
sg1111
S'vomit'
p1651
sg1114
I00
sg20
g207
sg1115
S'msp430'
p1652
sg1116
S'You throw the MSP430 in... Yes, you have chosen wisely.'
p1653
sba(iGameClasses
Interact
p1654
(dp1655
g12
S"Welcome to The Great ENG PHYS Text Adventure!\n\nHere are the rules of the realm:\nYour orientation never changes. When you enter you will be facing the\nentrance of JHE and you will always face that way.\n\nThe commands which allow you to interact with your environment are:\nforward = f, backward = b, left = l, right = r, up = u, down = d\ntalk (person name) -talk to someone near you\nattack (person name) -attacks someone\ninspect (item name) -let's you interact with interactables and gives stats of items, can't inspect people\nequip (item name) -you pick up an item, drops any item you have in that slot\ndrop (item name) -drops an item in your inventory\neat (item name) -eat an item\nstats -will show your stats\nsearch - will search the area for things to interact with.\ninventory -will show your current inventory.\n\nBe sure to type the ENTIRE name of what you want to interact with.\nThat's it! Good Luck!"
p1656
sg5
S'Rules Sign'
p1657
sg1111
g66
sg1114
I00
sg20
g207
sg1115
g66
sg1116
g66
sbasg1122
(lp1658
sg1124
(tsg1131
g207
sg1132
S"You hear a booming voice that sounds oddly like a game developer. \ntype: 'inspect rules sign!'\nYou see the Iron Ring out front of JHE shining in the morning sun.\nThe campus is bustling with student life.\nThere are people heading in all directions with Kipling pranks\nstill scattered about JHE."
p1659
sg1134
I0
sbaNaNaa(lp1660
(iGameClasses
Map
p1661
(dp1662
g12
S'JHE BASEMENT:\nYou can only go back up to the main floor.'
p1663
sg1104
(lp1664
(iGameClasses
Enemy
p1665
(dp1666
g12
S"'I need a snack that smiles back!'"
p1667
sg3
(I17
I12
I15
tp1668
sg5
S'Zack the Snack'
p1669
sg1111
S'fanny pack'
p1670
sg37
I01
sg1113
Nsg1114
I00
sg19
I25
sg20
(I2
I4
I0
tp1671
sg1115
S'goldfish'
p1672
sg40
I00
sg1116
S'Whoa thats whack! Check out this fanny pack.'
p1673
sg1117
S'Why are you the way you are?'
p1674
sbasg5
S'JHE Basement'
p1675
sg1120
(lp1676
sg1122
(lp1677
sg1124
(g1125
g1126
g1127
g1128
g1129
tp1678
sg1131
g1671
sg1132
S'You see the remnants of failed clubs and the shattered dreams of past engineers...\nThis place is a bit chilly.'
p1679
sg1134
I1
sba(iGameClasses
Map
p1680
(dp1681
g12
S'JHE LOBBY:\nTo your right you can exit towards BSB. To your left you can head into Hatch.\nForward is the Nuclear Research building. Behind you lies the exit.\nThere are also stairs going up and down.'
p1682
sg1104
(lp1683
sg5
S'Inside JHE'
p1684
sg1120
(lp1685
g335
a(iGameClasses
Interact
p1686
(dp1687
g12
S'This heap of computing majesty could block bullets... I think...'
p1688
sg5
S'Lenovo Laptop'
p1689
sg1111
g66
sg1114
I01
sg20
g90
sg1115
S'eng phys usb pen'
p1690
sg1116
S'You plug in the Eng Phs USB Pen.\nYou find all of 2P04 files, who uses FlexPDE anymore? You also find a \nweird exe called the Eng Phys Text Adventure! That sounds like fun.\nYou hear a drumming in your ears, is that coming from the pen?'
p1691
sbag84
asg1122
(lp1692
sg1124
(tsg1131
g90
sg1132
S'JHE lobby is alive.\nStudents rushing all around as the smell of burnt coffee and sorrow tickles your nose.\nYou scan the faces around you but see no one familiar.\nThere is a confused air about this place as Kipling was just last night.\nMany engineers happy. Many more still grinding.'
p1693
sg1134
I0
sba(iGameClasses
Map
p1694
(dp1695
g12
S'2ND FLOOR JHE:\nTo the left is 2nd Floor Hatch. You can go down the stairs to JHE Lobby.'
p1696
sg1104
(lp1697
(iGameClasses
Enemy
p1698
(dp1699
g12
S"'I would like to improve my already impressive dad strength.'\n'Bring me a dumbbell.'"
p1700
sg3
(I250
I150
I100
tp1701
sg5
S'Dr. Preston'
p1702
sg1111
S'green lantern shirt'
p1703
sg37
I01
sg1113
Nsg1114
I00
sg19
I300
sg20
g821
sg1115
S'dumbbell'
p1704
sg40
I00
sg1116
S"'Yes! Now I can get the pump I've been after!'\n'Go look for Dr. Buijs he has much more to tell than I.'"
p1705
sg1117
S'HOW DID YOU OVERCOME MY DAD STRENGTH?!'
p1706
sbasg5
S'2nd Floor JHE'
p1707
sg1120
(lp1708
g815
ag1021
asg1122
(lp1709
sg1124
(g1125
g1126
g1128
g1175
tp1710
sg1131
g821
sg1132
S'You spend 20 minutes staring at the 1970 graduating class wondering if you could ever pull off a moustache like that...\nAfter realizing the cool lecture halls were only given to first years.\nYou shake your fist and plan your next move.'
p1711
sg1134
I1
sbaNaa(lp1712
(iGameClasses
Map
p1713
(dp1714
g12
S'BASEMENT OF NRB:\nYou can only go back up to the main floor.'
p1715
sg1104
(lp1716
sg5
S'NRB Basement'
p1717
sg1120
(lp1718
g630
asg1122
(lp1719
sg1124
(g1125
g1126
g1127
g1128
g1129
tp1720
sg1131
g636
sg1132
S'You head down the stairs to the basement...\nThe forgotten dreams of PhD students linger in the air.\nThere is an endless amount of engineering wizardry in the rooms around you.'
p1721
sg1134
I1
sba(iGameClasses
Map
p1722
(dp1723
g12
S'NUCLEAR RESEARCH BUILDING:\nTo your left lies the JHE-Annex. The Reactor is in front of you.\nThe Police Station is to your right. JHE lobby is behind you.\nThere are stairs going down.'
p1724
sg1104
(lp1725
sg5
S'Nuclear Research Building'
p1726
sg1120
(lp1727
g675
asg1122
(lp1728
sg1124
(tsg1131
g681
sg1132
S"You have barely ever been in here other than to struggle through\n3 hours of waiting for a water level PID controller to reach steady state.\nYou wonder how anyone could get away with a floor plan this confusing.\nPerhaps that's why no terrorists have blown up the reactor because\nthey are all still lost in here..."
p1729
sg1134
I1
sbaNaNaa(lp1730
(iGameClasses
Map
p1731
(dp1732
g12
S'INSIDE THE REACTOR:\nGo up to head outside.'
p1733
sg1104
(lp1734
sg5
S'Inside the Reactor'
p1735
sg1120
(lp1736
sg1122
(lp1737
sg1124
(g1125
g1126
g1127
g1128
g1129
tp1738
sg1131
(I2
I6
I0
tp1739
sg1132
S'The hum of air conditioning drowns your thoughts.\nYou lose yourself staring into the faint blue glow of the pool as you slowly approach its edge.'
p1740
sg1134
I1
sba(iGameClasses
Map
p1741
(dp1742
g12
S'NUCLEAR REACTOR:\nRight is the GO station. Left is ABB.\n NRB is at your rear. The campus exit lies in front of you.\nGo down to enter.'
p1743
sg1104
(lp1744
sg5
S'Nuclear Reactor'
p1745
sg1120
(lp1746
g991
asg1122
(lp1747
sg1124
(tsg1131
g997
sg1132
S"As you approach you wonder if that steam is really radioactive?\nIt can't be.\nThe ominous structure draws you closer as you consider what it would be\nlike to swim in that sweet blue pool..."
p1748
sg1134
I1
sbaNaNaa(lp1749
Na(iGameClasses
Map
p1750
(dp1751
g12
S'CAMPUS EXIT:\nHead to Thode by going left. Head down Cootes trail if you go right.\nThe Reactor is behind you.'
p1752
sg1104
(lp1753
sg5
S'Campus Exit'
p1754
sg1120
(lp1755
g407
asg1122
(lp1756
sg1124
g1125
sg1131
g413
sg1132
S'A faint glow can be seen in the distance.\nWarning signs litter the trail as you squint to get a better look.\nA chill is sent down your spine as you see the flickering stretched shadows of\nfighting dance on the road ahead.\nYou cannot go straight... yet.'
p1757
sg1134
I1
sbaNaNaa(lp1758
NaNaNaNaa(lp1759
(lp1760
Na(iGameClasses
Map
p1761
(dp1762
g12
S'ART MUSEUM:\nThe exit lies in front of you.'
p1763
sg1104
(lp1764
sg5
S'Inside the Art Museum'
p1765
sg1120
(lp1766
g548
a(iGameClasses
Interact
p1767
(dp1768
g12
S'An old oil painting of the founding fathers of McMaster.\nDated:April 20th, 1887'
p1769
sg5
S'Old Painting'
p1770
sg1111
S"minnick's glasses"
p1771
sg1114
I00
sg20
g554
sg1115
S"minnick's glasses"
p1772
sg1116
S"Through Dr. Minnick's glasses a glowing green inscription is revealed!\n'In the hall where we eternally meet,\nThe second clue lies beneath your feet.'\nWhile reading the secret message Dr. Minnick's glasses get increasingly hotter and you quickly swat them off your face."
p1773
sbasg1122
(lp1774
sg1124
(g1128
g1127
g1126
tp1775
sg1131
g554
sg1132
S'Who knew McMaster had such a beautiful gallery.\nYou tilt your head endlessly until the art sort of makes sense.\nAfter telling yourself you could totally make every piece in the place had you been given\na chance you put your pinky out.\nThen contemplate your next move.'
p1776
sg1134
I1
sbaNaNaa(lp1777
Na(iGameClasses
Map
p1778
(dp1779
g12
S'OUTSIDE ART MUSEUM:\nYou can enter the museum to your rear. Bus Stop is to your left.\nWilly-dog stand to your right. BSB field lies in front of you.'
p1780
sg1104
(lp1781
sg5
S'Outside the Art Museum'
p1782
sg1120
(lp1783
g556
asg1122
(lp1784
sg1124
(tsg1131
g562
sg1132
S'Standing out front of the art museum you feel you are already being critiqued.\nAfter narrowly escaping a conversation with an arts student\nabout their installation piece of a dirty coffee table...\nYou plan your next move.'
p1785
sg1134
I1
sbaNaNaa(lp1786
Na(iGameClasses
Map
p1787
(dp1788
g12
S'BSB FIELD:\nThe turning circle is to your right. JHE field is to your left.\nEntrance to BSB is in front of you. The Art Museum is to your rear.'
p1789
sg1104
(lp1790
(iGameClasses
Enemy
p1791
(dp1792
g12
S"'I heard some jebroni took the 3W Textbook and hid in Bridges cafe.'\n'Full send, dude!'"
p1793
sg3
(I10
I15
I5
tp1794
sg5
S'Andreas the Nerd'
p1795
sg1111
S'visor glasses'
p1796
sg37
I01
sg1113
Nsg1114
I00
sg19
I50
sg20
g546
sg1115
Nsg40
I00
sg1116
g66
sg1117
S'Dude, that was definitely a full send'
p1797
sbasg5
S'BSB Field'
p1798
sg1120
(lp1799
g540
a(iGameClasses
Interact
p1800
(dp1801
g12
S"You can't even tell time on an analog clock.\nHow are you supposed to use this?"
p1802
sg5
S'Sun Dial'
p1803
sg1111
S'rusty key'
p1804
sg1114
I00
sg20
g546
sg1115
S"minnick's glasses"
p1805
sg1116
S"Through Dr. Minnick's glasses, you see a green glowing handprint appears\non the face of the sundial!\nYou place your hand on it and a compartment opens."
p1806
sbasg1122
(lp1807
sg1124
(tsg1131
g546
sg1132
S'You look up to see the flags flapping happily in the morning breeze.\nThat sundial at their feet ticking to the tune of celestial magic.\nAfter swatting Neil Degrasse quotes from your thoughts...\nYou consider what to do next.'
p1808
sg1134
I1
sbaNaNaa(lp1809
(iGameClasses
Map
p1810
(dp1811
g12
S'QUANTUM TUNNEL:\nGo up to return to the main floor of BSB'
p1812
sg1104
(lp1813
(iGameClasses
Enemy
p1814
(dp1815
g12
S'I am NOT going to finish this assignment... if only I had one to copy.'
p1816
sg3
(I10
I10
I10
tp1817
sg5
S'Liam the Gamer'
p1818
sg1111
S'swordfish'
p1819
sg37
I01
sg1113
Nsg1114
I00
sg19
I15
sg20
g836
sg1115
S'horrible assignment'
p1820
sg40
I00
sg1116
S'Nice! Take this swordfish. I needed 45 cooking for that.'
p1821
sg1117
g66
sbasg5
S'The Quantum Tunnel'
p1822
sg1120
(lp1823
g830
asg1122
(lp1824
sg1124
(g1125
g1126
g1127
g1128
g1129
tp1825
sg1131
g836
sg1132
S"What other faculty spends thousands of dollars on furniture for a\nliteral custodial closet in the BSB basement?\nYou guessed it...\nEng Phys. Gotta love em'"
p1826
sg1134
I0
sba(iGameClasses
Map
p1827
(dp1828
g12
S'BSB:\nBSB field is at your rear. Exit BSB to your right.\nThe entrance to JHE is to your left. The Quantum Tunnel is down the stairs.'
p1829
sg1104
(lp1830
sg5
S'BSB'
p1831
sg1120
(lp1832
g480
asg1122
(lp1833
sg1124
(tsg1131
g486
sg1132
S"You were told JHE would be your home but after picking Eng Phys\nyou didn't realize how wrong you were.\nAt least the cafe is better than JHE's.\nA shudder runs through your body as you draw nearer to the electronics labs.\nWiping a cold sweat from your brow you plan ahead."
p1834
sg1134
I0
sba(iGameClasses
Map
p1835
(dp1836
g12
S'2ND FLOOR BSB:\nYou can only go back down the stairs.'
p1837
sg1104
(lp1838
sg5
S'2nd Floor BSB'
p1839
sg1120
(lp1840
g652
asg1122
(lp1841
sg1124
(g1125
g1126
g1127
g1128
g1175
tp1842
sg1131
g658
sg1132
S'Despite the horrible numbering of floors the layout of the building is great.\nNot a complaint with this one.'
p1843
sg1134
I1
sbaNaa(lp1844
Na(iGameClasses
Map
p1845
(dp1846
g12
S'JHE/BSB JUNCTION:\nEnter JHE to your left. General Sciences building to your right.\nBSB is behind you. The Police station is in front of you.'
p1847
sg1104
(lp1848
(iGameClasses
Enemy
p1849
(dp1850
g12
S"'The oscilloscope is the window into the electronic world.'"
p1851
sg3
(I100
I100
I200
tp1852
sg5
S'Kenrick'
p1853
sg1111
S"kenrick's oscilloscope"
p1854
sg37
I01
sg1113
Nsg1114
I00
sg19
I75
sg20
(I3
I4
I1
tp1855
sg1115
Nsg40
I00
sg1116
g66
sg1117
S"Oh no! My window! The Dark Lord will know I've failed him!"
p1856
sbasg5
S'Between JHE and BSB'
p1857
sg1120
(lp1858
(iGameClasses
Interact
p1859
(dp1860
g12
S'Under closer inspection you notice the book is a different kind of stone\nthan the rest...\nIf only you could get up there for a closer look...'
p1861
sg5
S'Coat of Arms'
p1862
sg1111
S'old scroll'
p1863
sg1114
I00
sg20
g1855
sg1115
S'old ladder'
p1864
sg1116
S'With some effort you climb the rickety ladder and remove the book from the wall.\nReaching into the hole you pull out an old scroll!'
p1865
sbasg1122
(lp1866
sg1124
(tsg1131
g1855
sg1132
S"You look up and see the McMaster coat of arms engraved into the side of BSB.\nThis little pathway has been well worn and you wonder why they don't connect JHE and BSB anyway.\nAn underground (quantum) tunnel would save some hardship on a rainy day..."
p1867
sg1134
I0
sbaNaNaa(lp1868
Na(iGameClasses
Map
p1869
(dp1870
g12
S'POLICE STATION:\nThe path between JHE & BSB behind you. The GO station lies ahead of you.\nThe Nuclear Research Building is to your left. The Tandem Accelerator is to your right.'
p1871
sg1104
(lp1872
(iGameClasses
Enemy
p1873
(dp1874
g12
S"'Give me your student card!'"
p1875
sg3
(I50
I25
I10
tp1876
sg5
S'Bill the MAC Cop'
p1877
sg1111
S'solar cell'
p1878
sg37
I01
sg1113
Nsg1114
I00
sg19
I50
sg20
g98
sg1115
Nsg40
I00
sg1116
g66
sg1117
S"We aren't able to arrest you anyway!"
p1879
sbasg5
S'Police Station'
p1880
sg1120
(lp1881
g92
ag623
asg1122
(lp1882
sg1124
(tsg1131
g98
sg1132
S'Thoughts of getting kicked out of res parties fill your head.\nThose special constables are punks.\nYou mutter the lyrics of a certain N.W.A hit. After avoiding a campus P.D cruiser\nscreaming around the blind corner, you think of what to do next.'
p1883
sg1134
I1
sbaNaNaa(lp1884
Na(iGameClasses
Map
p1885
(dp1886
g12
S'GO STATION:\nThe Reactor is to your left. Keyes is to your right.\nCootes Trail is in front of you. The Police Station is behind you.'
p1887
sg1104
(lp1888
(iGameClasses
Enemy
p1889
(dp1890
g12
S"'Have you got the LON-CAPA Python code?'"
p1891
sg3
(I5
I1
I10
tp1892
sg5
S'Steven the first-year'
p1893
sg1111
S'engineering mug'
p1894
sg37
I01
sg1113
Nsg1114
I00
sg19
I15
sg20
g494
sg1115
Nsg40
I00
sg1116
g66
sg1117
S"I'm a failure at home and at school!"
p1895
sbasg5
S'GO Station'
p1896
sg1120
(lp1897
g488
asg1122
(lp1898
sg1124
(tsg1131
g494
sg1132
S'The rush of people and buses around you is disorienting.\nYou nearly get hit by 3 buses and 2 MAC Cop cars as\nyou play a strange game of real-life frogger.\nReaching a bench you sit down, catch your breath, and plan what to do next.'
p1899
sg1134
I1
sbaNaNaa(lp1900
Na(iGameClasses
Map
p1901
(dp1902
g12
S'COOTES TRAIL:\nCampus exit is to your left. GO station to your rear.\nThe Bridge to Lot M is to your right.'
p1903
sg1104
(lp1904
sg5
S'Cootes Trail'
p1905
sg1120
(lp1906
g147
ag230
a(iGameClasses
Interact
p1907
(dp1908
g12
S'This patch of dirt looks out of place...'
p1909
sg5
S'Uneven Earth'
p1910
sg1111
S'declaration of independence'
p1911
sg1114
I00
sg20
g153
sg1115
S'shovel'
p1912
sg1116
S"You begin digging and find an old box!\nYou open it up and read a note...\n'In the eldest of halls. The attic holds all.'"
p1913
sbasg1122
(lp1914
sg1124
g1125
sg1131
g153
sg1132
S'The flickering light through the trees dances off of the trail ahead of you.\nYou smile as you see a squirrel gathering nuts,\nprobably for his little squirrel family.\nWith this new positive outlook on life you plan your next move.'
p1915
sg1134
I1
sbaNaNaa(lp1916
NaNaNaNaa(lp1917
(lp1918
(iGameClasses
Map
p1919
(dp1920
g12
S'MILLS BASEMENT:\nYou can only go back up to Mills.'
p1921
sg1104
(lp1922
sg5
S'Mills Basement'
p1923
sg1120
(lp1924
g510
a(iGameClasses
Interact
p1925
(dp1926
g12
S"It's an old mirror from a time long past."
p1927
sg5
S'Ancient Mirror'
p1928
sg1111
S'gamma glove'
p1929
sg1114
I00
sg20
g516
sg1115
S'ancient incantation'
p1930
sg1116
S"You mutter the incantation... Suddenly, you see the reflection of Richard Feynman himself standing behind you!\n'You have come a long way. The way of the physicist is strong with you.'\n'Here, take this it is one of the 3 Quantum Relics.\n'You will need all 3 to acquire your Iron Ring.'\n'Trust your instincts and when the time comes you will know what to do."
p1931
sbasg1122
(lp1932
sg1124
(g1125
g1126
g1127
g1128
g1129
tp1933
sg1131
g516
sg1132
S'Jeez has anyone ever been down here?\nThe rows of bookshelves seem to go on forever...\nIf only you could possess all of the knowledge they hold.'
p1934
sg1134
I1
sba(iGameClasses
Map
p1935
(dp1936
g12
S'MILLS LIBRARY:\nThe Willy Dog Stand is in front of you. MUSC is to your right.\nYou can go downstairs.'
p1937
sg1104
(lp1938
sg5
S'Mills Library'
p1939
sg1120
(lp1940
g297
a(iGameClasses
Interact
p1941
(dp1942
g12
S"It's a guide to the Bruce trail."
p1943
sg5
S'Blue Book'
p1944
sg1111
g66
sg1114
I00
sg20
g303
sg1115
g66
sg1116
g66
sba(iGameClasses
Interact
p1945
(dp1946
g12
S"Flipping through you read:\n'The mitochondria is the powerhouse of the cell.'"
p1947
sg5
S'Red Book'
p1948
sg1111
g66
sg1114
I00
sg20
g303
sg1115
g66
sg1116
g66
sbasg1122
(lp1949
sg1124
(g1127
g1126
tp1950
sg1131
g303
sg1132
S'This is definitely not Thode.\nYou wonder if anything gets done in this library.\nAll of the debauchery taking place on the 6th floor sends a shudder through your body.\nYou notice a stack of books...'
p1951
sg1134
I1
sbaNaNaa(lp1952
Na(iGameClasses
Map
p1953
(dp1954
g12
S'WILLY DOG STAND:\nThe turning circle lies in front of you. Mills library at your rear.\nThe Archway to your right. The Art Museum is to your left.'
p1955
sg1104
(lp1956
sg5
S'The Willy Dog stand'
p1957
sg1120
(lp1958
g155
ag1057
asg1122
(lp1959
sg1124
(tsg1131
g161
sg1132
S"Oh, that sweet sweet aroma.\nMany drunken nights flash through your head.\nThat Willy dog cart is more of a staple to McMaster students than the Archway next to it.\nWas it named Willy Dog after Sir William McMaster?\nYou'll never know..."
p1960
sg1134
I1
sbaNaNaa(lp1961
Na(iGameClasses
Map
p1962
(dp1963
g12
S'TURNING CIRCLE:\nWilly Dog stand is to your rear. BSB-field is to your left.\nThe Willy McMaster Statue is to your right. Head down the road if you go forward.'
p1964
sg1104
(lp1965
(iGameClasses
Enemy
p1966
(dp1967
g12
g1875
sg3
(I50
I25
I10
tp1968
sg5
S'Will the MAC Cop'
p1969
sg1111
S'fake gun'
p1970
sg37
I01
sg1113
Nsg1114
I00
sg19
I50
sg20
g169
sg1115
Nsg40
I00
sg1116
g66
sg1117
g1879
sbasg5
S'Turning Circle'
p1971
sg1120
(lp1972
g163
ag237
asg1122
(lp1973
sg1124
(tsg1131
g169
sg1132
S'The circle thing with the three trees in it is looking pretty nice\nin the morning sun.\nStudents rush all around.\nThe aroma from the Willy Dog stand is making you pretty hungry...'
p1974
sg1134
I1
sbaNaNaa(lp1975
Na(iGameClasses
Map
p1976
(dp1977
g12
S'A ROAD:\nEnter BSB to your left. Hamilton Hall to your right.\nThe turning circle is behind you. General Sciences building in front of you.'
p1978
sg1104
(lp1979
sg5
S'Campus Road'
p1980
sg1120
(lp1981
g289
ag328
asg1122
(lp1982
sg1124
(tsg1131
g295
sg1132
S"A lost first year's parent drives by in a mini-van\nclearly ignoring the 'no access' sign.\nYou thank your astrology sign for making sure they looked up and saw you."
p1983
sg1134
I0
sbaNaNaa(lp1984
Na(iGameClasses
Map
p1985
(dp1986
g12
S'GENERAL SCIENCES BUILDING:\nThe Phoenix is to your right. The junction between JHE & BSB is to your left.\nThe Tandem Accelerator is in front of you. Exit to your rear.'
p1987
sg1104
(lp1988
(iGameClasses
Enemy
p1989
(dp1990
g12
S"'I've been trying to develop a new LED...'\n'But I need some silicon, find me a Silicon Substrate please!'"
p1991
sg3
(I150
I50
I50
tp1992
sg5
S'Dr. Kitai'
p1993
sg1111
S'led of power'
p1994
sg37
I00
sg1113
Nsg1114
I00
sg19
I0
sg20
g82
sg1115
S'silicon substrate'
p1995
sg40
I00
sg1116
S"'I've been looking for one just like this, how did you get it?'\n'Maybe you are th-'\n'Nevermind... just be on the lookout for Dr. Kleiman.'"
p1996
sg1117
S"'It was only a midterm, don't off yourself.'"
p1997
sbasg5
S'General Sciences'
p1998
sg1120
(lp1999
g698
ag76
asg1122
(lp2000
sg1124
(tsg1131
g82
sg1132
S"Have you ever been in here?\nI haven't.\nYou see a group of people huddled around a pentagram-wearing goat heads.\nMaybe? I seriously don't know what goes on in here."
p2001
sg1134
I0
sbaNaNaa(lp2002
(iGameClasses
Map
p2003
(dp2004
g12
S'TANDEM BASEMENT:\nYou can only go back up the stairs.'
p2005
sg1104
(lp2006
sg5
S'Tandem Basement'
p2007
sg1120
(lp2008
(iGameClasses
Interact
p2009
(dp2010
g12
S"It's an old broken reactor."
p2011
sg5
S'Broken Reactor'
p2012
sg1111
S'pink donut'
p2013
sg1114
I00
sg20
(I4
I5
I0
tp2014
sg1115
S'flux capacitor'
p2015
sg1116
S"After some elbow grease and a bit of luck you manage to complete the reactor.\nThere is a low whirr as the device starts and begins to glow with a\npink hue.\nYou feel like ancient mechanisms beyond your comprehension are coming to life.\nWithin the pink glow you see an apparition of Dr. Novog!\n'What's up folks! This is the only channel safe for communication\n'Come meet me in the basement of the Nuclear Reactor ASAP and bring that Pink Donut!'\nAs the aparition fades a hooded figure emerges from behind a lab bench.\n'The Dark Lord demands that donut!'\nThe assassin lunges for you but is quickly met by your blow.\nAs they fall to the ground you notice an insignia on their robe that tickles your 'that's familiar' bone...\nYou pull back their hood to reveal the face of an Eng Phys PhD student!\nYou don't remember their name... But you know they are in the faculty..."
p2016
sbasg1122
(lp2017
sg1124
(g1125
g1126
g1127
g1128
g1129
tp2018
sg1131
g2014
sg1132
S"An old basement with all sorts of technological wizardry you don't recognize.\nIt seems like this place has been untouched for some time.\nLooking around you get the impression that not a lot of people come down here."
p2019
sg1134
I1
sba(iGameClasses
Map
p2020
(dp2021
g12
S'TANDEM ACCELERATOR:\nThe General Sciences Building is behind you. The Police station is to your left.\nA trail is to your right. Keyes is in front of you.'
p2022
sg1104
(lp2023
(iGameClasses
Enemy
p2024
(dp2025
g12
S"'The tools should be coming any day now.'"
p2026
sg3
(I50
I75
I50
tp2027
sg5
S'Chris'
p2028
sg1111
S'capstone tools'
p2029
sg37
I01
sg1113
Nsg1114
I00
sg19
I50
sg20
g122
sg1115
Nsg40
I00
sg1116
g66
sg1117
S'I was going to quit anyway!'
p2030
sbasg5
S'Tandem Accelerator'
p2031
sg1120
(lp2032
g116
asg1122
(lp2033
sg1124
(tsg1131
g122
sg1132
S'Turns out the Tandem Accelerator is NOT a rad place to ride a 2-person bike...\nBummed out you remind yourself you graduated and consider what to do next.'
p2034
sg1134
I1
sbaNaNaa(lp2035
Na(iGameClasses
Map
p2036
(dp2037
g12
S'MARY KEYES:\nYou can head to the Bridge if you go forward. The GO station is to your left.\nThe Tandem Accelerator is at your rear. Bates is to your right.'
p2038
sg1104
(lp2039
sg5
S'Keyes'
p2040
sg1120
(lp2041
g799
ag881
asg1122
(lp2042
sg1124
(tsg1131
g805
sg1132
S"A snack station that's open 'til midnight.\nWhat a life saver indeed.\nYou quickly thank the engineering gods for Mary Keyes and fight yourself\nfrom ordering chicken fingers & fries super combo..."
p2043
sg1134
I1
sbaNaNaa(lp2044
Na(iGameClasses
Map
p2045
(dp2046
g12
S'THE BRIDGE:\nLot M is to your right. Keyes is at your rear.\nHead down Cootes trail if you go left.'
p2047
sg1104
(lp2048
sg5
S'The Bridge'
p2049
sg1120
(lp2050
g838
asg1122
(lp2051
sg1124
g1125
sg1131
g844
sg1132
S'You narrowly avoid a GO bus\npick yourself up and brush yourself off.\nThen plan your next move.'
p2052
sg1134
I1
sbaNaNaa(lp2053
NaNaNaNaa(lp2054
(lp2055
(iGameClasses
Map
p2056
(dp2057
g12
S'CUSTODIAL CLOSET:\nYou can only go up to go back to MUSC.'
p2058
sg1104
(lp2059
sg5
S'Custodial Closet'
p2060
sg1120
(lp2061
g445
ag305
ag179
ag60
asg1122
(lp2062
sg1124
(g1125
g1126
g1127
g1128
g1129
tp2063
sg1131
g67
sg1132
S'You enter the custodial closet and a formidable stench fills your nostrils...\nEw.'
p2064
sg1134
I1
sba(iGameClasses
Map
p2065
(dp2066
g12
S'MUSC:\nMills is to your left. The Archway is in front of you.\nA custodial closet is down the stairs.'
p2067
sg1104
(lp2068
sg5
S'McMaster Student Centre'
p2069
sg1120
(lp2070
g784
ag131
asg1122
(lp2071
sg1124
(g1128
g1126
tp2072
sg1131
g137
sg1132
S'The Student Centre is alive.\nAfter counting the number of jean jackets in the Starbucks line like the Count from Sesame Street\nyou snap back to reality.\n(Oops there goes gravity).\nYou notice a Starbucks employee arguing with his manager before throwing their apron to the ground.'
p2073
sg1134
I1
sbaNaNaa(lp2074
Na(iGameClasses
Map
p2075
(dp2076
g12
S'ARCHWAY:\nMUSC at your rear. Statue of Willy in front of you.\nEntrance to University Hall is to your right. The Willy Dog stand is to your left.'
p2077
sg1104
(lp2078
sg5
S'The McMaster Archway'
p2079
sg1120
(lp2080
g791
a(iGameClasses
Interact
p2081
(dp2082
g12
S'It appears the hole was caused by some sort of laser...'
p2083
sg5
S'Old Lamp'
p2084
sg1111
g66
sg1114
I00
sg20
g797
sg1115
g66
sg1116
g66
sbasg1122
(lp2085
sg1124
(tsg1131
g797
sg1132
S"Probably the most beautiful structure at Mac.\nYou notice a hole that appears to have melted through the glass of the lamp underneath...\nYou snap a quick selfie in front of the Archway for the 'gram."
p2086
sg1134
I1
sbaNaNaa(lp2087
Na(iGameClasses
Map
p2088
(dp2089
g12
S'WILLIAM MCMASTER STATUE:\nHamilton Hall is in front of you. The Archway is behind you.\nTurning Circle is to your left.'
p2090
sg1104
(lp2091
sg5
S'Statue of Sir William McMaster'
p2092
sg1120
(lp2093
sg1122
(lp2094
sg1124
g1128
sg1131
(I5
I2
I1
tp2095
sg1132
S'Approaching the statue you notice massive burn marks on the lawn and chunks\nout of the tree...\nHmm...\nWhat if Sir Willy McMaster was actually in that statue Han Solo style?\nAfter a quick selfie with Willy you plan your next move.'
p2096
sg1134
I1
sbaNaNaa(lp2097
Na(iGameClasses
Map
p2098
(dp2099
g12
S'HAMILTON HALL:\nThe Phoenix is in front of you. A road is to your left.\nThe Willy McMaster Statue is to your rear.'
p2100
sg1104
(lp2101
sg5
S'Hamilton Hall'
p2102
sg1120
(lp2103
g1086
ag265
asg1122
(lp2104
sg1124
g1128
sg1131
g271
sg1132
S"You think about helping some first years in the Math help centre.\nThen you don't.\nThey should learn to fight through it if they're going to make it through the\nnext 4 years."
p2105
sg1134
I0
sbaNaNaa(lp2106
(iGameClasses
Map
p2107
(dp2108
g12
S'BRIDGES CAFE:\nYou can only go back up to the Phoenix.'
p2109
sg1104
(lp2110
(iGameClasses
Enemy
p2111
(dp2112
g12
S"'Did I mention I'm vegan?'"
p2113
sg3
(I15
I1
I5
tp2114
sg5
S'Jana the vegan'
p2115
sg1111
S'3w textbook'
p2116
sg37
I01
sg1113
Nsg1114
I00
sg19
I10
sg20
g114
sg1115
Nsg40
I00
sg1116
g66
sg1117
S'I was going to bring it back I swear!'
p2117
sbasg5
S'Bridges'
p2118
sg1120
(lp2119
g108
asg1122
(lp2120
sg1124
(g1125
g1126
g1127
g1128
g1129
tp2121
sg1131
g114
sg1132
S'You feel guilty walking in here after you performed a\nbeat down on a double big mac combo in a drunken stupor only hours earlier.\nAfter pledging to be more vegan in the future, you plan what to do next.'
p2122
sg1134
I1
sba(iGameClasses
Map
p2123
(dp2124
g12
S'THE PHOENIX:\nGeneral Sciences Building is to your left. Hamilton Hall is to your rear.\nThe trail to Bates is in front of you. You can also go down the stairs to Bridges Cafe.'
p2125
sg1104
(lp2126
(iGameClasses
Enemy
p2127
(dp2128
g12
S"'Wait... I recognize you... you have a $420E69 tab!'"
p2129
sg3
(I15
I20
I10
tp2130
sg5
S'Megan the Bartender'
p2131
sg1111
S'meow mix'
p2132
sg37
I01
sg1113
Nsg1114
I00
sg19
I20
sg20
(I5
I4
I1
tp2133
sg1115
Nsg40
I00
sg1116
g66
sg1117
S'Nuuuuuuuuuuuu'
p2134
sba(iGameClasses
Enemy
p2135
(dp2136
g12
S"'Whoever took the 3W Textbook from the QT shall feel my eternal wrath...'"
p2137
sg3
(I200
I100
I50
tp2138
sg5
S'Dr. Knights'
p2139
sg1111
S'cold beer'
p2140
sg37
I01
sg1113
Nsg1114
I00
sg19
I300
sg20
g2133
sg1115
S'3w textbook'
p2141
sg40
I00
sg1116
S"'I've been looking all over for that, have a cold one on me!'\n'But before you go you should know that a difficult road lies ahead.'\n'It will not be easy to have your Iron Ring returned to you'\n'Dr. Haugen should be the one you seek next.'"
p2142
sg1117
S"'What are you doing?!'"
p2143
sbasg5
S'The Phoenix'
p2144
sg1120
(lp2145
sg1122
(lp2146
sg1124
g1128
sg1131
g2133
sg1132
S"Upon entering, a rush of memories from last night enter your mind.\nPeople's faces are a blur but you somewhat recall '16 tequila shots' as something you said.\nYou see a mysterious Hooded Man as he beckons you to come over."
p2147
sg1134
I0
sba(iGameClasses
Map
p2148
(dp2149
g12
S'PHOENIX LOFT:\nYou can only go back down the stairs.'
p2150
sg1104
(lp2151
sg5
S'The Pheonix Loft'
p2152
sg1120
(lp2153
g961
ag429
asg1122
(lp2154
sg1124
(g1125
g1126
g1127
g1128
g1175
tp2155
sg1131
g435
sg1132
S'The history up here is incredible. So many relics from a time long past.\nFrom old costumes from plays to furniture.\nAfter a quick Shakespearean sonnet you think of what to do next.'
p2156
sg1134
I1
sbaNaa(lp2157
Na(iGameClasses
Map
p2158
(dp2159
g12
S'TRAIL TO PHOENIX:\nBates lies in front of you. The Phoenix at your rear.\nThe Tandem Accelerator is to your left.'
p2160
sg1104
(lp2161
(iGameClasses
Enemy
p2162
(dp2163
g12
S"'MHhmgh, Soouh whatu we getta druuuunk'"
p2164
sg3
(I10
I5
I1
tp2165
sg5
S'Phil the drunk'
p2166
sg1111
S'vomit'
p2167
sg37
I01
sg1113
Nsg1114
I00
sg19
I15
sg20
g600
sg1115
S"phil's braces"
p2168
sg40
I00
sg1116
S"'UHhhh i thinka im gonna- im gon-'\nPhil vomits."
p2169
sg1117
S'mhmh spooky ghost urggh ectoplasm noooooo'
p2170
sbasg5
S'Trail'
p2171
sg1120
(lp2172
g594
asg1122
(lp2173
sg1124
g1128
sg1131
g600
sg1132
S"Longboarding down this trail going Mach 16 was a blast and a half.\nDodging deer and first years like it's some sort of cube runner.\nNice."
p2174
sg1134
I1
sbaNaNaa(lp2175
Na(iGameClasses
Map
p2176
(dp2177
g12
S'BATES:\nLOT M lies in front of you. Keyes is to your left.\nThe trail to the Phoenix is behind you.'
p2178
sg1104
(lp2179
sg5
S'Bates'
p2180
sg1120
(lp2181
g983
a(iGameClasses
Interact
p2182
(dp2183
g12
S'Old RCA TV with VHS slot...'
p2184
sg5
S'RCA TV'
p2185
sg1111
g66
sg1114
I00
sg20
g989
sg1115
S'tarzan vhs'
p2186
sg1116
S"You put the VHS into the slot and press play...\nThe opening scenes to Tarzan begin but suddenly the screen goes black and a message\nis displayed!\n'DrOWN I Need EveryThing graBs'"
p2187
sbasg1122
(lp2188
sg1124
g1128
sg1131
g989
sg1132
S'Memories of ridiculous res parties fill your mind.\nYou also recall the landfill of a room that was more of a circus attraction\nthan a living space.\nOh how distant first year seems...'
p2189
sg1134
I1
sbaNaNaa(lp2190
Na(iGameClasses
Map
p2191
(dp2192
g12
S'LOT M:\nTo your left is the bridge. Bates is behind you.'
p2193
sg1104
(lp2194
(iGameClasses
Enemy
p2195
(dp2196
g12
S"'Righteous! Could you help me get into my car?\nI lost my keys and can't find my car.\nI REALLY need what is in there.'"
p2197
sg3
(I14
I20
I5
tp2198
sg5
S'Rod the climber'
p2199
sg1111
S'delicious meal'
p2200
sg37
I01
sg1113
Nsg1114
I00
sg19
I40
sg20
g50
sg1115
S'bowling ball'
p2201
sg40
I00
sg1116
S'Thanks!\nNow I can learn to bowl that perfect strike.\nTake this, I just cooked it up.'
p2202
sg1117
S'Ouch!'
p2203
sbasg5
S'Lot M'
p2204
sg1120
(lp2205
g749
ag691
ag43
ag350
asg1122
(lp2206
sg1124
(g1125
g1128
tp2207
sg1131
g50
sg1132
S'After 3 days of hiking you arrive at Lot M.\nAfter 2 more days of looking for your car you give up and contemplate what to do next.'
p2208
sg1134
I1
sbaNaNaa(lp2209
NaNaNaNaa(lp2210
(lp2211
NaNaNaNaa(lp2212
(iGameClasses
Map
p2213
(dp2214
g12
S'SECRET ROOM:\nYou can only climb up and out.'
p2215
sg1104
(lp2216
sg5
S'Secret Room'
p2217
sg1120
(lp2218
(iGameClasses
Interact
p2219
(dp2220
g12
S"You blow the dust off, open it, and read:\n'The ability to peer into history would be a most formidable power.'\n'I have potentially produced a piece of the puzzle but without a\n'device capable of maintaining the field density long enough I fear\n'it will never become a reality.'\n'Thus I have decided to hide my invention until the time comes where\nsomeone can realize my dream.'\n'If you are reading this, find the place where you can see\ncampus in its entirety.'\n'If you ARE the hero, the next steps shall be revealed.'\n-M. Faraday"
p2221
sg5
S'Old Journal'
p2222
sg1111
g66
sg1114
I00
sg20
(I6
I1
I0
tp2223
sg1115
g66
sg1116
g66
sbasg1122
(lp2224
sg1124
(g1125
g1126
g1127
g1128
g1129
tp2225
sg1131
g2223
sg1132
S"You inspect the floorboards and find one is loose.\nUpon lifting it you reveal a secret room!\nYou climb down and find yourself surrounded by stacks of ancient books and\nforgotten items from McMaster's past."
p2226
sg1134
I1
sba(iGameClasses
Map
p2227
(dp2228
g12
S'UNIVERSITY HALL:\nThe exit is to your left.'
p2229
sg1104
(lp2230
sg5
S'Inside University Hall'
p2231
sg1120
(lp2232
g999
asg1122
(lp2233
sg1124
(g1128
g1126
g1125
tp2234
sg1131
(I6
I1
I1
tp2235
sg1132
S'The glares from portraits of old white founding fathers intimidate you.\nThe memories of failing midterms in their presence sends you into an almost trance-like state.\nYou notice that the portrait of Keyes totally looks like Stephen Fry.\nAfter talking yourself out of stealing a piece of Mac history you plan your next move.'
p2236
sg1134
I1
sba(iGameClasses
Map
p2237
(dp2238
g12
S'2ND FLOOR UH:\nYou can only go back down the stairs.'
p2239
sg1104
(lp2240
sg5
S'2nd Floor UH'
p2241
sg1120
(lp2242
(iGameClasses
Interact
p2243
(dp2244
g12
S'Looks like a set of glasses with multiple coloured lenses...'
p2245
sg5
S'Tri-Coloured Glasses'
p2246
sg1111
Nsg1114
I00
sg20
(I6
I1
I2
tp2247
sg1115
S'declaration of independence'
p2248
sg1116
S"Its a cipher...\nOn the back of the declaration you can see different coded messages using the coloured lenses...\nRED:'Lithium Carbon Boron Mangnesium(-g)'\nBLUE:'Jerry likes presents.'\nGREEN:'Guardians of De Galaxy character.'"
p2249
sbasg1122
(lp2250
sg1124
(g1125
g1126
g1127
g1128
g1175
tp2251
sg1131
g2247
sg1132
S'You make your way up the rickety staircase into a room from a time long past.\nYou notice a dust covered table with some old instruments and clutter thrown about.'
p2252
sg1134
I1
sbaNaa(lp2253
NaNaNaNaa(lp2254
NaNaNaNaa(lp2255
NaNaNaNaa(lp2256
NaNaNaNaa(lp2257
NaNaNaNaa(lp2258
NaNaNaNaa(lp2259
NaNaNaNaatp2260
a(dp2261
S'dr. soleymani'
p2262
g1164
sS'dr. knights'
p2263
g2135
sS'bill the mac cop'
p2264
g1873
sS'dr. kleimann'
p2265
(iGameClasses
Enemy
p2266
(dp2267
g12
S"'We have been looking for you.'\n'The Department is not pleased...'\n'But first, the McMaster Police have confiscated my Solar Cell, go get it.'\n'Then, maybe you are truly worthy of continuing this quest.'"
p2268
sg3
(I300
I150
I100
tp2269
sg5
S'Dr. Kleimann'
p2270
sg1111
S'solar ray'
p2271
sg37
I01
sg1113
Nsg1114
I00
sg19
I300
sg20
(NNNtp2272
sg1115
S'solar cell'
p2273
sg40
I00
sg1116
S"You sit down and listen to what Dr. Kleimann has to say...\n'You have awoken an ancient force that hasn't stirred in many years'.\n'You didn't think we would find out what you did but we know all.'\n'It had been prophecized that an adventurer would dictate the future of the faculty...'\n'Only The Quantum Order can assist you now, seek out Dr. Minnick. I wish you luck...'"
p2274
sg1117
S'You have betrayed The Order!'
p2275
sbsS'mario the mixologist'
p2276
g1416
sS'sir william mcmaster'
p2277
(iGameClasses
Enemy
p2278
(dp2279
g12
S"'You must rid the university of the evil Dr. Cassidy has planned!'"
p2280
sg3
(I175
I125
I100
tp2281
sg5
S'Sir William McMaster'
p2282
sg1111
S'iron ring'
p2283
sg37
I01
sg1113
Nsg1114
I00
sg19
I125
sg20
g2272
sg1115
g66
sg40
I00
sg1116
g66
sg1117
S"The spirit of Sir William McMaster bursts with a fiercely bright explosion.\nYou look down to see your Iron Ring as well as the deed to McMaster!\nDr. Cassidy quickly picks up the deed and turns to you.\n'Excellent!' he says coupled with maniacal laughter.\n'Too fulfill your true destiny, take the power you hold in your Iron Ring and destroy all of the professors'\n'Only after they are gone can Engineering Physics truly reign supreme!'"
p2284
sbsS'will the mac cop'
p2285
g1966
sS'eric the baller'
p2286
g1246
sS'dan fitzgreen'
p2287
(iGameClasses
Enemy
p2288
(dp2289
g12
S"Hello, although I've turned to the dark side to do Physics Labs\n I'm still a great guy. Did I mention I worked at CERN!?"
p2290
sg3
(I100
I75
I100
tp2291
sg5
S'Dan Fitzgreen'
p2292
sg1111
S'ambifacient lunar waneshaft'
p2293
sg37
I01
sg1113
Nsg1114
I00
sg19
I400
sg20
g2272
sg1115
g66
sg40
I00
sg1116
S"'Been a lot stirring around the faculty since last night.'\n'I used to be an adventurous student like you before the High Council and I decided to part ways.'\n'I know what you seek and I am here to help.'\n'You need to fire up that old reactor in the basement of the Tandem Accelerator.'\n'It needs some sort of high power instrument to bring it to life...'\n'I think Dr. Nagasaki has been working on something like that, he is probably somewhere in ITB.'\n'He will likely need this...'"
p2294
sg1117
S"I'm moving to the physics department"
p2295
sbsS'dr. buijs'
p2296
(iGameClasses
Enemy
p2297
(dp2298
g12
S"'I've been looking for you.'\n'I have a lot to tell you, but first we must test your loyalty.'\n'There is a traitor amongst the Eng Phys faculty!'\n'His name is Chris and he was last seen in the Tandem Accelerator.'\n'Bring me what he has stolen!'"
p2299
sg3
(I250
I150
I100
tp2300
sg5
S'Dr. Buijs'
p2301
sg1111
S'voltage divider'
p2302
sg37
I01
sg1113
Nsg1114
I00
sg19
I300
sg20
g2272
sg1115
S'capstone tools'
p2303
sg40
I00
sg1116
S"'Ah you have returned.'\nYou sit down and listen to what Dr. Buijs has to say.\n'The Engineering Physics professors are part of an ancient council known as\nThe Quantum Order'\n'It is our duty to ensure the safety of this campus.'\n'It appears that your actions last night have stirred an evil\neven we don't understand.'\n'All that we do know is that some faculty members have been\ntempted by a Dark Lord with the promise of infinite knowledge.'\n'A prophecy from a time long past has foretold that an adventurer's decisions\nwould dictate the future of the faculty.'\n'Perhaps it is you they spoke of. Keep that in mind as you consider your actions.'\n'See Dan Fitzgreen in the basement.'\n'He has hatched a plan that may turn the balances in our favour.'"
p2304
sg1117
S'It is a voltage divider!'
p2305
sbsS'kenrick'
p2306
g1849
sS'dr. haugen'
p2307
(iGameClasses
Enemy
p2308
(dp2309
g12
S"'Hello, as you are likely aware, there has been a disturbance...'\n'You losing your Iron Ring was no accident, it was taken from you.'\n'The Quantum Order is an ancient fold whose goal is to protect the\nUniversity from certain doom and misuse of our knowledge.'\n'There has been an item of importance stolen from us and we need it returned immediately.'\n'Especially if you are to find your Iron Ring.'\n'The council has received intelligence that Dr. Soleymani has stolen Einstein's brain from the McMaster vault.'\n'You must retrieve it at once, she can be found somewhere in the hospital.'\n'Do not underestimate her! She has been tempted by a Dark Lord.'\n'The Quantum Order requires that you defeat her and return the brain at once!'"
p2310
sg3
(I250
I100
I999
tp2311
sg5
S'Dr. Haugen'
p2312
sg1111
S'femtosecond laser'
p2313
sg37
I01
sg1113
Nsg1114
I00
sg19
I200
sg20
g2272
sg1115
S"einstein's brain"
p2314
sg40
I00
sg1116
S"'Oh my! You've returned! I knew you could do it!'\n'Quickly, hand it over!'\nYou hand Dr. Haugen the brain and he opens the fridge placing it inside.\n'Now, we just need to mount my laser onto my bench-'\nSuddenly a rabid Grad Student bursts into the lab!\n'Hand over the brain, the Dark Lord demands it!' he says.\n'If you strike me down, I will become more powerful than\nyou could possibly imagine' Dr. Haugen replies.\nThe Grad Student lunges at Dr. Haugen who disappears entirely!\nJust before the perplexed Grad Student turns towards you he is met by your blow\nand falls to the floor."
p2315
sg1117
S'Oh my!'
p2316
sbsS'chris'
p2317
g2024
sS'dr. preston'
p2318
g1698
sS'dr. nagasaki'
p2319
g1280
sS'connor the biologist'
p2320
g1550
sS'dr. novog'
p2321
(iGameClasses
Enemy
p2322
(dp2323
g12
S"What's up folks?"
p2324
sg3
(I420
I420
I420
tp2325
sg5
S'Dr. Novog'
p2326
sg1111
S'ancient incantation'
p2327
sg37
I01
sg1113
Nsg1114
I00
sg19
I100
sg20
g2272
sg1115
S'pink donut'
p2328
sg40
I00
sg1116
S"'Alright folks, here's the scoop.'\n'I could only talk to you via the fusion network because the integrity of faculty\ncommunication has been compromised.'\n'The Engineering Physics professors are actually members of an Ancient Council known as The Quantum Order.'\n'For years we have kept McMast-'\n'An assassin?'\n'Hmm... I see, things are worse than we thought.'\n'We have known of this uprising within the faculty for some time but\nwere unaware of just how strong they have grown.'\n'As you have heard, a prophecy foretold of an adventurer dictating the future of the faculty.'\n'This evil group wants nothing more than to take advantage of your power and influence for their own plans.'\n'The choices you make will be yours and yours alone, however, the Quantum Order\nurges that you consider the consequences of your actions.'\n'It is our duty to assist you in realizing your ability but what comes of your power is out of our hands.'\n'You must contact the oracles who foretold of your coming, they will give you the knowledge you require.'\n'Each member of the Quantum Order only knows of the location one Oracle.'\n'For that reason I can only help you so much.'\nDr. Novog pushes a button on a nearby control panel.\nA crane arm descends into the Reactor pool to retrieve a crate from its depths.\n'Take this incantation and find the ancient mirror in the basement of Mills Library... it is your time.'"
p2329
sg1117
g66
sbsS'mitch the ta'
p2330
g1212
sS'rod the climber'
p2331
g2195
sS'jana the vegan'
p2332
g2111
sS'steven the first-year'
p2333
g1889
sS'dr. minnick'
p2334
(iGameClasses
Enemy
p2335
(dp2336
g12
S"'Hello and welcome to how we retrieve your iron ring.'\n'The Quantum Order does not know exactly what you have done.'\n'However, we have felt the consequences of your actions.'\n'I believe the only way to explain this is to show you.'\n'The Quantum Order has gathered intelligence that Kenrick has been using\nhis oscilloscope for evil.'\n'I need you to confront him and return his oscilloscope if we are to go further.'"
p2337
sg3
(I400
I400
I400
tp2338
sg5
S'Dr. Minnick'
p2339
sg1111
S"minnick's glasses"
p2340
sg37
I01
sg1113
Nsg1114
I00
sg19
I200
sg20
g2272
sg1115
S"kenrick's oscilloscope"
p2341
sg40
I00
sg1116
S"'Ah, you have returned.'\n'You see, Kenrick has retrofitted his oscilloscope and created some sort\nof 'window' into the electronics world.'\n'Using this window he has been attempting to access the minds of the greatest\nphysicists in history and use their power for evil!'\n'Our intelligence does not go any further and we do not know what he has done.'\n'All that we do know is that after last night you must be rooted in all of this just as the prophecy foretold.'\n'Take these, if you truly are the one, they will reveal what you need to see.'\n'I suggest you start in the museum.'\n'Also, my lab has since been compromised so I will work in secret in the basement of Thode.'\n'Once you have found the next relic, my workbench will be ready...'"
p2342
sg1117
S"'I'm jealous of stupid people, they have more opportunities to learn!'"
p2343
sbsS'brian the weeb'
p2344
g1629
sS'father frobenius'
p2345
g1587
sS'paul the janitor'
p2346
g1263
sS'dr. kitai'
p2347
g1989
sS'hooded man'
p2348
(iGameClasses
Enemy
p2349
(dp2350
g12
S"I've been looking for you. Especially after what you did last night.\nI recommend you seek out the profs if you are to find your ring...\nOnly they can right the wrongs you have done."
p2351
sg3
(I999
I999
I999
tp2352
sg5
S'Hooded Man'
p2353
sg1111
g66
sg37
I01
sg1113
Nsg1114
I00
sg19
I999
sg20
g2133
sg1115
Nsg40
I00
sg1116
g66
sg1117
g66
sbsS'liam the gamer'
p2354
g1814
sS'zack the snack'
p2355
g1665
sS'larry the bus driver'
p2356
g1613
sS'megan the bartender'
p2357
g2127
sS'dr. lapierre'
p2358
g1500
sS'brendan fallon'
p2359
(iGameClasses
Enemy
p2360
(dp2361
g12
S"What's up dude? I'm here to bless up your shit.\nDo you have my lunch box?"
p2362
sg3
(I9999
I9999
I9999
tp2363
sg5
S'Brendan Fallon'
p2364
sg1111
Nsg37
I01
sg1113
Nsg1114
I01
sg19
I999
sg20
g486
sg1115
S"brendan fallon's lunchbox"
p2365
sg40
I01
sg1116
S'THANKS! TOKE UP MY DUDES!'
p2366
sg1117
g66
sbsS'phil the drunk'
p2367
g2162
sS'undead grad student'
p2368
g1571
sS'erik the sk8r'
p2369
g1106
sS'andreas the nerd'
p2370
g1791
sS'dr. cassidy'
p2371
(iGameClasses
Enemy
p2372
(dp2373
g12
S"'Yes, I was the one who sent you on this quest.'\n'My associates were no match for you, they did not have the strength to acquire the Relics for me.'\n'I know the Quantum Order has told you that the prophecy spoke of you bringing peace.'\n'You have been lead to believe the Order fights for what is just and fair.'\n'But you have been mislead.'\n'They only wish to keep the power of the Quantum Relics to themselves so that they\nalone decide the fate of the University.'\n'I only ever wanted to reveal the true power of Engineering Physics to the students.'\n'They thought my methods were unsafe.'\n'They thought the power I intended to reveal would pollute the minds of the students\nand cloud their judgement.'\n'The Quantum Order only wishes to suppress the true power we hold!'\n'They don't trust the students, they think they are incapable of managing the power I intended to give them.'\n'We are the premier stream and we deserve to rule McMaster as such!'\n'Join me, together we can harness the powers given to you by the oracles.'\n'With the relics we may enter the Shadow Realm and retrieve the deed to the university\nfrom the spirit of Sir William McMaster.'\n'We can then overthrow the Quantum Order and shape the university to our liking and\nfinally Engineering Physics will reign supreme!'\n\nJust as Dr. Cassidy finishes speaking the ground begins to shake and you are blinded\nby a glow emanating from the statue of Sir William McMaster.\nYou recover from shielding your eyes and see the spirit of William McMaster\nemerging from a rift in fabric of spacetime!\n'Just wait, hero.'\n'I took your Iron Ring from you after you desecrated my statue last night for a reason'\n'I have known of Dr. Cassidy's intentions for some time and as you are the one\nthe prophecy has spoken of I knew he would jump at this opportunity to take my deed.'\n'I had to find a way to force him into playing his hand.'\n'Now the opportunity to rid Engineering Physics of this tyrannical Dark Lord has come!'\nDr. Cassidy quickly interjects.\n'You see, he only wants to restrict the power of our faculty!'\n'Destroy him and we shall finally rule the university!'"
p2374
sg3
(I175
I125
I200
tp2375
sg5
S'Dr. Cassidy'
p2376
sg1111
g66
sg37
I01
sg1113
Nsg1114
I00
sg19
I125
sg20
g2272
sg1115
g66
sg40
I00
sg1116
g66
sg1117
S"Dr. Cassidy falls to the ground.\nThe spirit of Sir William McMaster approaches and puts his hand on your shoulder.\n'You have chosen wisely.'\n'Dr. Cassidy had been driven mad in his quest for ultimate power.'\n'You have ensured the safety of McMaster and remained true to your values.'\n'McMaster University is an institution meant to allow all facets of learning coexist in harmony.'\n'No faculty should rule over the rest.'\n'For your actions, I believe you are a worthy engineer.'\n'Here is your Iron Ring, continue to wear it with pride.'"
p2377
sbsa(dp2378
S'red book'
p2379
g1945
sS'workbench'
p2380
g1521
sS'rules sign'
p2381
g1654
sS'old car'
p2382
g1313
sS'red car'
p2383
g1301
sS'fridge'
p2384
g1463
sS'old painting'
p2385
g1767
sS'optical bench'
p2386
g1470
sS'garbage can'
p2387
g1647
sS'uneven earth'
p2388
g1907
sS'lenovo laptop'
p2389
g1686
sS'new car'
p2390
g1317
sS'mouse'
p2391
g1364
sS'coat of arms'
p2392
g1859
sS'rca tv'
p2393
g2182
sS'sharpxchange'
p2394
g1151
sS'tri-coloured glasses'
p2395
g2243
sS'mcmaster map'
p2396
g1392
sS'blue car'
p2397
g1306
sS'blue book'
p2398
g1941
sS'broken reactor'
p2399
g2009
sS'sun dial'
p2400
g1800
sS'old lamp'
p2401
g2081
sS'old journal'
p2402
g2219
sS'display case'
p2403
g1486
sS'ancient mirror'
p2404
g1925
sa(dp2405
S'secret spaces'
p2406
I1
sS'the dark lord'
p2407
I1
sS'create chaos'
p2408
I1
sS'preston get dumbbell'
p2409
I1
sS'kitai get silicon substrate'
p2410
I1
sS'knights get book'
p2411
I1
sS'lapierre get coffee'
p2412
I0
sS'talk to mysterious man'
p2413
I0
sS'minnick get oscilloscope'
p2414
I1
sS'maxwell portal'
p2415
I1
sS'feynman mirror'
p2416
I1
sS'EPTA all the way down'
p2417
I0
sS'kleimann get solar cell'
p2418
I1
sS'einstein fridge'
p2419
I1
sS'university man'
p2420
I1
sS'dan fix reactor'
p2421
I1
sS'get key to display case'
p2422
I0
sS'buijs kill chris'
p2423
I1
sS'haugen kill soleymani'
p2424
I1
sS'restored order'
p2425
I1
sS'novog get donut'
p2426
I1
sS'end game start'
p2427
I1
sa(dp2428
S'playername'
p2429
g6
sS'layersdeep'
p2430
I0
sS'timestart'
p2431
F1550477111.322
sS'savepath'
p2432
S'D:\\Files\\bflaw\\Documents\\GitHub\\EngPhysAdventure\\cache\\'
p2433
sS'gamestart'
p2434
F1550477111.322
sS'commandcount'
p2435
I180
sS'log'
p2436
(lp2437
S'Alpha v0.27 - Dev Update'
p2438
ag6
aS'Mon Feb 18 03:05:11 2019'
p2439
aS'--LOG START--'
p2440
ag1125
aS'inspect lenovo laptop'
p2441
ag1128
ag1128
ag1128
aS'talk hooded man'
p2442
ag1127
ag1127
ag1127
ag1128
ag1126
ag1129
aS"equip brendan fallon's lunchbox"
p2443
ag1175
ag1127
ag1128
ag1127
ag1128
ag1127
ag1128
aS'\\l'
p2444
ag1127
ag1127
aS'rr'
p2445
ag1127
ag1128
ag1127
ag1128
ag1127
ag1128
ag1127
ag1128
ag1127
ag1128
ag1127
ag1128
ag1127
ag1128
ag1127
ag1128
aS';'
p2446
ag1128
ag2446
ag1128
ag2446
ag1128
ag2446
ag1128
ag2446
ag1128
ag2446
ag1128
ag2446
ag2446
ag1127
ag1128
ag1127
ag1128
ag1127
ag1128
ag1127
ag1128
ag1127
ag1128
ag1127
ag1128
ag1127
ag1128
ag2446
ag1128
ag1127
ag1128
ag1127
ag1128
ag1127
ag1128
ag1127
ag1128
ag1127
ag1128
ag1127
ag1128
ag2446
ag1128
ag1127
ag1127
ag1128
ag1127
ag1128
ag1127
ag1128
ag1127
ag1128
ag1127
ag1128
ag1127
ag1128
ag1127
ag1128
ag1127
ag1128
ag1127
ag1128
ag1127
ag1128
ag1127
ag1128
ag1127
ag1128
ag1127
ag1128
ag1127
ag1128
ag1127
ag1128
ag1127
ag1128
ag1127
ag1128
ag1127
ag1128
ag1127
ag1128
ag1127
ag1128
ag1127
ag1128
ag1127
ag1128
ag1127
ag1128
ag1127
ag1128
ag1127
ag1128
ag1127
ag1128
ag1127
ag1128
ag1127
ag1128
ag1127
ag1128
ag1127
ag1128
ag1127
ag1128
ag1127
ag1128
ag1127
ag1128
ag1127
ag1128
ag1127
ag1128
ag1127
aS'talk brendan fallon'
p2447
aS'inspect green bang bong'
p2448
aS'equip bang bong'
p2449
aS'equip green bang bong'
p2450
aS'stats'
p2451
ag1128
ag1128
ag1125
ag1127
aS'attack dr kitai'
p2452
ag1127
ag1127
aS'equip coffee'
p2453
ag1127
ag1125
ag1175
ag1125
aS'talk dr lapierre'
p2454
aS'equip eng phys pen'
p2455
ag1129
ag1126
ag1126
ag1128
aS'inspect lenvo laptop'
p2456
asS'stepcount'
p2457
I155
sS'version'
p2458
F0.27
sS'versionname'
p2459
g2438
sS'runtime'
p2460
I0
sa.